 duidemo_d

 Timestamp is 5a2a0b20 (Fri Dec  8 11:46:40 2017)

 Preferred load address is 00400000

 Start         Length     Name                   Class
 0001:00000000 00004080H .text$di                CODE
 0001:00004080 000238e0H .text$mn                CODE
 0001:00027960 00003040H .text$x                 CODE
 0001:0002a9a0 000010c0H .text$yd                CODE
 0002:00000000 00000104H .CRT$XCA                DATA
 0002:00000104 00000104H .CRT$XCAA               DATA
 0002:00000208 00000114H .CRT$XCU                DATA
 0002:0000031c 00000104H .CRT$XCZ                DATA
 0002:00000420 00000104H .CRT$XIA                DATA
 0002:00000524 00000104H .CRT$XIAA               DATA
 0002:00000628 00000104H .CRT$XIAC               DATA
 0002:0000072c 00000104H .CRT$XIZ                DATA
 0002:00000830 00000104H .CRT$XPA                DATA
 0002:00000934 00000104H .CRT$XPZ                DATA
 0002:00000a38 00000104H .CRT$XTA                DATA
 0002:00000b3c 00000104H .CRT$XTZ                DATA
 0002:00000c40 00006e60H .rdata                  DATA
 0002:00007aa0 00001560H .rdata$r                DATA
 0002:00009000 00000304H .rdata$sxdata           DATA
 0002:00009304 00000174H .rdata$zzzdbg           DATA
 0002:00009478 00000104H .rtc$IAA                DATA
 0002:0000957c 00000130H .rtc$IMZ                DATA
 0002:000096ac 00000104H .rtc$IZZ                DATA
 0002:000097b0 00000104H .rtc$TAA                DATA
 0002:000098b4 00000130H .rtc$TMZ                DATA
 0002:000099e4 00000104H .rtc$TZZ                DATA
 0002:00009ae8 00001fbeH .xdata$x                DATA
 0002:0000baa6 00000000H .edata                  DATA
 0003:00000000 0000019cH .data                   DATA
 0003:0000019c 000008d4H .data$r                 DATA
 0003:00000a70 00001344H .bss                    DATA
 0004:00000000 00000c14H .idata$5                DATA
 0004:00000c14 000000c8H .idata$2                DATA
 0004:00000cdc 00000014H .idata$3                DATA
 0004:00000cf0 00000c14H .idata$4                DATA
 0004:00001904 000064efH .idata$6                DATA
 0005:00000000 00000104H .00cfg                  DATA
 0006:00000000 00000410H .rsrc$01                DATA
 0006:00000410 00349300H .rsrc$02                DATA

  Address         Publics by Value              Rva+Base       Lib:Object

 0000:00000000       ___hybrid_code_map         00000000     <absolute>
 0000:00000000       ___guard_iat_table         00000000     <absolute>
 0000:00000000       ___guard_iat_count         00000000     <absolute>
 0000:00000000       ___guard_fids_table        00000000     <absolute>
 0000:00000000       ___guard_fids_count        00000000     <absolute>
 0000:00000000       ___guard_longjmp_table     00000000     <absolute>
 0000:00000000       ___guard_longjmp_count     00000000     <absolute>
 0000:00000000       ___hybrid_auxiliary_iat    00000000     <absolute>
 0000:00000000       ___dynamic_value_reloc_table 00000000     <absolute>
 0000:00000000       ___hybrid_code_map_count   00000000     <absolute>
 0000:00000000       ___enclave_config          00000000     <absolute>
 0000:0000006b       ___safe_se_handler_count   0000006b     <absolute>
 0000:00000100       ___guard_flags             00000100     <absolute>
 0000:00000000       ___ImageBase               00400000     <linker-defined>
 0001:00004080       ?CreateControl@CCircleProgressUI@@SAPAVCControlUI@DuiLib@@XZ 00405080 f   ControlEx.obj
 0001:00004120       ?CreateControl@CMyComboUI@@SAPAVCControlUI@DuiLib@@XZ 00405120 f   ControlEx.obj
 0001:000041c0       ?CreateControl@CChartViewUI@@SAPAVCControlUI@DuiLib@@XZ 004051c0 f   ControlEx.obj
 0001:00004260       ??0CChartViewUI@@QAE@XZ    00405260 f   ControlEx.obj
 0001:00004390       ??1CChartViewUI@@UAE@XZ    00405390 f   ControlEx.obj
 0001:00004410       ?Add@CChartViewUI@@QAE_NPB_WN@Z 00405410 f   ControlEx.obj
 0001:00004520       ?AddAt@CChartViewUI@@QAE_NPB_WNH@Z 00405520 f   ControlEx.obj
 0001:000046f0       ?SetAttribute@CChartViewUI@@UAEXPB_W0@Z 004056f0 f   ControlEx.obj
 0001:00004a30       ?DoPaint@CChartViewUI@@UAEXPAUHDC__@@ABUtagRECT@@@Z 00405a30 f   ControlEx.obj
 0001:00004b00       ?DoPaintPie@CChartViewUI@@UAEXPAUHDC__@@ABUtagRECT@@@Z 00405b00 f   ControlEx.obj
 0001:00005200       ?DoPaintHistogram@CChartViewUI@@UAEXPAUHDC__@@ABUtagRECT@@@Z 00406200 f   ControlEx.obj
 0001:000057c0       ?CreateControl@CWndUI@@SAPAVCControlUI@DuiLib@@XZ 004067c0 f   ControlEx.obj
 0001:00005e50       ??$?0$$V@?$_Compressed_pair@V?$allocator@UtagCHARTITEM@@@std@@V?$_Vector_val@U?$_Simple_types@UtagCHARTITEM@@@std@@@2@$00@std@@QAE@U_Zero_then_variadic_args_t@1@@Z 00406e50 f i ControlEx.obj
 0001:00005e90       ??$?0U?$integral_constant@_N$00@std@@@_Unused_parameter@std@@QAE@$$QAU?$integral_constant@_N$00@1@@Z 00406e90 f i ControlEx.obj
 0001:00005eb0       ??$?0UtagCHARTITEM@@@?$allocator@U_Container_proxy@std@@@std@@QAE@ABV?$allocator@UtagCHARTITEM@@@1@@Z 00406eb0 f i ControlEx.obj
 0001:00005ed0       ??$_Deallocate_plain@V?$allocator@U_Container_proxy@std@@@std@@$0A@@std@@YAXAAV?$allocator@U_Container_proxy@std@@@0@QAU_Container_proxy@0@@Z 00406ed0 f i ControlEx.obj
 0001:00005f00       ??$_Destroy_range1@V?$allocator@UtagCHARTITEM@@@std@@@std@@YAXPAUtagCHARTITEM@@0AAV?$allocator@UtagCHARTITEM@@@0@U?$integral_constant@_N$0A@@0@@Z 00406f00 f i ControlEx.obj
 0001:00005f50       ??$_Destroy_range@V?$allocator@UtagCHARTITEM@@@std@@@std@@YAXPAUtagCHARTITEM@@0AAV?$allocator@UtagCHARTITEM@@@0@@Z 00406f50 f i ControlEx.obj
 0001:00005f90       ??$_Emplace_back_with_unused_capacity@ABUtagCHARTITEM@@@?$vector@UtagCHARTITEM@@V?$allocator@UtagCHARTITEM@@@std@@@std@@AAEXABUtagCHARTITEM@@@Z 00406f90 f i ControlEx.obj
 0001:00006050       ??$_Min_value@I@std@@YAABIABI0@Z 00407050 f i ControlEx.obj
 0001:000060a0       ??$_Move_backward_unchecked1@PAUtagCHARTITEM@@PAU1@@std@@YAPAUtagCHARTITEM@@PAU1@00U_General_ptr_iterator_tag@0@@Z 004070a0 f i ControlEx.obj
 0001:00006100       ??$_Move_backward_unchecked@PAUtagCHARTITEM@@PAU1@@std@@YAPAUtagCHARTITEM@@PAU1@00@Z 00407100 f i ControlEx.obj
 0001:00006160       ??$_Ptr_copy_cat@UtagCHARTITEM@@U1@@std@@YA?AU_General_ptr_iterator_tag@0@ABQAUtagCHARTITEM@@0@Z 00407160 f i ControlEx.obj
 0001:00006180       ??$_Ptr_move_cat@UtagCHARTITEM@@U1@@std@@YA?AU_General_ptr_iterator_tag@0@ABQAUtagCHARTITEM@@0@Z 00407180 f i ControlEx.obj
 0001:000061a0       ??$_Rechecked@PAUtagCHARTITEM@@PAU1@@std@@YAAAPAUtagCHARTITEM@@AAPAU1@PAU1@@Z 004071a0 f i ControlEx.obj
 0001:000061c0       ??$_Unchecked@PAUtagCHARTITEM@@@std@@YAPAUtagCHARTITEM@@PAU1@@Z 004071c0 f i ControlEx.obj
 0001:000061d0       ??$_Unfancy@U_Container_proxy@std@@@std@@YAPAU_Container_proxy@0@PAU10@@Z 004071d0 f i ControlEx.obj
 0001:000061e0       ??$_Unfancy@UtagCHARTITEM@@@std@@YAPAUtagCHARTITEM@@PAU1@@Z 004071e0 f i ControlEx.obj
 0001:000061f0       ??$_Uninitialized_copy@PAUtagCHARTITEM@@PAU1@V?$allocator@UtagCHARTITEM@@@std@@@std@@YAPAUtagCHARTITEM@@PAU1@00AAV?$allocator@UtagCHARTITEM@@@0@@Z 004071f0 f i ControlEx.obj
 0001:00006320       ??$_Uninitialized_copy_al_unchecked@PAUtagCHARTITEM@@PAU1@V?$allocator@UtagCHARTITEM@@@std@@@std@@YAPAUtagCHARTITEM@@PAU1@00AAV?$allocator@UtagCHARTITEM@@@0@U_General_ptr_iterator_tag@0@U_Unused_parameter@0@@Z 00407320 f i ControlEx.obj
 0001:00006440       ??$_Uninitialized_move@PAUtagCHARTITEM@@PAU1@V?$allocator@UtagCHARTITEM@@@std@@@std@@YAPAUtagCHARTITEM@@PAU1@00AAV?$allocator@UtagCHARTITEM@@@0@@Z 00407440 f i ControlEx.obj
 0001:00006570       ??$_Uninitialized_move_al_unchecked@PAUtagCHARTITEM@@PAU1@V?$allocator@UtagCHARTITEM@@@std@@@std@@YAPAUtagCHARTITEM@@PAU1@00AAV?$allocator@UtagCHARTITEM@@@0@U_General_ptr_iterator_tag@0@U_Unused_parameter@0@@Z 00407570 f i ControlEx.obj
 0001:000066a0       ??$addressof@V?$_Vector_val@U?$_Simple_types@UtagCHARTITEM@@@std@@@std@@@std@@YAPAV?$_Vector_val@U?$_Simple_types@UtagCHARTITEM@@@std@@@0@AAV10@@Z 004076a0 f i ControlEx.obj
 0001:000066b0       ??$construct@U_Container_proxy@std@@U12@@?$_Default_allocator_traits@V?$allocator@U_Container_proxy@std@@@std@@@std@@SAXAAV?$allocator@U_Container_proxy@std@@@1@QAU_Container_proxy@1@$$QAU31@@Z 004076b0 f i ControlEx.obj
 0001:00006710       ??$construct@UtagCHARTITEM@@AAU1@@?$_Default_allocator_traits@V?$allocator@UtagCHARTITEM@@@std@@@std@@SAXAAV?$allocator@UtagCHARTITEM@@@1@QAUtagCHARTITEM@@AAU3@@Z 00407710 f i ControlEx.obj
 0001:000067c0       ??$construct@UtagCHARTITEM@@ABU1@@?$_Default_allocator_traits@V?$allocator@UtagCHARTITEM@@@std@@@std@@SAXAAV?$allocator@UtagCHARTITEM@@@1@QAUtagCHARTITEM@@ABU3@@Z 004077c0 f i ControlEx.obj
 0001:00006870       ??$construct@UtagCHARTITEM@@U1@@?$_Default_allocator_traits@V?$allocator@UtagCHARTITEM@@@std@@@std@@SAXAAV?$allocator@UtagCHARTITEM@@@1@QAUtagCHARTITEM@@$$QAU3@@Z 00407870 f i ControlEx.obj
 0001:00006920       ??$destroy@U_Container_proxy@std@@@?$_Default_allocator_traits@V?$allocator@U_Container_proxy@std@@@std@@@std@@SAXAAV?$allocator@U_Container_proxy@std@@@1@QAU_Container_proxy@1@@Z 00407920 f i ControlEx.obj
 0001:00006930       ??$destroy@UtagCHARTITEM@@@?$_Default_allocator_traits@V?$allocator@UtagCHARTITEM@@@std@@@std@@SAXAAV?$allocator@UtagCHARTITEM@@@1@QAUtagCHARTITEM@@@Z 00407930 f i ControlEx.obj
 0001:00006950       ??$emplace@ABUtagCHARTITEM@@@?$vector@UtagCHARTITEM@@V?$allocator@UtagCHARTITEM@@@std@@@std@@QAE?AV?$_Vector_iterator@V?$_Vector_val@U?$_Simple_types@UtagCHARTITEM@@@std@@@std@@@1@V?$_Vector_const_iterator@V?$_Vector_val@U?$_Simple_types@UtagCHARTITEM@@@std@@@std@@@1@ABUtagCHARTITEM@@@Z 00407950 f i ControlEx.obj
 0001:00006ee0       ??$emplace_back@ABUtagCHARTITEM@@@?$vector@UtagCHARTITEM@@V?$allocator@UtagCHARTITEM@@@std@@@std@@QAEXABUtagCHARTITEM@@@Z 00407ee0 f i ControlEx.obj
 0001:00007110       ??$forward@AAUtagCHARTITEM@@@std@@YAAAUtagCHARTITEM@@AAU1@@Z 00408110 f i ControlEx.obj
 0001:00007120       ??$forward@ABUtagCHARTITEM@@@std@@YAABUtagCHARTITEM@@ABU1@@Z 00408120 f i ControlEx.obj
 0001:00007130       ??$forward@U_Container_proxy@std@@@std@@YA$$QAU_Container_proxy@0@AAU10@@Z 00408130 f i ControlEx.obj
 0001:00007140       ??$forward@UtagCHARTITEM@@@std@@YA$$QAUtagCHARTITEM@@AAU1@@Z 00408140 f i ControlEx.obj
 0001:00007150       ??$move@AAUtagCHARTITEM@@@std@@YA$$QAUtagCHARTITEM@@AAU1@@Z 00408150 f i ControlEx.obj
 0001:00007160       ??0?$_Vector_alloc@U?$_Vec_base_types@UtagCHARTITEM@@V?$allocator@UtagCHARTITEM@@@std@@@std@@@std@@QAE@XZ 00408160 f i ControlEx.obj
 0001:00007200       ??0?$_Vector_const_iterator@V?$_Vector_val@U?$_Simple_types@UtagCHARTITEM@@@std@@@std@@@std@@QAE@$$QAV01@@Z 00408200 f i ControlEx.obj
 0001:00007250       ??0?$_Vector_const_iterator@V?$_Vector_val@U?$_Simple_types@UtagCHARTITEM@@@std@@@std@@@std@@QAE@ABV01@@Z 00408250 f i ControlEx.obj
 0001:000072a0       ??0?$_Vector_const_iterator@V?$_Vector_val@U?$_Simple_types@UtagCHARTITEM@@@std@@@std@@@std@@QAE@PAUtagCHARTITEM@@PBU_Container_base12@1@@Z 004082a0 f i ControlEx.obj
 0001:000072f0       ??0?$_Vector_iterator@V?$_Vector_val@U?$_Simple_types@UtagCHARTITEM@@@std@@@std@@@std@@QAE@ABV01@@Z 004082f0 f i ControlEx.obj
 0001:00007330       ??0?$_Vector_iterator@V?$_Vector_val@U?$_Simple_types@UtagCHARTITEM@@@std@@@std@@@std@@QAE@PAUtagCHARTITEM@@PBU_Container_base12@1@@Z 00408330 f i ControlEx.obj
 0001:00007370       ??0?$_Vector_val@U?$_Simple_types@UtagCHARTITEM@@@std@@@std@@QAE@XZ 00408370 f i ControlEx.obj
 0001:000073d0       ??0?$allocator@UtagCHARTITEM@@@std@@QAE@XZ 004083d0 f i ControlEx.obj
 0001:000073f0       ??0?$vector@UtagCHARTITEM@@V?$allocator@UtagCHARTITEM@@@std@@@std@@QAE@XZ 004083f0 f i ControlEx.obj
 0001:00007460       ??0Brush@Gdiplus@@IAE@PAVGpBrush@1@W4Status@1@@Z 00408460 f i ControlEx.obj
 0001:000074b0       ??0Brush@Gdiplus@@IAE@XZ   004084b0 f i ControlEx.obj
 0001:000074f0       ??0CCircleProgressUI@@QAE@XZ 004084f0 f i ControlEx.obj
 0001:00007540       ??0CMyComboUI@@QAE@XZ      00408540 f i ControlEx.obj
 0001:000075b0       ??0CWndUI@@QAE@XZ          004085b0 f i ControlEx.obj
 0001:00007600       ??0Color@Gdiplus@@QAE@EEEE@Z 00408600 f i ControlEx.obj
 0001:00007660       ??0Color@Gdiplus@@QAE@K@Z  00408660 f i ControlEx.obj
 0001:00007690       ??0Color@Gdiplus@@QAE@XZ   00408690 f i ControlEx.obj
 0001:000076c0       ??0Graphics@Gdiplus@@QAE@PAUHDC__@@@Z 004086c0 f i ControlEx.obj
 0001:00007770       ??0SolidBrush@Gdiplus@@QAE@ABVColor@1@@Z 00408770 f i ControlEx.obj
 0001:00007880       ??0_Container_base12@std@@QAE@XZ 00408880 f i ControlEx.obj
 0001:000078b0       ??0_Container_proxy@std@@QAE@XZ 004088b0 f i ControlEx.obj
 0001:000078f0       ??0_Iterator_base12@std@@QAE@ABU01@@Z 004088f0 f i ControlEx.obj
 0001:00007940       ??0_Iterator_base12@std@@QAE@XZ 00408940 f i ControlEx.obj
 0001:00007980       ??0tagCHARTITEM@@QAE@$$QAU0@@Z 00408980 f i ControlEx.obj
 0001:000079f0       ??0tagCHARTITEM@@QAE@ABU0@@Z 004089f0 f i ControlEx.obj
 0001:00007a60       ??0tagCHARTITEM@@QAE@XZ    00408a60 f i ControlEx.obj
 0001:00007aa0       ??1?$_Compressed_pair@V?$allocator@UtagCHARTITEM@@@std@@V?$_Vector_val@U?$_Simple_types@UtagCHARTITEM@@@std@@@2@$00@std@@QAE@XZ 00408aa0 f i ControlEx.obj
 0001:00007ad0       ??1?$_Vector_alloc@U?$_Vec_base_types@UtagCHARTITEM@@V?$allocator@UtagCHARTITEM@@@std@@@std@@@std@@QAE@XZ 00408ad0 f i ControlEx.obj
 0001:00007b40       ??1?$_Vector_const_iterator@V?$_Vector_val@U?$_Simple_types@UtagCHARTITEM@@@std@@@std@@@std@@QAE@XZ 00408b40 f i ControlEx.obj
 0001:00007b70       ??1?$_Vector_iterator@V?$_Vector_val@U?$_Simple_types@UtagCHARTITEM@@@std@@@std@@@std@@QAE@XZ 00408b70 f i ControlEx.obj
 0001:00007ba0       ??1?$_Vector_val@U?$_Simple_types@UtagCHARTITEM@@@std@@@std@@QAE@XZ 00408ba0 f i ControlEx.obj
 0001:00007bd0       ??1?$vector@UtagCHARTITEM@@V?$allocator@UtagCHARTITEM@@@std@@@std@@QAE@XZ 00408bd0 f i ControlEx.obj
 0001:00007c40       ??1Brush@Gdiplus@@UAE@XZ   00408c40 f i ControlEx.obj
 0001:00007c80       ??1CCircleProgressUI@@UAE@XZ 00408c80 f i ControlEx.obj
 0001:00007cc0       ??1CMyComboUI@@UAE@XZ      00408cc0 f i ControlEx.obj
 0001:00007d00       ??1CWndUI@@UAE@XZ          00408d00 f i ControlEx.obj
 0001:00007d40       ??1Graphics@Gdiplus@@QAE@XZ 00408d40 f i ControlEx.obj
 0001:00007d70       ??1SolidBrush@Gdiplus@@UAE@XZ 00408d70 f i ControlEx.obj
 0001:00007da0       ??1_Container_base12@std@@QAE@XZ 00408da0 f i ControlEx.obj
 0001:00007dd0       ??1_Iterator_base12@std@@QAE@XZ 00408dd0 f i ControlEx.obj
 0001:00007eb0       ??1tagCHARTITEM@@QAE@XZ    00408eb0 f i ControlEx.obj
 0001:00007ef0       ??2@YAPAXIPAX@Z            00408ef0 f i ControlEx.obj
 0001:00007f00       ??2GdiplusBase@Gdiplus@@SAPAXI@Z 00408f00 f i ControlEx.obj
 0001:00007f20       ??3@YAXPAX0@Z              00408f20 f i ControlEx.obj
 0001:00007f30       ??3GdiplusBase@Gdiplus@@SAXPAX@Z 00408f30 f i ControlEx.obj
 0001:00007f50       ??4_Iterator_base12@std@@QAEAAU01@ABU01@@Z 00408f50 f i ControlEx.obj
 0001:00008060       ??4tagCHARTITEM@@QAEAAU0@$$QAU0@@Z 00409060 f i ControlEx.obj
 0001:000080d0       ??A?$vector@UtagCHARTITEM@@V?$allocator@UtagCHARTITEM@@@std@@@std@@QAEAAUtagCHARTITEM@@I@Z 004090d0 f i ControlEx.obj
 0001:00008170       ??H?$_Vector_iterator@V?$_Vector_val@U?$_Simple_types@UtagCHARTITEM@@@std@@@std@@@std@@QBE?AV01@H@Z 00409170 f i ControlEx.obj
 0001:00008280       ??Y?$_Vector_const_iterator@V?$_Vector_val@U?$_Simple_types@UtagCHARTITEM@@@std@@@std@@@std@@QAEAAV01@H@Z 00409280 f i ControlEx.obj
 0001:00008370       ??Y?$_Vector_iterator@V?$_Vector_val@U?$_Simple_types@UtagCHARTITEM@@@std@@@std@@@std@@QAEAAV01@H@Z 00409370 f i ControlEx.obj
 0001:000083b0       ??_GBrush@Gdiplus@@UAEPAXI@Z 004093b0 f i ControlEx.obj
 0001:000083b0       ??_EBrush@Gdiplus@@UAEPAXI@Z 004093b0 f i ControlEx.obj
 0001:00008420       ??_GCChartViewUI@@UAEPAXI@Z 00409420 f i ControlEx.obj
 0001:00008420       ??_ECChartViewUI@@UAEPAXI@Z 00409420 f i ControlEx.obj
 0001:00008480       ??_ECCircleProgressUI@@UAEPAXI@Z 00409480 f i ControlEx.obj
 0001:00008480       ??_GCCircleProgressUI@@UAEPAXI@Z 00409480 f i ControlEx.obj
 0001:000084e0       ??_GCMyComboUI@@UAEPAXI@Z  004094e0 f i ControlEx.obj
 0001:000084e0       ??_ECMyComboUI@@UAEPAXI@Z  004094e0 f i ControlEx.obj
 0001:00008540       ??_ECWndUI@@UAEPAXI@Z      00409540 f i ControlEx.obj
 0001:00008540       ??_GCWndUI@@UAEPAXI@Z      00409540 f i ControlEx.obj
 0001:000085a0       ??_GSolidBrush@Gdiplus@@UAEPAXI@Z 004095a0 f i ControlEx.obj
 0001:000085a0       ??_ESolidBrush@Gdiplus@@UAEPAXI@Z 004095a0 f i ControlEx.obj
 0001:00008610       ??_GtagCHARTITEM@@QAEPAXI@Z 00409610 f i ControlEx.obj
 0001:00008670       ?AdjustPos@CWndUI@@QAEXXZ  00409670 f i ControlEx.obj
 0001:000088c0       ?Clone@Brush@Gdiplus@@UBEPAV12@XZ 004098c0 f i ControlEx.obj
 0001:00008a0c       ?DoEvent@CComboUI@DuiLib@@WGJI@AEXAAUtagTEventUI@2@@Z 00409a0c f i ControlEx.obj
 0001:00008a20       ?FillEllipse@Graphics@Gdiplus@@QAE?AW4Status@2@PBVBrush@2@HHHH@Z 00409a20 f i ControlEx.obj
 0001:00008a80       ?FillPie@Graphics@Gdiplus@@QAE?AW4Status@2@PBVBrush@2@HHHHMM@Z 00409a80 f i ControlEx.obj
 0001:00008b00       ?FillRectangle@Graphics@Gdiplus@@QAE?AW4Status@2@PBVBrush@2@HHHH@Z 00409b00 f i ControlEx.obj
 0001:00008b60       ?GetClass@CCircleProgressUI@@UBEPB_WXZ 00409b60 f i ControlEx.obj
 0001:00008b80       ?GetClass@CMyComboUI@@UBEPB_WXZ 00409b80 f i ControlEx.obj
 0001:00008ba0       ?GetClass@CWndUI@@UBEPB_WXZ 00409ba0 f i ControlEx.obj
 0001:00008bc0       ?GetValue@Color@Gdiplus@@QBEKXZ 00409bc0 f i ControlEx.obj
 0001:00008be0       ?MakeARGB@Color@Gdiplus@@SAKEEEE@Z 00409be0 f i ControlEx.obj
 0001:00008c10       ?PaintBkColor@CCircleProgressUI@@UAEXPAUHDC__@@@Z 00409c10 f i ControlEx.obj
 0001:00008de0       ?PaintBkColor@CMyComboUI@@UAEXPAUHDC__@@@Z 00409de0 f i ControlEx.obj
 0001:00008fb0       ?PaintForeColor@CCircleProgressUI@@UAEXPAUHDC__@@@Z 00409fb0 f i ControlEx.obj
 0001:00009280       ?PaintForeImage@CCircleProgressUI@@UAEXPAUHDC__@@@Z 0040a280 f i ControlEx.obj
 0001:000092a0       ?ReleaseHDC@Graphics@Gdiplus@@QAEXPAUHDC__@@@Z 0040a2a0 f i ControlEx.obj
 0001:000092f0       ?SetFromCOLORREF@Color@Gdiplus@@QAEXK@Z 0040a2f0 f i ControlEx.obj
 0001:00009360       ?SetInternVisible@CWndUI@@UAEX_N@Z 0040a360 f i ControlEx.obj
 0001:000093b0       ?SetNativeBrush@Brush@Gdiplus@@IAEXPAVGpBrush@2@@Z 0040a3b0 f i ControlEx.obj
 0001:000093e0       ?SetNativeGraphics@Graphics@Gdiplus@@IAEXPAVGpGraphics@2@@Z 0040a3e0 f i ControlEx.obj
 0001:00009410       ?SetPos@CWndUI@@UAEXUtagRECT@@_N@Z 0040a410 f i ControlEx.obj
 0001:00009490       ?SetSmoothingMode@Graphics@Gdiplus@@QAE?AW4Status@2@W4SmoothingMode@2@@Z 0040a490 f i ControlEx.obj
 0001:000094e0       ?SetStatus@Brush@Gdiplus@@IBE?AW4Status@2@W432@@Z 0040a4e0 f i ControlEx.obj
 0001:00009520       ?SetStatus@Graphics@Gdiplus@@IBE?AW4Status@2@W432@@Z 0040a520 f i ControlEx.obj
 0001:00009560       ?SetVisible@CWndUI@@UAEX_N@Z 0040a560 f i ControlEx.obj
 0001:000095b0       ?_Adopt@_Iterator_base12@std@@QAEXPBU_Container_base12@2@@Z 0040a5b0 f i ControlEx.obj
 0001:00009740       ?_Alloc_proxy@?$_Vector_alloc@U?$_Vec_base_types@UtagCHARTITEM@@V?$allocator@UtagCHARTITEM@@@std@@@std@@@std@@QAEXXZ 0040a740 f i ControlEx.obj
 0001:00009850       ?_Allocate@std@@YAPAXII_N@Z 0040a850 f i ControlEx.obj
 0001:00009a60       ?_Calculate_growth@?$vector@UtagCHARTITEM@@V?$allocator@UtagCHARTITEM@@@std@@@std@@ABEII@Z 0040aa60 f i ControlEx.obj
 0001:00009af0       ?_Change_array@?$vector@UtagCHARTITEM@@V?$allocator@UtagCHARTITEM@@@std@@@std@@AAEXQAUtagCHARTITEM@@II@Z 0040aaf0 f i ControlEx.obj
 0001:00009bd0       ?_Clrcont@_Iterator_base12@std@@QAEXXZ 0040abd0 f i ControlEx.obj
 0001:00009c00       ?_Deallocate@std@@YAXPAXII@Z 0040ac00 f i ControlEx.obj
 0001:00009d30       ?_Destroy@?$vector@UtagCHARTITEM@@V?$allocator@UtagCHARTITEM@@@std@@@std@@AAEXPAUtagCHARTITEM@@0@Z 0040ad30 f i ControlEx.obj
 0001:00009d80       ?_Free_proxy@?$_Vector_alloc@U?$_Vec_base_types@UtagCHARTITEM@@V?$allocator@UtagCHARTITEM@@@std@@@std@@@std@@QAEXXZ 0040ad80 f i ControlEx.obj
 0001:00009e70       ?_Get_data@?$_Vector_alloc@U?$_Vec_base_types@UtagCHARTITEM@@V?$allocator@UtagCHARTITEM@@@std@@@std@@@std@@QAEAAV?$_Vector_val@U?$_Simple_types@UtagCHARTITEM@@@std@@@2@XZ 0040ae70 f i ControlEx.obj
 0001:00009ea0       ?_Get_data@?$_Vector_alloc@U?$_Vec_base_types@UtagCHARTITEM@@V?$allocator@UtagCHARTITEM@@@std@@@std@@@std@@QBEABV?$_Vector_val@U?$_Simple_types@UtagCHARTITEM@@@std@@@2@XZ 0040aea0 f i ControlEx.obj
 0001:00009ed0       ?_Get_first@?$_Compressed_pair@V?$allocator@UtagCHARTITEM@@@std@@V?$_Vector_val@U?$_Simple_types@UtagCHARTITEM@@@std@@@2@$00@std@@QAEAAV?$allocator@UtagCHARTITEM@@@2@XZ 0040aed0 f i ControlEx.obj
 0001:00009ef0       ?_Get_first@?$_Compressed_pair@V?$allocator@UtagCHARTITEM@@@std@@V?$_Vector_val@U?$_Simple_types@UtagCHARTITEM@@@std@@@2@$00@std@@QBEABV?$allocator@UtagCHARTITEM@@@2@XZ 0040aef0 f i ControlEx.obj
 0001:00009f10       ?_Get_second@?$_Compressed_pair@V?$allocator@UtagCHARTITEM@@@std@@V?$_Vector_val@U?$_Simple_types@UtagCHARTITEM@@@std@@@2@$00@std@@QAEAAV?$_Vector_val@U?$_Simple_types@UtagCHARTITEM@@@std@@@2@XZ 0040af10 f i ControlEx.obj
 0001:00009f30       ?_Get_second@?$_Compressed_pair@V?$allocator@UtagCHARTITEM@@@std@@V?$_Vector_val@U?$_Simple_types@UtagCHARTITEM@@@std@@@2@$00@std@@QBEABV?$_Vector_val@U?$_Simple_types@UtagCHARTITEM@@@std@@@2@XZ 0040af30 f i ControlEx.obj
 0001:00009f50       ?_Getal@?$_Vector_alloc@U?$_Vec_base_types@UtagCHARTITEM@@V?$allocator@UtagCHARTITEM@@@std@@@std@@@std@@QAEAAV?$allocator@UtagCHARTITEM@@@2@XZ 0040af50 f i ControlEx.obj
 0001:00009f80       ?_Getal@?$_Vector_alloc@U?$_Vec_base_types@UtagCHARTITEM@@V?$allocator@UtagCHARTITEM@@@std@@@std@@@std@@QBEABV?$allocator@UtagCHARTITEM@@@2@XZ 0040af80 f i ControlEx.obj
 0001:00009fb0       ?_Getcont@_Iterator_base12@std@@QBEPBU_Container_base12@2@XZ 0040afb0 f i ControlEx.obj
 0001:0000a000       ?_Getpfirst@?$_Vector_alloc@U?$_Vec_base_types@UtagCHARTITEM@@V?$allocator@UtagCHARTITEM@@@std@@@std@@@std@@QBEPAPAU_Iterator_base12@2@XZ 0040b000 f i ControlEx.obj
 0001:0000a040       ?_Getpfirst@_Container_base12@std@@QBEPAPAU_Iterator_base12@2@XZ 0040b040 f i ControlEx.obj
 0001:0000a090       ?_Getpnext@_Iterator_base12@std@@QAEPAPAU12@XZ 0040b090 f i ControlEx.obj
 0001:0000a0b0       ?_Has_unused_capacity@?$vector@UtagCHARTITEM@@V?$allocator@UtagCHARTITEM@@@std@@@std@@ABE_NXZ 0040b0b0 f i ControlEx.obj
 0001:0000a120       ?_Myend@?$_Vector_alloc@U?$_Vec_base_types@UtagCHARTITEM@@V?$allocator@UtagCHARTITEM@@@std@@@std@@@std@@QAEAAPAUtagCHARTITEM@@XZ 0040b120 f i ControlEx.obj
 0001:0000a150       ?_Myend@?$_Vector_alloc@U?$_Vec_base_types@UtagCHARTITEM@@V?$allocator@UtagCHARTITEM@@@std@@@std@@@std@@QBEABQAUtagCHARTITEM@@XZ 0040b150 f i ControlEx.obj
 0001:0000a180       ?_Myfirst@?$_Vector_alloc@U?$_Vec_base_types@UtagCHARTITEM@@V?$allocator@UtagCHARTITEM@@@std@@@std@@@std@@QAEAAPAUtagCHARTITEM@@XZ 0040b180 f i ControlEx.obj
 0001:0000a1b0       ?_Myfirst@?$_Vector_alloc@U?$_Vec_base_types@UtagCHARTITEM@@V?$allocator@UtagCHARTITEM@@@std@@@std@@@std@@QBEABQAUtagCHARTITEM@@XZ 0040b1b0 f i ControlEx.obj
 0001:0000a1e0       ?_Mylast@?$_Vector_alloc@U?$_Vec_base_types@UtagCHARTITEM@@V?$allocator@UtagCHARTITEM@@@std@@@std@@@std@@QAEAAPAUtagCHARTITEM@@XZ 0040b1e0 f i ControlEx.obj
 0001:0000a210       ?_Mylast@?$_Vector_alloc@U?$_Vec_base_types@UtagCHARTITEM@@V?$allocator@UtagCHARTITEM@@@std@@@std@@@std@@QBEABQAUtagCHARTITEM@@XZ 0040b210 f i ControlEx.obj
 0001:0000a240       ?_Myproxy@?$_Vector_alloc@U?$_Vec_base_types@UtagCHARTITEM@@V?$allocator@UtagCHARTITEM@@@std@@@std@@@std@@QAEAAPAU_Container_proxy@2@XZ 0040b240 f i ControlEx.obj
 0001:0000a270       ?_Orphan_all@?$_Vector_alloc@U?$_Vec_base_types@UtagCHARTITEM@@V?$allocator@UtagCHARTITEM@@@std@@@std@@@std@@QAEXXZ 0040b270 f i ControlEx.obj
 0001:0000a2b0       ?_Orphan_all@_Container_base12@std@@QAEXXZ 0040b2b0 f i ControlEx.obj
 0001:0000a3e0       ?_Orphan_me@_Iterator_base12@std@@QAEXXZ 0040b3e0 f i ControlEx.obj
 0001:0000a500       ?_Orphan_range@?$vector@UtagCHARTITEM@@V?$allocator@UtagCHARTITEM@@@std@@@std@@ABEXPAUtagCHARTITEM@@0@Z 0040b500 f i ControlEx.obj
 0001:0000a660       ?_Tidy@?$vector@UtagCHARTITEM@@V?$allocator@UtagCHARTITEM@@@std@@@std@@AAEXXZ 0040b660 f i ControlEx.obj
 0001:0000a730       ?_Umove@?$vector@UtagCHARTITEM@@V?$allocator@UtagCHARTITEM@@@std@@@std@@AAEPAUtagCHARTITEM@@PAU3@00@Z 0040b730 f i ControlEx.obj
 0001:0000a780       ?_Umove_if_noexcept1@?$vector@UtagCHARTITEM@@V?$allocator@UtagCHARTITEM@@@std@@@std@@AAEXPAUtagCHARTITEM@@00U?$integral_constant@_N$0A@@2@@Z 0040b780 f i ControlEx.obj
 0001:0000a7d0       ?_Umove_if_noexcept@?$vector@UtagCHARTITEM@@V?$allocator@UtagCHARTITEM@@@std@@@std@@AAEXPAUtagCHARTITEM@@00@Z 0040b7d0 f i ControlEx.obj
 0001:0000a830       ?_Xlength@?$vector@UtagCHARTITEM@@V?$allocator@UtagCHARTITEM@@@std@@@std@@CAXXZ 0040b830 f i ControlEx.obj
 0001:0000a850       ?__empty_global_delete@@YAXPAX@Z 0040b850 f i ControlEx.obj
 0001:0000a860       ?__global_delete@@YAXPAXI@Z 0040b860 f i ControlEx.obj
 0001:0000a860       ?__empty_global_delete@@YAXPAXI@Z 0040b860 f i ControlEx.obj
 0001:0000a870       ?allocate@?$allocator@U_Container_proxy@std@@@std@@QAEPAU_Container_proxy@2@I@Z 0040b870 f i ControlEx.obj
 0001:0000a8b0       ?allocate@?$allocator@UtagCHARTITEM@@@std@@QAEPAUtagCHARTITEM@@I@Z 0040b8b0 f i ControlEx.obj
 0001:0000a8f0       ?begin@?$vector@UtagCHARTITEM@@V?$allocator@UtagCHARTITEM@@@std@@@std@@QAE?AV?$_Vector_iterator@V?$_Vector_val@U?$_Simple_types@UtagCHARTITEM@@@std@@@std@@@2@XZ 0040b8f0 f i ControlEx.obj
 0001:0000a980       ?capacity@?$vector@UtagCHARTITEM@@V?$allocator@UtagCHARTITEM@@@std@@@std@@QBEIXZ 0040b980 f i ControlEx.obj
 0001:0000a9d0       ?deallocate@?$_Default_allocator_traits@V?$allocator@U_Container_proxy@std@@@std@@@std@@SAXAAV?$allocator@U_Container_proxy@std@@@2@QAU_Container_proxy@2@I@Z 0040b9d0 f i ControlEx.obj
 0001:0000aa00       ?deallocate@?$allocator@UtagCHARTITEM@@@std@@QAEXQAUtagCHARTITEM@@I@Z 0040ba00 f i ControlEx.obj
 0001:0000aa40       ?insert@?$vector@UtagCHARTITEM@@V?$allocator@UtagCHARTITEM@@@std@@@std@@QAE?AV?$_Vector_iterator@V?$_Vector_val@U?$_Simple_types@UtagCHARTITEM@@@std@@@std@@@2@V?$_Vector_const_iterator@V?$_Vector_val@U?$_Simple_types@UtagCHARTITEM@@@std@@@std@@@2@ABUtagCHARTITEM@@@Z 0040ba40 f i ControlEx.obj
 0001:0000ab10       ?max@?$numeric_limits@H@std@@SAHXZ 0040bb10 f i ControlEx.obj
 0001:0000ab20       ?max_size@?$_Default_allocator_traits@V?$allocator@UtagCHARTITEM@@@std@@@std@@SAIABV?$allocator@UtagCHARTITEM@@@2@@Z 0040bb20 f i ControlEx.obj
 0001:0000ab30       ?max_size@?$vector@UtagCHARTITEM@@V?$allocator@UtagCHARTITEM@@@std@@@std@@QBEIXZ 0040bb30 f i ControlEx.obj
 0001:0000aba0       ?push_back@?$vector@UtagCHARTITEM@@V?$allocator@UtagCHARTITEM@@@std@@@std@@QAEXABUtagCHARTITEM@@@Z 0040bba0 f i ControlEx.obj
 0001:0000abe0       ?size@?$vector@UtagCHARTITEM@@V?$allocator@UtagCHARTITEM@@@std@@@std@@QBEIXZ 0040bbe0 f i ControlEx.obj
 0001:0000ac30       _WinMain@16                0040bc30 f   DuiDemo.obj
 0001:0000add0       ?InitResource@@YAXXZ       0040bdd0 f   DuiDemo.obj
 0001:0000b520       ??0CMainPage@@QAE@XZ       0040c520 f   MainWnd.obj
 0001:0000b570       ?SetPaintMagager@CMainPage@@QAEXPAVCPaintManagerUI@DuiLib@@@Z 0040c570 f   MainWnd.obj
 0001:0000b590       ?_GetBaseMessageMap@CMainPage@@KGPBUDUI_MSGMAP@DuiLib@@XZ 0040c590 f   MainWnd.obj
 0001:0000b5a0       ?GetMessageMap@CMainPage@@MBEPBUDUI_MSGMAP@DuiLib@@XZ 0040c5a0 f   MainWnd.obj
 0001:0000b5c0       ?OnClick@CMainPage@@MAEXAAUtagTNotifyUI@DuiLib@@@Z 0040c5c0 f   MainWnd.obj
 0001:0000b5e0       ?OnSelectChanged@CMainPage@@MAEXAAUtagTNotifyUI@DuiLib@@@Z 0040c5e0 f   MainWnd.obj
 0001:0000b600       ?OnItemClick@CMainPage@@MAEXAAUtagTNotifyUI@DuiLib@@@Z 0040c600 f   MainWnd.obj
 0001:0000b620       ??0CMainWnd@@QAE@XZ        0040c620 f   MainWnd.obj
 0001:0000b7c0       ??1CMainWnd@@UAE@XZ        0040c7c0 f   MainWnd.obj
 0001:0000b960       ?GetSkinFile@CMainWnd@@UAE?AVCDuiString@DuiLib@@XZ 0040c960 f   MainWnd.obj
 0001:0000b9c0       ?GetWindowClassName@CMainWnd@@UBEPB_WXZ 0040c9c0 f   MainWnd.obj
 0001:0000b9e0       ?GetClassStyle@CMainWnd@@UBEIXZ 0040c9e0 f   MainWnd.obj
 0001:0000ba00       ?InitWindow@CMainWnd@@UAEXXZ 0040ca00 f   MainWnd.obj
 0001:0000cd30       ?OnFinalMessage@CMainWnd@@UAEXPAUHWND__@@@Z 0040dd30 f   MainWnd.obj
 0001:0000cd70       ?CreateControl@CMainWnd@@UAEPAVCControlUI@DuiLib@@PB_W@Z 0040dd70 f   MainWnd.obj
 0001:0000ce30       ?Receive@CMainWnd@@UAEHUSkinChangedParam@@@Z 0040de30 f   MainWnd.obj
 0001:0000cf40       ?QueryControlText@CMainWnd@@UAEPB_WPB_W0@Z 0040df40 f   MainWnd.obj
 0001:0000d1b0       ?Notify@CMainWnd@@UAEXAAUtagTNotifyUI@DuiLib@@@Z 0040e1b0 f   MainWnd.obj
 0001:0000dcc0       ?OnLClick@CMainWnd@@QAEXPAVCControlUI@DuiLib@@@Z 0040ecc0 f   MainWnd.obj
 0001:0000e8e0       ?_GetBaseMessageMap@CMainWnd@@KGPBUDUI_MSGMAP@DuiLib@@XZ 0040f8e0 f   MainWnd.obj
 0001:0000e8f0       ?GetMessageMap@CMainWnd@@MBEPBUDUI_MSGMAP@DuiLib@@XZ 0040f8f0 f   MainWnd.obj
 0001:0000e910       ?OnGetMinMaxInfo@CMainWnd@@UAEJIIJAAH@Z 0040f910 f   MainWnd.obj
 0001:0000e930       ?OnDestroy@CMainWnd@@UAEJIIJAAH@Z 0040f930 f   MainWnd.obj
 0001:0000e990       ?HandleCustomMessage@CMainWnd@@UAEJIIJAAH@Z 0040f990 f   MainWnd.obj
 0001:0000f110       ?UpdateUI@CMainWnd@@UAGJXZ 00410110 f   MainWnd.obj
 0001:0000f120       ?GetHostInfo@CMainWnd@@UAGJPAVCWebBrowserUI@DuiLib@@PAU_DOCHOSTUIINFO@@@Z 00410120 f   MainWnd.obj
 0001:0000f150       ?ShowContextMenu@CMainWnd@@UAGJPAVCWebBrowserUI@DuiLib@@KPAUtagPOINT@@PAUIUnknown@@PAUIDispatch@@@Z 00410150 f   MainWnd.obj
 0001:00010070       ??$?0$$V@?$_Compressed_pair@V?$allocator@U?$_Tree_node@U?$pair@$$CBHPAV?$ObserverImplBase@HUSkinChangedParam@@@@@std@@PAX@std@@@std@@V?$_Tree_val@U?$_Tree_simple_types@U?$pair@$$CBHPAV?$ObserverImplBase@HUSkinChangedParam@@@@@std@@@std@@@2@$00@std@@QAE@U_Zero_then_variadic_args_t@1@@Z 00411070 f i MainWnd.obj
 0001:000100b0       ??$?0$$V@?$_Compressed_pair@V?$allocator@U?$_Tree_node@U?$pair@$$CBHPAV?$ReceiverImplBase@HUSkinChangedParam@@@@@std@@PAX@std@@@std@@V?$_Tree_val@U?$_Tree_simple_types@U?$pair@$$CBHPAV?$ReceiverImplBase@HUSkinChangedParam@@@@@std@@@std@@@2@$00@std@@QAE@U_Zero_then_variadic_args_t@1@@Z 004110b0 f i MainWnd.obj
 0001:000100f0       ??$?0AAV?$_Tree_iterator@V?$_Tree_val@U?$_Tree_simple_types@U?$pair@$$CBHPAV?$ObserverImplBase@HUSkinChangedParam@@@@@std@@@std@@@std@@@std@@_NX$0A@@?$pair@V?$_Tree_iterator@V?$_Tree_val@U?$_Tree_simple_types@U?$pair@$$CBHPAV?$ObserverImplBase@HUSkinChangedParam@@@@@std@@@std@@@std@@@std@@_N@std@@QAE@AAV?$_Tree_iterator@V?$_Tree_val@U?$_Tree_simple_types@U?$pair@$$CBHPAV?$ObserverImplBase@HUSkinChangedParam@@@@@std@@@std@@@std@@@1@$$QA_N@Z 004110f0 f i MainWnd.obj
 0001:00010150       ??$?0AAV?$_Tree_iterator@V?$_Tree_val@U?$_Tree_simple_types@U?$pair@$$CBHPAV?$ReceiverImplBase@HUSkinChangedParam@@@@@std@@@std@@@std@@@std@@_NX$0A@@?$pair@V?$_Tree_iterator@V?$_Tree_val@U?$_Tree_simple_types@U?$pair@$$CBHPAV?$ReceiverImplBase@HUSkinChangedParam@@@@@std@@@std@@@std@@@std@@_N@std@@QAE@AAV?$_Tree_iterator@V?$_Tree_val@U?$_Tree_simple_types@U?$pair@$$CBHPAV?$ReceiverImplBase@HUSkinChangedParam@@@@@std@@@std@@@std@@@1@$$QA_N@Z 00411150 f i MainWnd.obj
 0001:000101b0       ??$?0ABH$$Z$$V@?$pair@$$CBHPAV?$ObserverImplBase@HUSkinChangedParam@@@@@std@@QAE@Upiecewise_construct_t@1@V?$tuple@ABH@1@V?$tuple@$$V@1@@Z 004111b0 f i MainWnd.obj
 0001:00010210       ??$?0ABH$$Z$$V@?$pair@$$CBHPAV?$ReceiverImplBase@HUSkinChangedParam@@@@@std@@QAE@Upiecewise_construct_t@1@V?$tuple@ABH@1@V?$tuple@$$V@1@@Z 00411210 f i MainWnd.obj
 0001:00010270       ??$?0ABH$0A@@?$tuple@ABH@std@@QAE@ABH@Z 00411270 f i MainWnd.obj
 0001:000102c0       ??$?0ABH@?$_Tuple_val@ABH@std@@QAE@ABH@Z 004112c0 f i MainWnd.obj
 0001:00010300       ??$?0ABU?$less@H@std@@U_Zero_then_variadic_args_t@1@@?$_Compressed_pair@U?$less@H@std@@V?$_Compressed_pair@V?$allocator@U?$_Tree_node@U?$pair@$$CBHPAV?$ObserverImplBase@HUSkinChangedParam@@@@@std@@PAX@std@@@std@@V?$_Tree_val@U?$_Tree_simple_types@U?$pair@$$CBHPAV?$ObserverImplBase@HUSkinChangedParam@@@@@std@@@std@@@2@$00@2@$00@std@@QAE@U_One_then_variadic_args_t@1@ABU?$less@H@1@$$QAU_Zero_then_variadic_args_t@1@@Z 00411300 f i MainWnd.obj
 0001:00010360       ??$?0ABU?$less@H@std@@U_Zero_then_variadic_args_t@1@@?$_Compressed_pair@U?$less@H@std@@V?$_Compressed_pair@V?$allocator@U?$_Tree_node@U?$pair@$$CBHPAV?$ReceiverImplBase@HUSkinChangedParam@@@@@std@@PAX@std@@@std@@V?$_Tree_val@U?$_Tree_simple_types@U?$pair@$$CBHPAV?$ReceiverImplBase@HUSkinChangedParam@@@@@std@@@std@@@2@$00@2@$00@std@@QAE@U_One_then_variadic_args_t@1@ABU?$less@H@1@$$QAU_Zero_then_variadic_args_t@1@@Z 00411360 f i MainWnd.obj
 0001:000103c0       ??$?0U?$_Tree_node@U?$pair@$$CBHPAV?$ObserverImplBase@HUSkinChangedParam@@@@@std@@PAX@std@@@?$allocator@U_Container_proxy@std@@@std@@QAE@ABV?$allocator@U?$_Tree_node@U?$pair@$$CBHPAV?$ObserverImplBase@HUSkinChangedParam@@@@@std@@PAX@std@@@1@@Z 004113c0 f i MainWnd.obj
 0001:000103e0       ??$?0U?$_Tree_node@U?$pair@$$CBHPAV?$ReceiverImplBase@HUSkinChangedParam@@@@@std@@PAX@std@@@?$allocator@U_Container_proxy@std@@@std@@QAE@ABV?$allocator@U?$_Tree_node@U?$pair@$$CBHPAV?$ReceiverImplBase@HUSkinChangedParam@@@@@std@@PAX@std@@@1@@Z 004113e0 f i MainWnd.obj
 0001:00010400       ??$?0U_Exact_args_t@std@@$0A@@?$tuple@$$V@std@@QAE@U_Exact_args_t@1@@Z 00411400 f i MainWnd.obj
 0001:00010420       ??$?0U_Exact_args_t@std@@ABH$$V$0A@@?$tuple@ABH@std@@QAE@U_Exact_args_t@1@ABH@Z 00411420 f i MainWnd.obj
 0001:00010490       ??$?0V?$_Tree_iterator@V?$_Tree_val@U?$_Tree_simple_types@U?$pair@$$CBHPAV?$ObserverImplBase@HUSkinChangedParam@@@@@std@@@std@@@std@@@std@@_NX$0A@@?$pair@V?$_Tree_iterator@V?$_Tree_val@U?$_Tree_simple_types@U?$pair@$$CBHPAV?$ObserverImplBase@HUSkinChangedParam@@@@@std@@@std@@@std@@@std@@_N@std@@QAE@$$QAV?$_Tree_iterator@V?$_Tree_val@U?$_Tree_simple_types@U?$pair@$$CBHPAV?$ObserverImplBase@HUSkinChangedParam@@@@@std@@@std@@@std@@@1@$$QA_N@Z 00411490 f i MainWnd.obj
 0001:000104f0       ??$?0V?$_Tree_iterator@V?$_Tree_val@U?$_Tree_simple_types@U?$pair@$$CBHPAV?$ReceiverImplBase@HUSkinChangedParam@@@@@std@@@std@@@std@@@std@@_NX$0A@@?$pair@V?$_Tree_iterator@V?$_Tree_val@U?$_Tree_simple_types@U?$pair@$$CBHPAV?$ReceiverImplBase@HUSkinChangedParam@@@@@std@@@std@@@std@@@std@@_N@std@@QAE@$$QAV?$_Tree_iterator@V?$_Tree_val@U?$_Tree_simple_types@U?$pair@$$CBHPAV?$ReceiverImplBase@HUSkinChangedParam@@@@@std@@@std@@@std@@@1@$$QA_N@Z 004114f0 f i MainWnd.obj
 0001:00010550       ??$?0V?$tuple@ABH@std@@V?$tuple@$$V@1@$0A@$$Z$S@?$pair@$$CBHPAV?$ObserverImplBase@HUSkinChangedParam@@@@@std@@QAE@AAV?$tuple@ABH@1@AAV?$tuple@$$V@1@U?$integer_sequence@I$0A@@1@U?$integer_sequence@I$S@1@@Z 00411550 f i MainWnd.obj
 0001:000105b0       ??$?0V?$tuple@ABH@std@@V?$tuple@$$V@1@$0A@$$Z$S@?$pair@$$CBHPAV?$ReceiverImplBase@HUSkinChangedParam@@@@@std@@QAE@AAV?$tuple@ABH@1@AAV?$tuple@$$V@1@U?$integer_sequence@I$0A@@1@U?$integer_sequence@I$S@1@@Z 004115b0 f i MainWnd.obj
 0001:00010610       ??$_Buynode@ABUpiecewise_construct_t@std@@V?$tuple@ABH@2@V?$tuple@$$V@2@@?$_Tree_comp_alloc@V?$_Tmap_traits@HPAV?$ObserverImplBase@HUSkinChangedParam@@@@U?$less@H@std@@V?$allocator@U?$pair@$$CBHPAV?$ObserverImplBase@HUSkinChangedParam@@@@@std@@@3@$0A@@std@@@std@@QAEPAU?$_Tree_node@U?$pair@$$CBHPAV?$ObserverImplBase@HUSkinChangedParam@@@@@std@@PAX@1@ABUpiecewise_construct_t@1@$$QAV?$tuple@ABH@1@$$QAV?$tuple@$$V@1@@Z 00411610 f i MainWnd.obj
 0001:00010740       ??$_Buynode@ABUpiecewise_construct_t@std@@V?$tuple@ABH@2@V?$tuple@$$V@2@@?$_Tree_comp_alloc@V?$_Tmap_traits@HPAV?$ReceiverImplBase@HUSkinChangedParam@@@@U?$less@H@std@@V?$allocator@U?$pair@$$CBHPAV?$ReceiverImplBase@HUSkinChangedParam@@@@@std@@@3@$0A@@std@@@std@@QAEPAU?$_Tree_node@U?$pair@$$CBHPAV?$ReceiverImplBase@HUSkinChangedParam@@@@@std@@PAX@1@ABUpiecewise_construct_t@1@$$QAV?$tuple@ABH@1@$$QAV?$tuple@$$V@1@@Z 00411740 f i MainWnd.obj
 0001:00010870       ??$_Buynode_if_nil@AAU?$pair@$$CBHPAV?$ObserverImplBase@HUSkinChangedParam@@@@@std@@@?$_Tree@V?$_Tmap_traits@HPAV?$ObserverImplBase@HUSkinChangedParam@@@@U?$less@H@std@@V?$allocator@U?$pair@$$CBHPAV?$ObserverImplBase@HUSkinChangedParam@@@@@std@@@3@$0A@@std@@@std@@IAEPAU?$_Tree_node@U?$pair@$$CBHPAV?$ObserverImplBase@HUSkinChangedParam@@@@@std@@PAX@1@PAU21@AAU?$pair@$$CBHPAV?$ObserverImplBase@HUSkinChangedParam@@@@@1@@Z 00411870 f i MainWnd.obj
 0001:00010890       ??$_Buynode_if_nil@AAU?$pair@$$CBHPAV?$ReceiverImplBase@HUSkinChangedParam@@@@@std@@@?$_Tree@V?$_Tmap_traits@HPAV?$ReceiverImplBase@HUSkinChangedParam@@@@U?$less@H@std@@V?$allocator@U?$pair@$$CBHPAV?$ReceiverImplBase@HUSkinChangedParam@@@@@std@@@3@$0A@@std@@@std@@IAEPAU?$_Tree_node@U?$pair@$$CBHPAV?$ReceiverImplBase@HUSkinChangedParam@@@@@std@@PAX@1@PAU21@AAU?$pair@$$CBHPAV?$ReceiverImplBase@HUSkinChangedParam@@@@@1@@Z 00411890 f i MainWnd.obj
 0001:000108b0       ??$_Debug_lt_pred@AAU?$less@H@std@@ABHABH@std@@YA_NAAU?$less@H@0@ABH1PB_WI@Z 004118b0 f i MainWnd.obj
 0001:00010980       ??$_Debug_lt_pred@ABU?$less@H@std@@ABHABH@std@@YA_NABU?$less@H@0@ABH1PB_WI@Z 00411980 f i MainWnd.obj
 0001:00010a50       ??$_Insert_at@AAU?$pair@$$CBHPAV?$ObserverImplBase@HUSkinChangedParam@@@@@std@@PAU?$_Tree_node@U?$pair@$$CBHPAV?$ObserverImplBase@HUSkinChangedParam@@@@@std@@PAX@2@@?$_Tree@V?$_Tmap_traits@HPAV?$ObserverImplBase@HUSkinChangedParam@@@@U?$less@H@std@@V?$allocator@U?$pair@$$CBHPAV?$ObserverImplBase@HUSkinChangedParam@@@@@std@@@3@$0A@@std@@@std@@IAE?AV?$_Tree_iterator@V?$_Tree_val@U?$_Tree_simple_types@U?$pair@$$CBHPAV?$ObserverImplBase@HUSkinChangedParam@@@@@std@@@std@@@std@@@1@_NPAU?$_Tree_node@U?$pair@$$CBHPAV?$ObserverImplBase@HUSkinChangedParam@@@@@std@@PAX@1@AAU?$pair@$$CBHPAV?$ObserverImplBase@HUSkinChangedParam@@@@@1@1@Z 00411a50 f i MainWnd.obj
 0001:00010dc0       ??$_Insert_at@AAU?$pair@$$CBHPAV?$ReceiverImplBase@HUSkinChangedParam@@@@@std@@PAU?$_Tree_node@U?$pair@$$CBHPAV?$ReceiverImplBase@HUSkinChangedParam@@@@@std@@PAX@2@@?$_Tree@V?$_Tmap_traits@HPAV?$ReceiverImplBase@HUSkinChangedParam@@@@U?$less@H@std@@V?$allocator@U?$pair@$$CBHPAV?$ReceiverImplBase@HUSkinChangedParam@@@@@std@@@3@$0A@@std@@@std@@IAE?AV?$_Tree_iterator@V?$_Tree_val@U?$_Tree_simple_types@U?$pair@$$CBHPAV?$ReceiverImplBase@HUSkinChangedParam@@@@@std@@@std@@@std@@@1@_NPAU?$_Tree_node@U?$pair@$$CBHPAV?$ReceiverImplBase@HUSkinChangedParam@@@@@std@@PAX@1@AAU?$pair@$$CBHPAV?$ReceiverImplBase@HUSkinChangedParam@@@@@1@1@Z 00411dc0 f i MainWnd.obj
 0001:00011130       ??$_Insert_hint@AAU?$pair@$$CBHPAV?$ObserverImplBase@HUSkinChangedParam@@@@@std@@PAU?$_Tree_node@U?$pair@$$CBHPAV?$ObserverImplBase@HUSkinChangedParam@@@@@std@@PAX@2@@?$_Tree@V?$_Tmap_traits@HPAV?$ObserverImplBase@HUSkinChangedParam@@@@U?$less@H@std@@V?$allocator@U?$pair@$$CBHPAV?$ObserverImplBase@HUSkinChangedParam@@@@@std@@@3@$0A@@std@@@std@@IAE?AV?$_Tree_iterator@V?$_Tree_val@U?$_Tree_simple_types@U?$pair@$$CBHPAV?$ObserverImplBase@HUSkinChangedParam@@@@@std@@@std@@@std@@@1@V?$_Tree_const_iterator@V?$_Tree_val@U?$_Tree_simple_types@U?$pair@$$CBHPAV?$ObserverImplBase@HUSkinChangedParam@@@@@std@@@std@@@std@@@1@AAU?$pair@$$CBHPAV?$ObserverImplBase@HUSkinChangedParam@@@@@1@PAU?$_Tree_node@U?$pair@$$CBHPAV?$ObserverImplBase@HUSkinChangedParam@@@@@std@@PAX@1@@Z 00412130 f i MainWnd.obj
 0001:00012540       ??$_Insert_hint@AAU?$pair@$$CBHPAV?$ReceiverImplBase@HUSkinChangedParam@@@@@std@@PAU?$_Tree_node@U?$pair@$$CBHPAV?$ReceiverImplBase@HUSkinChangedParam@@@@@std@@PAX@2@@?$_Tree@V?$_Tmap_traits@HPAV?$ReceiverImplBase@HUSkinChangedParam@@@@U?$less@H@std@@V?$allocator@U?$pair@$$CBHPAV?$ReceiverImplBase@HUSkinChangedParam@@@@@std@@@3@$0A@@std@@@std@@IAE?AV?$_Tree_iterator@V?$_Tree_val@U?$_Tree_simple_types@U?$pair@$$CBHPAV?$ReceiverImplBase@HUSkinChangedParam@@@@@std@@@std@@@std@@@1@V?$_Tree_const_iterator@V?$_Tree_val@U?$_Tree_simple_types@U?$pair@$$CBHPAV?$ReceiverImplBase@HUSkinChangedParam@@@@@std@@@std@@@std@@@1@AAU?$pair@$$CBHPAV?$ReceiverImplBase@HUSkinChangedParam@@@@@1@PAU?$_Tree_node@U?$pair@$$CBHPAV?$ReceiverImplBase@HUSkinChangedParam@@@@@std@@PAX@1@@Z 00413540 f i MainWnd.obj
 0001:00013950       ??$_Insert_nohint@AAU?$pair@$$CBHPAV?$ObserverImplBase@HUSkinChangedParam@@@@@std@@PAU?$_Tree_node@U?$pair@$$CBHPAV?$ObserverImplBase@HUSkinChangedParam@@@@@std@@PAX@2@@?$_Tree@V?$_Tmap_traits@HPAV?$ObserverImplBase@HUSkinChangedParam@@@@U?$less@H@std@@V?$allocator@U?$pair@$$CBHPAV?$ObserverImplBase@HUSkinChangedParam@@@@@std@@@3@$0A@@std@@@std@@IAE?AU?$pair@V?$_Tree_iterator@V?$_Tree_val@U?$_Tree_simple_types@U?$pair@$$CBHPAV?$ObserverImplBase@HUSkinChangedParam@@@@@std@@@std@@@std@@@std@@_N@1@_NAAU?$pair@$$CBHPAV?$ObserverImplBase@HUSkinChangedParam@@@@@1@PAU?$_Tree_node@U?$pair@$$CBHPAV?$ObserverImplBase@HUSkinChangedParam@@@@@std@@PAX@1@@Z 00414950 f i MainWnd.obj
 0001:00013f10       ??$_Insert_nohint@AAU?$pair@$$CBHPAV?$ReceiverImplBase@HUSkinChangedParam@@@@@std@@PAU?$_Tree_node@U?$pair@$$CBHPAV?$ReceiverImplBase@HUSkinChangedParam@@@@@std@@PAX@2@@?$_Tree@V?$_Tmap_traits@HPAV?$ReceiverImplBase@HUSkinChangedParam@@@@U?$less@H@std@@V?$allocator@U?$pair@$$CBHPAV?$ReceiverImplBase@HUSkinChangedParam@@@@@std@@@3@$0A@@std@@@std@@IAE?AU?$pair@V?$_Tree_iterator@V?$_Tree_val@U?$_Tree_simple_types@U?$pair@$$CBHPAV?$ReceiverImplBase@HUSkinChangedParam@@@@@std@@@std@@@std@@@std@@_N@1@_NAAU?$pair@$$CBHPAV?$ReceiverImplBase@HUSkinChangedParam@@@@@1@PAU?$_Tree_node@U?$pair@$$CBHPAV?$ReceiverImplBase@HUSkinChangedParam@@@@@std@@PAX@1@@Z 00414f10 f i MainWnd.obj
 0001:000144d0       ??$_Kfn@$$CBHPAV?$ObserverImplBase@HUSkinChangedParam@@@@@?$_Tmap_traits@HPAV?$ObserverImplBase@HUSkinChangedParam@@@@U?$less@H@std@@V?$allocator@U?$pair@$$CBHPAV?$ObserverImplBase@HUSkinChangedParam@@@@@std@@@3@$0A@@std@@SAABHABU?$pair@$$CBHPAV?$ObserverImplBase@HUSkinChangedParam@@@@@1@@Z 004154d0 f i MainWnd.obj
 0001:000144e0       ??$_Kfn@$$CBHPAV?$ReceiverImplBase@HUSkinChangedParam@@@@@?$_Tmap_traits@HPAV?$ReceiverImplBase@HUSkinChangedParam@@@@U?$less@H@std@@V?$allocator@U?$pair@$$CBHPAV?$ReceiverImplBase@HUSkinChangedParam@@@@@std@@@3@$0A@@std@@SAABHABU?$pair@$$CBHPAV?$ReceiverImplBase@HUSkinChangedParam@@@@@1@@Z 004154e0 f i MainWnd.obj
 0001:000144f0       ??$_Lbound@H@?$_Tree@V?$_Tmap_traits@HPAV?$ObserverImplBase@HUSkinChangedParam@@@@U?$less@H@std@@V?$allocator@U?$pair@$$CBHPAV?$ObserverImplBase@HUSkinChangedParam@@@@@std@@@3@$0A@@std@@@std@@IBEPAU?$_Tree_node@U?$pair@$$CBHPAV?$ObserverImplBase@HUSkinChangedParam@@@@@std@@PAX@1@ABH@Z 004154f0 f i MainWnd.obj
 0001:000145b0       ??$_Lbound@H@?$_Tree@V?$_Tmap_traits@HPAV?$ReceiverImplBase@HUSkinChangedParam@@@@U?$less@H@std@@V?$allocator@U?$pair@$$CBHPAV?$ReceiverImplBase@HUSkinChangedParam@@@@@std@@@3@$0A@@std@@@std@@IBEPAU?$_Tree_node@U?$pair@$$CBHPAV?$ReceiverImplBase@HUSkinChangedParam@@@@@std@@PAX@1@ABH@Z 004155b0 f i MainWnd.obj
 0001:00014670       ??$_Try_emplace@ABH$$V@?$map@HPAV?$ObserverImplBase@HUSkinChangedParam@@@@U?$less@H@std@@V?$allocator@U?$pair@$$CBHPAV?$ObserverImplBase@HUSkinChangedParam@@@@@std@@@3@@std@@QAE?AU?$pair@V?$_Tree_iterator@V?$_Tree_val@U?$_Tree_simple_types@U?$pair@$$CBHPAV?$ObserverImplBase@HUSkinChangedParam@@@@@std@@@std@@@std@@@std@@_N@1@ABH@Z 00415670 f i MainWnd.obj
 0001:00014920       ??$_Try_emplace@ABH$$V@?$map@HPAV?$ReceiverImplBase@HUSkinChangedParam@@@@U?$less@H@std@@V?$allocator@U?$pair@$$CBHPAV?$ReceiverImplBase@HUSkinChangedParam@@@@@std@@@3@@std@@QAE?AU?$pair@V?$_Tree_iterator@V?$_Tree_val@U?$_Tree_simple_types@U?$pair@$$CBHPAV?$ReceiverImplBase@HUSkinChangedParam@@@@@std@@@std@@@std@@@std@@_N@1@ABH@Z 00415920 f i MainWnd.obj
 0001:00014bd0       ??$addressof@PAU?$_Tree_node@U?$pair@$$CBHPAV?$ObserverImplBase@HUSkinChangedParam@@@@@std@@PAX@std@@@std@@YAPAPAU?$_Tree_node@U?$pair@$$CBHPAV?$ObserverImplBase@HUSkinChangedParam@@@@@std@@PAX@0@AAPAU10@@Z 00415bd0 f i MainWnd.obj
 0001:00014be0       ??$addressof@PAU?$_Tree_node@U?$pair@$$CBHPAV?$ReceiverImplBase@HUSkinChangedParam@@@@@std@@PAX@std@@@std@@YAPAPAU?$_Tree_node@U?$pair@$$CBHPAV?$ReceiverImplBase@HUSkinChangedParam@@@@@std@@PAX@0@AAPAU10@@Z 00415be0 f i MainWnd.obj
 0001:00014bf0       ??$addressof@U?$pair@$$CBHPAV?$ObserverImplBase@HUSkinChangedParam@@@@@std@@@std@@YAPAU?$pair@$$CBHPAV?$ObserverImplBase@HUSkinChangedParam@@@@@0@AAU10@@Z 00415bf0 f i MainWnd.obj
 0001:00014c00       ??$addressof@U?$pair@$$CBHPAV?$ReceiverImplBase@HUSkinChangedParam@@@@@std@@@std@@YAPAU?$pair@$$CBHPAV?$ReceiverImplBase@HUSkinChangedParam@@@@@0@AAU10@@Z 00415c00 f i MainWnd.obj
 0001:00014c10       ??$addressof@V?$_Tree_val@U?$_Tree_simple_types@U?$pair@$$CBHPAV?$ObserverImplBase@HUSkinChangedParam@@@@@std@@@std@@@std@@@std@@YAPAV?$_Tree_val@U?$_Tree_simple_types@U?$pair@$$CBHPAV?$ObserverImplBase@HUSkinChangedParam@@@@@std@@@std@@@0@AAV10@@Z 00415c10 f i MainWnd.obj
 0001:00014c20       ??$addressof@V?$_Tree_val@U?$_Tree_simple_types@U?$pair@$$CBHPAV?$ReceiverImplBase@HUSkinChangedParam@@@@@std@@@std@@@std@@@std@@YAPAV?$_Tree_val@U?$_Tree_simple_types@U?$pair@$$CBHPAV?$ReceiverImplBase@HUSkinChangedParam@@@@@std@@@std@@@0@AAV10@@Z 00415c20 f i MainWnd.obj
 0001:00014c30       ??$construct@PAU?$_Tree_node@U?$pair@$$CBHPAV?$ObserverImplBase@HUSkinChangedParam@@@@@std@@PAX@std@@AAPAU12@@?$_Default_allocator_traits@V?$allocator@U?$_Tree_node@U?$pair@$$CBHPAV?$ObserverImplBase@HUSkinChangedParam@@@@@std@@PAX@std@@@std@@@std@@SAXAAV?$allocator@U?$_Tree_node@U?$pair@$$CBHPAV?$ObserverImplBase@HUSkinChangedParam@@@@@std@@PAX@std@@@1@QAPAU?$_Tree_node@U?$pair@$$CBHPAV?$ObserverImplBase@HUSkinChangedParam@@@@@std@@PAX@1@AAPAU31@@Z 00415c30 f i MainWnd.obj
 0001:00014c80       ??$construct@PAU?$_Tree_node@U?$pair@$$CBHPAV?$ReceiverImplBase@HUSkinChangedParam@@@@@std@@PAX@std@@AAPAU12@@?$_Default_allocator_traits@V?$allocator@U?$_Tree_node@U?$pair@$$CBHPAV?$ReceiverImplBase@HUSkinChangedParam@@@@@std@@PAX@std@@@std@@@std@@SAXAAV?$allocator@U?$_Tree_node@U?$pair@$$CBHPAV?$ReceiverImplBase@HUSkinChangedParam@@@@@std@@PAX@std@@@1@QAPAU?$_Tree_node@U?$pair@$$CBHPAV?$ReceiverImplBase@HUSkinChangedParam@@@@@std@@PAX@1@AAPAU31@@Z 00415c80 f i MainWnd.obj
 0001:00014cd0       ??$construct@U?$pair@$$CBHPAV?$ObserverImplBase@HUSkinChangedParam@@@@@std@@ABUpiecewise_construct_t@2@V?$tuple@ABH@2@V?$tuple@$$V@2@@?$_Default_allocator_traits@V?$allocator@U?$_Tree_node@U?$pair@$$CBHPAV?$ObserverImplBase@HUSkinChangedParam@@@@@std@@PAX@std@@@std@@@std@@SAXAAV?$allocator@U?$_Tree_node@U?$pair@$$CBHPAV?$ObserverImplBase@HUSkinChangedParam@@@@@std@@PAX@std@@@1@QAU?$pair@$$CBHPAV?$ObserverImplBase@HUSkinChangedParam@@@@@1@ABUpiecewise_construct_t@1@$$QAV?$tuple@ABH@1@$$QAV?$tuple@$$V@1@@Z 00415cd0 f i MainWnd.obj
 0001:00014dd0       ??$construct@U?$pair@$$CBHPAV?$ReceiverImplBase@HUSkinChangedParam@@@@@std@@ABUpiecewise_construct_t@2@V?$tuple@ABH@2@V?$tuple@$$V@2@@?$_Default_allocator_traits@V?$allocator@U?$_Tree_node@U?$pair@$$CBHPAV?$ReceiverImplBase@HUSkinChangedParam@@@@@std@@PAX@std@@@std@@@std@@SAXAAV?$allocator@U?$_Tree_node@U?$pair@$$CBHPAV?$ReceiverImplBase@HUSkinChangedParam@@@@@std@@PAX@std@@@1@QAU?$pair@$$CBHPAV?$ReceiverImplBase@HUSkinChangedParam@@@@@1@ABUpiecewise_construct_t@1@$$QAV?$tuple@ABH@1@$$QAV?$tuple@$$V@1@@Z 00415dd0 f i MainWnd.obj
 0001:00014ed0       ??$destroy@PAU?$_Tree_node@U?$pair@$$CBHPAV?$ObserverImplBase@HUSkinChangedParam@@@@@std@@PAX@std@@@?$_Default_allocator_traits@V?$allocator@U?$_Tree_node@U?$pair@$$CBHPAV?$ObserverImplBase@HUSkinChangedParam@@@@@std@@PAX@std@@@std@@@std@@SAXAAV?$allocator@U?$_Tree_node@U?$pair@$$CBHPAV?$ObserverImplBase@HUSkinChangedParam@@@@@std@@PAX@std@@@1@QAPAU?$_Tree_node@U?$pair@$$CBHPAV?$ObserverImplBase@HUSkinChangedParam@@@@@std@@PAX@1@@Z 00415ed0 f i MainWnd.obj
 0001:00014ee0       ??$destroy@PAU?$_Tree_node@U?$pair@$$CBHPAV?$ReceiverImplBase@HUSkinChangedParam@@@@@std@@PAX@std@@@?$_Default_allocator_traits@V?$allocator@U?$_Tree_node@U?$pair@$$CBHPAV?$ReceiverImplBase@HUSkinChangedParam@@@@@std@@PAX@std@@@std@@@std@@SAXAAV?$allocator@U?$_Tree_node@U?$pair@$$CBHPAV?$ReceiverImplBase@HUSkinChangedParam@@@@@std@@PAX@std@@@1@QAPAU?$_Tree_node@U?$pair@$$CBHPAV?$ReceiverImplBase@HUSkinChangedParam@@@@@std@@PAX@1@@Z 00415ee0 f i MainWnd.obj
 0001:00014ef0       ??$destroy@U?$pair@$$CBHPAV?$ObserverImplBase@HUSkinChangedParam@@@@@std@@@?$_Default_allocator_traits@V?$allocator@U?$_Tree_node@U?$pair@$$CBHPAV?$ObserverImplBase@HUSkinChangedParam@@@@@std@@PAX@std@@@std@@@std@@SAXAAV?$allocator@U?$_Tree_node@U?$pair@$$CBHPAV?$ObserverImplBase@HUSkinChangedParam@@@@@std@@PAX@std@@@1@QAU?$pair@$$CBHPAV?$ObserverImplBase@HUSkinChangedParam@@@@@1@@Z 00415ef0 f i MainWnd.obj
 0001:00014f00       ??$destroy@U?$pair@$$CBHPAV?$ReceiverImplBase@HUSkinChangedParam@@@@@std@@@?$_Default_allocator_traits@V?$allocator@U?$_Tree_node@U?$pair@$$CBHPAV?$ReceiverImplBase@HUSkinChangedParam@@@@@std@@PAX@std@@@std@@@std@@SAXAAV?$allocator@U?$_Tree_node@U?$pair@$$CBHPAV?$ReceiverImplBase@HUSkinChangedParam@@@@@std@@PAX@std@@@1@QAU?$pair@$$CBHPAV?$ReceiverImplBase@HUSkinChangedParam@@@@@1@@Z 00415f00 f i MainWnd.obj
 0001:00014f10       ??$emplace_hint@ABUpiecewise_construct_t@std@@V?$tuple@ABH@2@V?$tuple@$$V@2@@?$_Tree@V?$_Tmap_traits@HPAV?$ObserverImplBase@HUSkinChangedParam@@@@U?$less@H@std@@V?$allocator@U?$pair@$$CBHPAV?$ObserverImplBase@HUSkinChangedParam@@@@@std@@@3@$0A@@std@@@std@@QAE?AV?$_Tree_iterator@V?$_Tree_val@U?$_Tree_simple_types@U?$pair@$$CBHPAV?$ObserverImplBase@HUSkinChangedParam@@@@@std@@@std@@@std@@@1@V?$_Tree_const_iterator@V?$_Tree_val@U?$_Tree_simple_types@U?$pair@$$CBHPAV?$ObserverImplBase@HUSkinChangedParam@@@@@std@@@std@@@std@@@1@ABUpiecewise_construct_t@1@$$QAV?$tuple@ABH@1@$$QAV?$tuple@$$V@1@@Z 00415f10 f i MainWnd.obj
 0001:00015030       ??$emplace_hint@ABUpiecewise_construct_t@std@@V?$tuple@ABH@2@V?$tuple@$$V@2@@?$_Tree@V?$_Tmap_traits@HPAV?$ReceiverImplBase@HUSkinChangedParam@@@@U?$less@H@std@@V?$allocator@U?$pair@$$CBHPAV?$ReceiverImplBase@HUSkinChangedParam@@@@@std@@@3@$0A@@std@@@std@@QAE?AV?$_Tree_iterator@V?$_Tree_val@U?$_Tree_simple_types@U?$pair@$$CBHPAV?$ReceiverImplBase@HUSkinChangedParam@@@@@std@@@std@@@std@@@1@V?$_Tree_const_iterator@V?$_Tree_val@U?$_Tree_simple_types@U?$pair@$$CBHPAV?$ReceiverImplBase@HUSkinChangedParam@@@@@std@@@std@@@std@@@1@ABUpiecewise_construct_t@1@$$QAV?$tuple@ABH@1@$$QAV?$tuple@$$V@1@@Z 00416030 f i MainWnd.obj
 0001:00015150       ??$erase@V?$_Tree_iterator@V?$_Tree_val@U?$_Tree_simple_types@U?$pair@$$CBHPAV?$ReceiverImplBase@HUSkinChangedParam@@@@@std@@@std@@@std@@@std@@X@?$_Tree@V?$_Tmap_traits@HPAV?$ReceiverImplBase@HUSkinChangedParam@@@@U?$less@H@std@@V?$allocator@U?$pair@$$CBHPAV?$ReceiverImplBase@HUSkinChangedParam@@@@@std@@@3@$0A@@std@@@std@@QAE?AV?$_Tree_iterator@V?$_Tree_val@U?$_Tree_simple_types@U?$pair@$$CBHPAV?$ReceiverImplBase@HUSkinChangedParam@@@@@std@@@std@@@std@@@1@V21@@Z 00416150 f i MainWnd.obj
 0001:00015220       ??$forward@AAPAU?$_Tree_node@U?$pair@$$CBHPAV?$ObserverImplBase@HUSkinChangedParam@@@@@std@@PAX@std@@@std@@YAAAPAU?$_Tree_node@U?$pair@$$CBHPAV?$ObserverImplBase@HUSkinChangedParam@@@@@std@@PAX@0@AAPAU10@@Z 00416220 f i MainWnd.obj
 0001:00015230       ??$forward@AAPAU?$_Tree_node@U?$pair@$$CBHPAV?$ReceiverImplBase@HUSkinChangedParam@@@@@std@@PAX@std@@@std@@YAAAPAU?$_Tree_node@U?$pair@$$CBHPAV?$ReceiverImplBase@HUSkinChangedParam@@@@@std@@PAX@0@AAPAU10@@Z 00416230 f i MainWnd.obj
 0001:00015240       ??$forward@AAU?$pair@$$CBHPAV?$ObserverImplBase@HUSkinChangedParam@@@@@std@@@std@@YAAAU?$pair@$$CBHPAV?$ObserverImplBase@HUSkinChangedParam@@@@@0@AAU10@@Z 00416240 f i MainWnd.obj
 0001:00015250       ??$forward@AAU?$pair@$$CBHPAV?$ReceiverImplBase@HUSkinChangedParam@@@@@std@@@std@@YAAAU?$pair@$$CBHPAV?$ReceiverImplBase@HUSkinChangedParam@@@@@0@AAU10@@Z 00416250 f i MainWnd.obj
 0001:00015260       ??$forward@AAV?$_Tree_iterator@V?$_Tree_val@U?$_Tree_simple_types@U?$pair@$$CBHPAV?$ObserverImplBase@HUSkinChangedParam@@@@@std@@@std@@@std@@@std@@@std@@YAAAV?$_Tree_iterator@V?$_Tree_val@U?$_Tree_simple_types@U?$pair@$$CBHPAV?$ObserverImplBase@HUSkinChangedParam@@@@@std@@@std@@@std@@@0@AAV10@@Z 00416260 f i MainWnd.obj
 0001:00015270       ??$forward@AAV?$_Tree_iterator@V?$_Tree_val@U?$_Tree_simple_types@U?$pair@$$CBHPAV?$ReceiverImplBase@HUSkinChangedParam@@@@@std@@@std@@@std@@@std@@@std@@YAAAV?$_Tree_iterator@V?$_Tree_val@U?$_Tree_simple_types@U?$pair@$$CBHPAV?$ReceiverImplBase@HUSkinChangedParam@@@@@std@@@std@@@std@@@0@AAV10@@Z 00416270 f i MainWnd.obj
 0001:00015280       ??$forward@ABH@std@@YAABHABH@Z 00416280 f i MainWnd.obj
 0001:00015290       ??$forward@ABU?$less@H@std@@@std@@YAABU?$less@H@0@ABU10@@Z 00416290 f i MainWnd.obj
 0001:000152a0       ??$forward@ABUpiecewise_construct_t@std@@@std@@YAABUpiecewise_construct_t@0@ABU10@@Z 004162a0 f i MainWnd.obj
 0001:000152b0       ??$forward@U_Zero_then_variadic_args_t@std@@@std@@YA$$QAU_Zero_then_variadic_args_t@0@AAU10@@Z 004162b0 f i MainWnd.obj
 0001:000152c0       ??$forward@V?$_Tree_iterator@V?$_Tree_val@U?$_Tree_simple_types@U?$pair@$$CBHPAV?$ObserverImplBase@HUSkinChangedParam@@@@@std@@@std@@@std@@@std@@@std@@YA$$QAV?$_Tree_iterator@V?$_Tree_val@U?$_Tree_simple_types@U?$pair@$$CBHPAV?$ObserverImplBase@HUSkinChangedParam@@@@@std@@@std@@@std@@@0@AAV10@@Z 004162c0 f i MainWnd.obj
 0001:000152d0       ??$forward@V?$_Tree_iterator@V?$_Tree_val@U?$_Tree_simple_types@U?$pair@$$CBHPAV?$ReceiverImplBase@HUSkinChangedParam@@@@@std@@@std@@@std@@@std@@@std@@YA$$QAV?$_Tree_iterator@V?$_Tree_val@U?$_Tree_simple_types@U?$pair@$$CBHPAV?$ReceiverImplBase@HUSkinChangedParam@@@@@std@@@std@@@std@@@0@AAV10@@Z 004162d0 f i MainWnd.obj
 0001:000152e0       ??$forward@V?$tuple@$$V@std@@@std@@YA$$QAV?$tuple@$$V@0@AAV10@@Z 004162e0 f i MainWnd.obj
 0001:000152f0       ??$forward@V?$tuple@ABH@std@@@std@@YA$$QAV?$tuple@ABH@0@AAV10@@Z 004162f0 f i MainWnd.obj
 0001:00015300       ??$forward@_N@std@@YA$$QA_NAA_N@Z 00416300 f i MainWnd.obj
 0001:00015310       ??$forward_as_tuple@$$V@std@@YA?AV?$tuple@$$V@0@XZ 00416310 f i MainWnd.obj
 0001:00015330       ??$forward_as_tuple@ABH@std@@YA?AV?$tuple@ABH@0@ABH@Z 00416330 f i MainWnd.obj
 0001:000153a0       ??$get@$0A@ABH@std@@YAABH$$QAV?$tuple@ABH@0@@Z 004163a0 f i MainWnd.obj
 0001:000153c0       ??$move@AAD@std@@YA$$QADAAD@Z 004163c0 f i MainWnd.obj
 0001:000153d0       ??$move@AAV?$tuple@ABH@std@@@std@@YA$$QAV?$tuple@ABH@0@AAV10@@Z 004163d0 f i MainWnd.obj
 0001:000153e0       ??$swap@DX@std@@YAXAAD0@Z  004163e0 f i MainWnd.obj
 0001:00015490       ??$try_emplace@$$V@?$map@HPAV?$ObserverImplBase@HUSkinChangedParam@@@@U?$less@H@std@@V?$allocator@U?$pair@$$CBHPAV?$ObserverImplBase@HUSkinChangedParam@@@@@std@@@3@@std@@QAE?AU?$pair@V?$_Tree_iterator@V?$_Tree_val@U?$_Tree_simple_types@U?$pair@$$CBHPAV?$ObserverImplBase@HUSkinChangedParam@@@@@std@@@std@@@std@@@std@@_N@1@ABH@Z 00416490 f i MainWnd.obj
 0001:000154f0       ??$try_emplace@$$V@?$map@HPAV?$ReceiverImplBase@HUSkinChangedParam@@@@U?$less@H@std@@V?$allocator@U?$pair@$$CBHPAV?$ReceiverImplBase@HUSkinChangedParam@@@@@std@@@3@@std@@QAE?AU?$pair@V?$_Tree_iterator@V?$_Tree_val@U?$_Tree_simple_types@U?$pair@$$CBHPAV?$ReceiverImplBase@HUSkinChangedParam@@@@@std@@@std@@@std@@@std@@_N@1@ABH@Z 004164f0 f i MainWnd.obj
 0001:00015550       ??0?$ObserverImpl@HUSkinChangedParam@@@@QAE@XZ 00416550 f i MainWnd.obj
 0001:000155b0       ??0?$ObserverImplBase@HUSkinChangedParam@@@@QAE@XZ 004165b0 f i MainWnd.obj
 0001:000155e0       ??0?$ReceiverImpl@HUSkinChangedParam@@@@QAE@XZ 004165e0 f i MainWnd.obj
 0001:00015640       ??0?$ReceiverImplBase@HUSkinChangedParam@@@@QAE@XZ 00416640 f i MainWnd.obj
 0001:00015670       ??0?$_Tree@V?$_Tmap_traits@HPAV?$ObserverImplBase@HUSkinChangedParam@@@@U?$less@H@std@@V?$allocator@U?$pair@$$CBHPAV?$ObserverImplBase@HUSkinChangedParam@@@@@std@@@3@$0A@@std@@@std@@QAE@ABU?$less@H@1@@Z 00416670 f i MainWnd.obj
 0001:000156b0       ??0?$_Tree@V?$_Tmap_traits@HPAV?$ReceiverImplBase@HUSkinChangedParam@@@@U?$less@H@std@@V?$allocator@U?$pair@$$CBHPAV?$ReceiverImplBase@HUSkinChangedParam@@@@@std@@@3@$0A@@std@@@std@@QAE@ABU?$less@H@1@@Z 004166b0 f i MainWnd.obj
 0001:000156f0       ??0?$_Tree_comp_alloc@V?$_Tmap_traits@HPAV?$ObserverImplBase@HUSkinChangedParam@@@@U?$less@H@std@@V?$allocator@U?$pair@$$CBHPAV?$ObserverImplBase@HUSkinChangedParam@@@@@std@@@3@$0A@@std@@@std@@QAE@ABU?$less@H@1@@Z 004166f0 f i MainWnd.obj
 0001:00015790       ??0?$_Tree_comp_alloc@V?$_Tmap_traits@HPAV?$ReceiverImplBase@HUSkinChangedParam@@@@U?$less@H@std@@V?$allocator@U?$pair@$$CBHPAV?$ReceiverImplBase@HUSkinChangedParam@@@@@std@@@3@$0A@@std@@@std@@QAE@ABU?$less@H@1@@Z 00416790 f i MainWnd.obj
 0001:00015830       ??0?$_Tree_const_iterator@V?$_Tree_val@U?$_Tree_simple_types@U?$pair@$$CBHPAV?$ObserverImplBase@HUSkinChangedParam@@@@@std@@@std@@@std@@@std@@QAE@$$QAV01@@Z 00416830 f i MainWnd.obj
 0001:00015870       ??0?$_Tree_const_iterator@V?$_Tree_val@U?$_Tree_simple_types@U?$pair@$$CBHPAV?$ObserverImplBase@HUSkinChangedParam@@@@@std@@@std@@@std@@@std@@QAE@ABV01@@Z 00416870 f i MainWnd.obj
 0001:000158b0       ??0?$_Tree_const_iterator@V?$_Tree_val@U?$_Tree_simple_types@U?$pair@$$CBHPAV?$ObserverImplBase@HUSkinChangedParam@@@@@std@@@std@@@std@@@std@@QAE@PAU?$_Tree_node@U?$pair@$$CBHPAV?$ObserverImplBase@HUSkinChangedParam@@@@@std@@PAX@1@PBV?$_Tree_val@U?$_Tree_simple_types@U?$pair@$$CBHPAV?$ObserverImplBase@HUSkinChangedParam@@@@@std@@@std@@@1@@Z 004168b0 f i MainWnd.obj
 0001:000158f0       ??0?$_Tree_const_iterator@V?$_Tree_val@U?$_Tree_simple_types@U?$pair@$$CBHPAV?$ObserverImplBase@HUSkinChangedParam@@@@@std@@@std@@@std@@@std@@QAE@XZ 004168f0 f i MainWnd.obj
 0001:00015920       ??0?$_Tree_const_iterator@V?$_Tree_val@U?$_Tree_simple_types@U?$pair@$$CBHPAV?$ReceiverImplBase@HUSkinChangedParam@@@@@std@@@std@@@std@@@std@@QAE@$$QAV01@@Z 00416920 f i MainWnd.obj
 0001:00015960       ??0?$_Tree_const_iterator@V?$_Tree_val@U?$_Tree_simple_types@U?$pair@$$CBHPAV?$ReceiverImplBase@HUSkinChangedParam@@@@@std@@@std@@@std@@@std@@QAE@ABV01@@Z 00416960 f i MainWnd.obj
 0001:000159a0       ??0?$_Tree_const_iterator@V?$_Tree_val@U?$_Tree_simple_types@U?$pair@$$CBHPAV?$ReceiverImplBase@HUSkinChangedParam@@@@@std@@@std@@@std@@@std@@QAE@PAU?$_Tree_node@U?$pair@$$CBHPAV?$ReceiverImplBase@HUSkinChangedParam@@@@@std@@PAX@1@PBV?$_Tree_val@U?$_Tree_simple_types@U?$pair@$$CBHPAV?$ReceiverImplBase@HUSkinChangedParam@@@@@std@@@std@@@1@@Z 004169a0 f i MainWnd.obj
 0001:000159e0       ??0?$_Tree_const_iterator@V?$_Tree_val@U?$_Tree_simple_types@U?$pair@$$CBHPAV?$ReceiverImplBase@HUSkinChangedParam@@@@@std@@@std@@@std@@@std@@QAE@XZ 004169e0 f i MainWnd.obj
 0001:00015a10       ??0?$_Tree_iterator@V?$_Tree_val@U?$_Tree_simple_types@U?$pair@$$CBHPAV?$ObserverImplBase@HUSkinChangedParam@@@@@std@@@std@@@std@@@std@@QAE@$$QAV01@@Z 00416a10 f i MainWnd.obj
 0001:00015a50       ??0?$_Tree_iterator@V?$_Tree_val@U?$_Tree_simple_types@U?$pair@$$CBHPAV?$ObserverImplBase@HUSkinChangedParam@@@@@std@@@std@@@std@@@std@@QAE@ABV01@@Z 00416a50 f i MainWnd.obj
 0001:00015a90       ??0?$_Tree_iterator@V?$_Tree_val@U?$_Tree_simple_types@U?$pair@$$CBHPAV?$ObserverImplBase@HUSkinChangedParam@@@@@std@@@std@@@std@@@std@@QAE@PAU?$_Tree_node@U?$pair@$$CBHPAV?$ObserverImplBase@HUSkinChangedParam@@@@@std@@PAX@1@PBV?$_Tree_val@U?$_Tree_simple_types@U?$pair@$$CBHPAV?$ObserverImplBase@HUSkinChangedParam@@@@@std@@@std@@@1@@Z 00416a90 f i MainWnd.obj
 0001:00015ad0       ??0?$_Tree_iterator@V?$_Tree_val@U?$_Tree_simple_types@U?$pair@$$CBHPAV?$ReceiverImplBase@HUSkinChangedParam@@@@@std@@@std@@@std@@@std@@QAE@$$QAV01@@Z 00416ad0 f i MainWnd.obj
 0001:00015b10       ??0?$_Tree_iterator@V?$_Tree_val@U?$_Tree_simple_types@U?$pair@$$CBHPAV?$ReceiverImplBase@HUSkinChangedParam@@@@@std@@@std@@@std@@@std@@QAE@ABV01@@Z 00416b10 f i MainWnd.obj
 0001:00015b50       ??0?$_Tree_iterator@V?$_Tree_val@U?$_Tree_simple_types@U?$pair@$$CBHPAV?$ReceiverImplBase@HUSkinChangedParam@@@@@std@@@std@@@std@@@std@@QAE@PAU?$_Tree_node@U?$pair@$$CBHPAV?$ReceiverImplBase@HUSkinChangedParam@@@@@std@@PAX@1@PBV?$_Tree_val@U?$_Tree_simple_types@U?$pair@$$CBHPAV?$ReceiverImplBase@HUSkinChangedParam@@@@@std@@@std@@@1@@Z 00416b50 f i MainWnd.obj
 0001:00015b90       ??0?$_Tree_unchecked_const_iterator@V?$_Tree_val@U?$_Tree_simple_types@U?$pair@$$CBHPAV?$ObserverImplBase@HUSkinChangedParam@@@@@std@@@std@@@std@@U_Iterator_base12@2@@std@@QAE@$$QAV01@@Z 00416b90 f i MainWnd.obj
 0001:00015be0       ??0?$_Tree_unchecked_const_iterator@V?$_Tree_val@U?$_Tree_simple_types@U?$pair@$$CBHPAV?$ObserverImplBase@HUSkinChangedParam@@@@@std@@@std@@@std@@U_Iterator_base12@2@@std@@QAE@ABV01@@Z 00416be0 f i MainWnd.obj
 0001:00015c30       ??0?$_Tree_unchecked_const_iterator@V?$_Tree_val@U?$_Tree_simple_types@U?$pair@$$CBHPAV?$ObserverImplBase@HUSkinChangedParam@@@@@std@@@std@@@std@@U_Iterator_base12@2@@std@@QAE@PAU?$_Tree_node@U?$pair@$$CBHPAV?$ObserverImplBase@HUSkinChangedParam@@@@@std@@PAX@1@PBV?$_Tree_val@U?$_Tree_simple_types@U?$pair@$$CBHPAV?$ObserverImplBase@HUSkinChangedParam@@@@@std@@@std@@@1@@Z 00416c30 f i MainWnd.obj
 0001:00015c80       ??0?$_Tree_unchecked_const_iterator@V?$_Tree_val@U?$_Tree_simple_types@U?$pair@$$CBHPAV?$ObserverImplBase@HUSkinChangedParam@@@@@std@@@std@@@std@@U_Iterator_base12@2@@std@@QAE@XZ 00416c80 f i MainWnd.obj
 0001:00015cc0       ??0?$_Tree_unchecked_const_iterator@V?$_Tree_val@U?$_Tree_simple_types@U?$pair@$$CBHPAV?$ReceiverImplBase@HUSkinChangedParam@@@@@std@@@std@@@std@@U_Iterator_base12@2@@std@@QAE@$$QAV01@@Z 00416cc0 f i MainWnd.obj
 0001:00015d10       ??0?$_Tree_unchecked_const_iterator@V?$_Tree_val@U?$_Tree_simple_types@U?$pair@$$CBHPAV?$ReceiverImplBase@HUSkinChangedParam@@@@@std@@@std@@@std@@U_Iterator_base12@2@@std@@QAE@ABV01@@Z 00416d10 f i MainWnd.obj
 0001:00015d60       ??0?$_Tree_unchecked_const_iterator@V?$_Tree_val@U?$_Tree_simple_types@U?$pair@$$CBHPAV?$ReceiverImplBase@HUSkinChangedParam@@@@@std@@@std@@@std@@U_Iterator_base12@2@@std@@QAE@PAU?$_Tree_node@U?$pair@$$CBHPAV?$ReceiverImplBase@HUSkinChangedParam@@@@@std@@PAX@1@PBV?$_Tree_val@U?$_Tree_simple_types@U?$pair@$$CBHPAV?$ReceiverImplBase@HUSkinChangedParam@@@@@std@@@std@@@1@@Z 00416d60 f i MainWnd.obj
 0001:00015db0       ??0?$_Tree_unchecked_const_iterator@V?$_Tree_val@U?$_Tree_simple_types@U?$pair@$$CBHPAV?$ReceiverImplBase@HUSkinChangedParam@@@@@std@@@std@@@std@@U_Iterator_base12@2@@std@@QAE@XZ 00416db0 f i MainWnd.obj
 0001:00015df0       ??0?$_Tree_val@U?$_Tree_simple_types@U?$pair@$$CBHPAV?$ObserverImplBase@HUSkinChangedParam@@@@@std@@@std@@@std@@QAE@XZ 00416df0 f i MainWnd.obj
 0001:00015e40       ??0?$_Tree_val@U?$_Tree_simple_types@U?$pair@$$CBHPAV?$ReceiverImplBase@HUSkinChangedParam@@@@@std@@@std@@@std@@QAE@XZ 00416e40 f i MainWnd.obj
 0001:00015e90       ??0?$allocator@U?$_Tree_node@U?$pair@$$CBHPAV?$ObserverImplBase@HUSkinChangedParam@@@@@std@@PAX@std@@@std@@QAE@XZ 00416e90 f i MainWnd.obj
 0001:00015eb0       ??0?$allocator@U?$_Tree_node@U?$pair@$$CBHPAV?$ReceiverImplBase@HUSkinChangedParam@@@@@std@@PAX@std@@@std@@QAE@XZ 00416eb0 f i MainWnd.obj
 0001:00015ed0       ??0?$map@HPAV?$ObserverImplBase@HUSkinChangedParam@@@@U?$less@H@std@@V?$allocator@U?$pair@$$CBHPAV?$ObserverImplBase@HUSkinChangedParam@@@@@std@@@3@@std@@QAE@XZ 00416ed0 f i MainWnd.obj
 0001:00015f20       ??0?$map@HPAV?$ReceiverImplBase@HUSkinChangedParam@@@@U?$less@H@std@@V?$allocator@U?$pair@$$CBHPAV?$ReceiverImplBase@HUSkinChangedParam@@@@@std@@@3@@std@@QAE@XZ 00416f20 f i MainWnd.obj
 0001:00015f70       ??0?$tuple@$$V@std@@QAE@ABV01@@Z 00416f70 f i MainWnd.obj
 0001:00015f90       ??0?$tuple@$$V@std@@QAE@XZ 00416f90 f i MainWnd.obj
 0001:00015fb0       ??0?$tuple@ABH@std@@QAE@$$QAV01@@Z 00416fb0 f i MainWnd.obj
 0001:00016000       ??0CSkinFrame@@QAE@PAUHWND__@@PAVCControlUI@DuiLib@@@Z 00417000 f i MainWnd.obj
 0001:00016130       ??0CSkinManager@@AAE@XZ    00417130 f i MainWnd.obj
 0001:00016160       ??0CWebBrowserEventHandler@DuiLib@@QAE@XZ 00417160 f i MainWnd.obj
 0001:00016190       ??0Data_t@_bstr_t@@QAE@PB_W@Z 00417190 f i MainWnd.obj
 0001:00016210       ??0INotifyUI@DuiLib@@QAE@XZ 00417210 f i MainWnd.obj
 0001:00016240       ??0SkinChangedParam@@QAE@ABU0@@Z 00417240 f i MainWnd.obj
 0001:000162b0       ??0SkinChangedParam@@QAE@XZ 004172b0 f i MainWnd.obj
 0001:00016300       ??0_bstr_t@@QAE@PB_W@Z     00417300 f i MainWnd.obj
 0001:000163e0       ??1?$ObserverImpl@HUSkinChangedParam@@@@UAE@XZ 004173e0 f i MainWnd.obj
 0001:00016420       ??1?$ReceiverImpl@HUSkinChangedParam@@@@UAE@XZ 00417420 f i MainWnd.obj
 0001:00016460       ??1?$_Compressed_pair@U?$less@H@std@@V?$_Compressed_pair@V?$allocator@U?$_Tree_node@U?$pair@$$CBHPAV?$ObserverImplBase@HUSkinChangedParam@@@@@std@@PAX@std@@@std@@V?$_Tree_val@U?$_Tree_simple_types@U?$pair@$$CBHPAV?$ObserverImplBase@HUSkinChangedParam@@@@@std@@@std@@@2@$00@2@$00@std@@QAE@XZ 00417460 f i MainWnd.obj
 0001:00016490       ??1?$_Compressed_pair@U?$less@H@std@@V?$_Compressed_pair@V?$allocator@U?$_Tree_node@U?$pair@$$CBHPAV?$ReceiverImplBase@HUSkinChangedParam@@@@@std@@PAX@std@@@std@@V?$_Tree_val@U?$_Tree_simple_types@U?$pair@$$CBHPAV?$ReceiverImplBase@HUSkinChangedParam@@@@@std@@@std@@@2@$00@2@$00@std@@QAE@XZ 00417490 f i MainWnd.obj
 0001:000164c0       ??1?$_Compressed_pair@V?$allocator@U?$_Tree_node@U?$pair@$$CBHPAV?$ObserverImplBase@HUSkinChangedParam@@@@@std@@PAX@std@@@std@@V?$_Tree_val@U?$_Tree_simple_types@U?$pair@$$CBHPAV?$ObserverImplBase@HUSkinChangedParam@@@@@std@@@std@@@2@$00@std@@QAE@XZ 004174c0 f i MainWnd.obj
 0001:000164f0       ??1?$_Compressed_pair@V?$allocator@U?$_Tree_node@U?$pair@$$CBHPAV?$ReceiverImplBase@HUSkinChangedParam@@@@@std@@PAX@std@@@std@@V?$_Tree_val@U?$_Tree_simple_types@U?$pair@$$CBHPAV?$ReceiverImplBase@HUSkinChangedParam@@@@@std@@@std@@@2@$00@std@@QAE@XZ 004174f0 f i MainWnd.obj
 0001:00016520       ??1?$_Tree@V?$_Tmap_traits@HPAV?$ObserverImplBase@HUSkinChangedParam@@@@U?$less@H@std@@V?$allocator@U?$pair@$$CBHPAV?$ObserverImplBase@HUSkinChangedParam@@@@@std@@@3@$0A@@std@@@std@@QAE@XZ 00417520 f i MainWnd.obj
 0001:00016590       ??1?$_Tree@V?$_Tmap_traits@HPAV?$ReceiverImplBase@HUSkinChangedParam@@@@U?$less@H@std@@V?$allocator@U?$pair@$$CBHPAV?$ReceiverImplBase@HUSkinChangedParam@@@@@std@@@3@$0A@@std@@@std@@QAE@XZ 00417590 f i MainWnd.obj
 0001:00016600       ??1?$_Tree_comp_alloc@V?$_Tmap_traits@HPAV?$ObserverImplBase@HUSkinChangedParam@@@@U?$less@H@std@@V?$allocator@U?$pair@$$CBHPAV?$ObserverImplBase@HUSkinChangedParam@@@@@std@@@3@$0A@@std@@@std@@QAE@XZ 00417600 f i MainWnd.obj
 0001:00016690       ??1?$_Tree_comp_alloc@V?$_Tmap_traits@HPAV?$ReceiverImplBase@HUSkinChangedParam@@@@U?$less@H@std@@V?$allocator@U?$pair@$$CBHPAV?$ReceiverImplBase@HUSkinChangedParam@@@@@std@@@3@$0A@@std@@@std@@QAE@XZ 00417690 f i MainWnd.obj
 0001:00016720       ??1?$_Tree_const_iterator@V?$_Tree_val@U?$_Tree_simple_types@U?$pair@$$CBHPAV?$ObserverImplBase@HUSkinChangedParam@@@@@std@@@std@@@std@@@std@@QAE@XZ 00417720 f i MainWnd.obj
 0001:00016750       ??1?$_Tree_const_iterator@V?$_Tree_val@U?$_Tree_simple_types@U?$pair@$$CBHPAV?$ReceiverImplBase@HUSkinChangedParam@@@@@std@@@std@@@std@@@std@@QAE@XZ 00417750 f i MainWnd.obj
 0001:00016780       ??1?$_Tree_iterator@V?$_Tree_val@U?$_Tree_simple_types@U?$pair@$$CBHPAV?$ObserverImplBase@HUSkinChangedParam@@@@@std@@@std@@@std@@@std@@QAE@XZ 00417780 f i MainWnd.obj
 0001:000167b0       ??1?$_Tree_iterator@V?$_Tree_val@U?$_Tree_simple_types@U?$pair@$$CBHPAV?$ReceiverImplBase@HUSkinChangedParam@@@@@std@@@std@@@std@@@std@@QAE@XZ 004177b0 f i MainWnd.obj
 0001:000167e0       ??1?$_Tree_unchecked_const_iterator@V?$_Tree_val@U?$_Tree_simple_types@U?$pair@$$CBHPAV?$ObserverImplBase@HUSkinChangedParam@@@@@std@@@std@@@std@@U_Iterator_base12@2@@std@@QAE@XZ 004177e0 f i MainWnd.obj
 0001:00016810       ??1?$_Tree_unchecked_const_iterator@V?$_Tree_val@U?$_Tree_simple_types@U?$pair@$$CBHPAV?$ReceiverImplBase@HUSkinChangedParam@@@@@std@@@std@@@std@@U_Iterator_base12@2@@std@@QAE@XZ 00417810 f i MainWnd.obj
 0001:00016840       ??1?$_Tree_val@U?$_Tree_simple_types@U?$pair@$$CBHPAV?$ObserverImplBase@HUSkinChangedParam@@@@@std@@@std@@@std@@QAE@XZ 00417840 f i MainWnd.obj
 0001:00016870       ??1?$_Tree_val@U?$_Tree_simple_types@U?$pair@$$CBHPAV?$ReceiverImplBase@HUSkinChangedParam@@@@@std@@@std@@@std@@QAE@XZ 00417870 f i MainWnd.obj
 0001:000168a0       ??1?$map@HPAV?$ObserverImplBase@HUSkinChangedParam@@@@U?$less@H@std@@V?$allocator@U?$pair@$$CBHPAV?$ObserverImplBase@HUSkinChangedParam@@@@@std@@@3@@std@@QAE@XZ 004178a0 f i MainWnd.obj
 0001:000168d0       ??1?$map@HPAV?$ReceiverImplBase@HUSkinChangedParam@@@@U?$less@H@std@@V?$allocator@U?$pair@$$CBHPAV?$ReceiverImplBase@HUSkinChangedParam@@@@@std@@@3@@std@@QAE@XZ 004178d0 f i MainWnd.obj
 0001:00016900       ??1?$pair@V?$_Tree_iterator@V?$_Tree_val@U?$_Tree_simple_types@U?$pair@$$CBHPAV?$ObserverImplBase@HUSkinChangedParam@@@@@std@@@std@@@std@@@std@@_N@std@@QAE@XZ 00417900 f i MainWnd.obj
 0001:00016930       ??1?$pair@V?$_Tree_iterator@V?$_Tree_val@U?$_Tree_simple_types@U?$pair@$$CBHPAV?$ReceiverImplBase@HUSkinChangedParam@@@@@std@@@std@@@std@@@std@@_N@std@@QAE@XZ 00417930 f i MainWnd.obj
 0001:00016960       ??1CMainPage@@QAE@XZ       00417960 f i MainWnd.obj
 0001:000169a0       ??1CSkinFrame@@QAE@XZ      004179a0 f i MainWnd.obj
 0001:000169e0       ??1CWebBrowserEventHandler@DuiLib@@QAE@XZ 004179e0 f i MainWnd.obj
 0001:00016a10       ??1DUI_MSGMAP_ENTRY@DuiLib@@QAE@XZ 00417a10 f i MainWnd.obj
 0001:00016a70       ??1Data_t@_bstr_t@@AAE@XZ  00417a70 f i MainWnd.obj
 0001:00016aa0       ??1SkinChangedParam@@QAE@XZ 00417aa0 f i MainWnd.obj
 0001:00016ae0       ??1_bstr_t@@QAE@XZ         00417ae0 f i MainWnd.obj
 0001:00016b10       ??2Data_t@_bstr_t@@SAPAXI@Z 00417b10 f i MainWnd.obj
 0001:00016b30       ??4?$_Tree_const_iterator@V?$_Tree_val@U?$_Tree_simple_types@U?$pair@$$CBHPAV?$ObserverImplBase@HUSkinChangedParam@@@@@std@@@std@@@std@@@std@@QAEAAV01@ABV01@@Z 00417b30 f i MainWnd.obj
 0001:00016b70       ??4?$_Tree_const_iterator@V?$_Tree_val@U?$_Tree_simple_types@U?$pair@$$CBHPAV?$ReceiverImplBase@HUSkinChangedParam@@@@@std@@@std@@@std@@@std@@QAEAAV01@ABV01@@Z 00417b70 f i MainWnd.obj
 0001:00016bb0       ??4?$_Tree_unchecked_const_iterator@V?$_Tree_val@U?$_Tree_simple_types@U?$pair@$$CBHPAV?$ObserverImplBase@HUSkinChangedParam@@@@@std@@@std@@@std@@U_Iterator_base12@2@@std@@QAEAAV01@ABV01@@Z 00417bb0 f i MainWnd.obj
 0001:00016c00       ??4?$_Tree_unchecked_const_iterator@V?$_Tree_val@U?$_Tree_simple_types@U?$pair@$$CBHPAV?$ReceiverImplBase@HUSkinChangedParam@@@@@std@@@std@@@std@@U_Iterator_base12@2@@std@@QAEAAV01@ABV01@@Z 00417c00 f i MainWnd.obj
 0001:00016c50       ??8?$_Tree_const_iterator@V?$_Tree_val@U?$_Tree_simple_types@U?$pair@$$CBHPAV?$ObserverImplBase@HUSkinChangedParam@@@@@std@@@std@@@std@@@std@@QBE_NABV01@@Z 00417c50 f i MainWnd.obj
 0001:00016d20       ??8?$_Tree_const_iterator@V?$_Tree_val@U?$_Tree_simple_types@U?$pair@$$CBHPAV?$ReceiverImplBase@HUSkinChangedParam@@@@@std@@@std@@@std@@@std@@QBE_NABV01@@Z 00417d20 f i MainWnd.obj
 0001:00016df0       ??9?$_Tree_const_iterator@V?$_Tree_val@U?$_Tree_simple_types@U?$pair@$$CBHPAV?$ObserverImplBase@HUSkinChangedParam@@@@@std@@@std@@@std@@@std@@QBE_NABV01@@Z 00417df0 f i MainWnd.obj
 0001:00016e50       ??9?$_Tree_const_iterator@V?$_Tree_val@U?$_Tree_simple_types@U?$pair@$$CBHPAV?$ReceiverImplBase@HUSkinChangedParam@@@@@std@@@std@@@std@@@std@@QBE_NABV01@@Z 00417e50 f i MainWnd.obj
 0001:00016eb0       ??A?$map@HPAV?$ObserverImplBase@HUSkinChangedParam@@@@U?$less@H@std@@V?$allocator@U?$pair@$$CBHPAV?$ObserverImplBase@HUSkinChangedParam@@@@@std@@@3@@std@@QAEAAPAV?$ObserverImplBase@HUSkinChangedParam@@@@ABH@Z 00417eb0 f i MainWnd.obj
 0001:00016f80       ??A?$map@HPAV?$ReceiverImplBase@HUSkinChangedParam@@@@U?$less@H@std@@V?$allocator@U?$pair@$$CBHPAV?$ReceiverImplBase@HUSkinChangedParam@@@@@std@@@3@@std@@QAEAAPAV?$ReceiverImplBase@HUSkinChangedParam@@@@ABH@Z 00417f80 f i MainWnd.obj
 0001:00017050       ??B_bstr_t@@QBEPA_WXZ      00418050 f i MainWnd.obj
 0001:000170b0       ??C?$_Tree_iterator@V?$_Tree_val@U?$_Tree_simple_types@U?$pair@$$CBHPAV?$ObserverImplBase@HUSkinChangedParam@@@@@std@@@std@@@std@@@std@@QBEPAU?$pair@$$CBHPAV?$ObserverImplBase@HUSkinChangedParam@@@@@1@XZ 004180b0 f i MainWnd.obj
 0001:000170f0       ??C?$_Tree_iterator@V?$_Tree_val@U?$_Tree_simple_types@U?$pair@$$CBHPAV?$ReceiverImplBase@HUSkinChangedParam@@@@@std@@@std@@@std@@@std@@QBEPAU?$pair@$$CBHPAV?$ReceiverImplBase@HUSkinChangedParam@@@@@1@XZ 004180f0 f i MainWnd.obj
 0001:00017130       ??D?$_Tree_const_iterator@V?$_Tree_val@U?$_Tree_simple_types@U?$pair@$$CBHPAV?$ObserverImplBase@HUSkinChangedParam@@@@@std@@@std@@@std@@@std@@QBEABU?$pair@$$CBHPAV?$ObserverImplBase@HUSkinChangedParam@@@@@1@XZ 00418130 f i MainWnd.obj
 0001:000171f0       ??D?$_Tree_const_iterator@V?$_Tree_val@U?$_Tree_simple_types@U?$pair@$$CBHPAV?$ReceiverImplBase@HUSkinChangedParam@@@@@std@@@std@@@std@@@std@@QBEABU?$pair@$$CBHPAV?$ReceiverImplBase@HUSkinChangedParam@@@@@1@XZ 004181f0 f i MainWnd.obj
 0001:000172b0       ??D?$_Tree_iterator@V?$_Tree_val@U?$_Tree_simple_types@U?$pair@$$CBHPAV?$ObserverImplBase@HUSkinChangedParam@@@@@std@@@std@@@std@@@std@@QBEAAU?$pair@$$CBHPAV?$ObserverImplBase@HUSkinChangedParam@@@@@1@XZ 004182b0 f i MainWnd.obj
 0001:000172e0       ??D?$_Tree_iterator@V?$_Tree_val@U?$_Tree_simple_types@U?$pair@$$CBHPAV?$ReceiverImplBase@HUSkinChangedParam@@@@@std@@@std@@@std@@@std@@QBEAAU?$pair@$$CBHPAV?$ReceiverImplBase@HUSkinChangedParam@@@@@1@XZ 004182e0 f i MainWnd.obj
 0001:00017310       ??E?$_Tree_const_iterator@V?$_Tree_val@U?$_Tree_simple_types@U?$pair@$$CBHPAV?$ObserverImplBase@HUSkinChangedParam@@@@@std@@@std@@@std@@@std@@QAE?AV01@H@Z 00418310 f i MainWnd.obj
 0001:00017420       ??E?$_Tree_const_iterator@V?$_Tree_val@U?$_Tree_simple_types@U?$pair@$$CBHPAV?$ObserverImplBase@HUSkinChangedParam@@@@@std@@@std@@@std@@@std@@QAEAAV01@XZ 00418420 f i MainWnd.obj
 0001:000174d0       ??E?$_Tree_const_iterator@V?$_Tree_val@U?$_Tree_simple_types@U?$pair@$$CBHPAV?$ReceiverImplBase@HUSkinChangedParam@@@@@std@@@std@@@std@@@std@@QAE?AV01@H@Z 004184d0 f i MainWnd.obj
 0001:000175e0       ??E?$_Tree_const_iterator@V?$_Tree_val@U?$_Tree_simple_types@U?$pair@$$CBHPAV?$ReceiverImplBase@HUSkinChangedParam@@@@@std@@@std@@@std@@@std@@QAEAAV01@XZ 004185e0 f i MainWnd.obj
 0001:00017690       ??E?$_Tree_iterator@V?$_Tree_val@U?$_Tree_simple_types@U?$pair@$$CBHPAV?$ObserverImplBase@HUSkinChangedParam@@@@@std@@@std@@@std@@@std@@QAEAAV01@XZ 00418690 f i MainWnd.obj
 0001:000176c0       ??E?$_Tree_iterator@V?$_Tree_val@U?$_Tree_simple_types@U?$pair@$$CBHPAV?$ReceiverImplBase@HUSkinChangedParam@@@@@std@@@std@@@std@@@std@@QAEAAV01@XZ 004186c0 f i MainWnd.obj
 0001:000176f0       ??E?$_Tree_unchecked_const_iterator@V?$_Tree_val@U?$_Tree_simple_types@U?$pair@$$CBHPAV?$ObserverImplBase@HUSkinChangedParam@@@@@std@@@std@@@std@@U_Iterator_base12@2@@std@@QAEAAV01@XZ 004186f0 f i MainWnd.obj
 0001:000177c0       ??E?$_Tree_unchecked_const_iterator@V?$_Tree_val@U?$_Tree_simple_types@U?$pair@$$CBHPAV?$ReceiverImplBase@HUSkinChangedParam@@@@@std@@@std@@@std@@U_Iterator_base12@2@@std@@QAEAAV01@XZ 004187c0 f i MainWnd.obj
 0001:00017890       ??F?$_Tree_const_iterator@V?$_Tree_val@U?$_Tree_simple_types@U?$pair@$$CBHPAV?$ObserverImplBase@HUSkinChangedParam@@@@@std@@@std@@@std@@@std@@QAEAAV01@XZ 00418890 f i MainWnd.obj
 0001:000179a0       ??F?$_Tree_const_iterator@V?$_Tree_val@U?$_Tree_simple_types@U?$pair@$$CBHPAV?$ReceiverImplBase@HUSkinChangedParam@@@@@std@@@std@@@std@@@std@@QAEAAV01@XZ 004189a0 f i MainWnd.obj
 0001:00017ab0       ??F?$_Tree_iterator@V?$_Tree_val@U?$_Tree_simple_types@U?$pair@$$CBHPAV?$ObserverImplBase@HUSkinChangedParam@@@@@std@@@std@@@std@@@std@@QAEAAV01@XZ 00418ab0 f i MainWnd.obj
 0001:00017ae0       ??F?$_Tree_iterator@V?$_Tree_val@U?$_Tree_simple_types@U?$pair@$$CBHPAV?$ReceiverImplBase@HUSkinChangedParam@@@@@std@@@std@@@std@@@std@@QAEAAV01@XZ 00418ae0 f i MainWnd.obj
 0001:00017b10       ??F?$_Tree_unchecked_const_iterator@V?$_Tree_val@U?$_Tree_simple_types@U?$pair@$$CBHPAV?$ObserverImplBase@HUSkinChangedParam@@@@@std@@@std@@@std@@U_Iterator_base12@2@@std@@QAEAAV01@XZ 00418b10 f i MainWnd.obj
 0001:00017c00       ??F?$_Tree_unchecked_const_iterator@V?$_Tree_val@U?$_Tree_simple_types@U?$pair@$$CBHPAV?$ReceiverImplBase@HUSkinChangedParam@@@@@std@@@std@@@std@@U_Iterator_base12@2@@std@@QAEAAV01@XZ 00418c00 f i MainWnd.obj
 0001:00017cf0       ??R?$less@H@std@@QBE_NABH0@Z 00418cf0 f i MainWnd.obj
 0001:00017d3b       ??_9CMainPage@@$B3AE       00418d3b f i MainWnd.obj
 0001:00017d40       ??_9CMainPage@@$B7AE       00418d40 f i MainWnd.obj
 0001:00017d45       ??_9CMainPage@@$BM@AE      00418d45 f i MainWnd.obj
 0001:00017d4a       ??_ECMainWnd@@WEIA@AEPAXI@Z 00418d4a f i MainWnd.obj
 0001:00017d60       ??_E?$ObserverImpl@HUSkinChangedParam@@@@UAEPAXI@Z 00418d60 f i MainWnd.obj
 0001:00017d60       ??_G?$ObserverImpl@HUSkinChangedParam@@@@UAEPAXI@Z 00418d60 f i MainWnd.obj
 0001:00017db0       ??_G?$ReceiverImpl@HUSkinChangedParam@@@@UAEPAXI@Z 00418db0 f i MainWnd.obj
 0001:00017db0       ??_E?$ReceiverImpl@HUSkinChangedParam@@@@UAEPAXI@Z 00418db0 f i MainWnd.obj
 0001:00017e00       ??_ECButtonUI@DuiLib@@UAEPAXI@Z 00418e00 f i MainWnd.obj
 0001:00017e00       ??_GCButtonUI@DuiLib@@UAEPAXI@Z 00418e00 f i MainWnd.obj
 0001:00017e70       ??_GCComboUI@DuiLib@@UAEPAXI@Z 00418e70 f i MainWnd.obj
 0001:00017e70       ??_ECComboUI@DuiLib@@UAEPAXI@Z 00418e70 f i MainWnd.obj
 0001:00017ee0       ??_GCListContainerElementUI@DuiLib@@UAEPAXI@Z 00418ee0 f i MainWnd.obj
 0001:00017ee0       ??_ECListContainerElementUI@DuiLib@@UAEPAXI@Z 00418ee0 f i MainWnd.obj
 0001:00017f50       ??_ECListLabelElementUI@DuiLib@@UAEPAXI@Z 00418f50 f i MainWnd.obj
 0001:00017f50       ??_GCListLabelElementUI@DuiLib@@UAEPAXI@Z 00418f50 f i MainWnd.obj
 0001:00017fc0       ??_ECListTextElementUI@DuiLib@@UAEPAXI@Z 00418fc0 f i MainWnd.obj
 0001:00017fc0       ??_GCListTextElementUI@DuiLib@@UAEPAXI@Z 00418fc0 f i MainWnd.obj
 0001:00018030       ??_GCListTextExtElementUI@DuiLib@@UAEPAXI@Z 00419030 f i MainWnd.obj
 0001:00018030       ??_ECListTextExtElementUI@DuiLib@@UAEPAXI@Z 00419030 f i MainWnd.obj
 0001:000180a0       ??_ECMainWnd@@UAEPAXI@Z    004190a0 f i MainWnd.obj
 0001:000180a0       ??_GCMainWnd@@UAEPAXI@Z    004190a0 f i MainWnd.obj
 0001:00018100       ??_GCMenuElementUI@DuiLib@@UAEPAXI@Z 00419100 f i MainWnd.obj
 0001:00018100       ??_ECMenuElementUI@DuiLib@@UAEPAXI@Z 00419100 f i MainWnd.obj
 0001:00018170       ??_GCMenuWnd@DuiLib@@QAEPAXI@Z 00419170 f i MainWnd.obj
 0001:000181e0       ??_GCOptionUI@DuiLib@@UAEPAXI@Z 004191e0 f i MainWnd.obj
 0001:000181e0       ??_ECOptionUI@DuiLib@@UAEPAXI@Z 004191e0 f i MainWnd.obj
 0001:00018250       ??_GCSkinFrame@@QAEPAXI@Z  00419250 f i MainWnd.obj
 0001:000182b0       ??_ECTreeNodeUI@DuiLib@@UAEPAXI@Z 004192b0 f i MainWnd.obj
 0001:000182b0       ??_GCTreeNodeUI@DuiLib@@UAEPAXI@Z 004192b0 f i MainWnd.obj
 0001:00018320       ??_GData_t@_bstr_t@@AAEPAXI@Z 00419320 f i MainWnd.obj
 0001:00018370       ?AddObserver@?$ReceiverImpl@HUSkinChangedParam@@@@UAEXPAV?$ObserverImplBase@HUSkinChangedParam@@@@@Z 00419370 f i MainWnd.obj
 0001:000183d0       ?AddReceiver@?$ObserverImpl@HUSkinChangedParam@@@@UAEXPAV?$ReceiverImplBase@HUSkinChangedParam@@@@@Z 004193d0 f i MainWnd.obj
 0001:00018450       ?AddReceiver@CSkinManager@@QAEXPAV?$ReceiverImpl@HUSkinChangedParam@@@@@Z 00419450 f i MainWnd.obj
 0001:000184a0       ?BeforeNavigate2@CWebBrowserEventHandler@DuiLib@@UAEXPAVCWebBrowserUI@2@PAUIDispatch@@AAPAUtagVARIANT@@2222AAPAF@Z 004194a0 f i MainWnd.obj
 0001:000184c0       ?Broadcast@?$ObserverImpl@HUSkinChangedParam@@@@UAEHUSkinChangedParam@@@Z 004194c0 f i MainWnd.obj
 0001:00018650       ?Broadcast@CSkinManager@@QAEXUSkinChangedParam@@@Z 00419650 f i MainWnd.obj
 0001:00018700       ?CommandStateChange@CWebBrowserEventHandler@DuiLib@@UAEXPAVCWebBrowserUI@2@JF@Z 00419700 f i MainWnd.obj
 0001:00018720       ?DocumentComplete@CWebBrowserEventHandler@DuiLib@@UAEXPAVCWebBrowserUI@2@PAUIDispatch@@AAPAUtagVARIANT@@@Z 00419720 f i MainWnd.obj
 0001:00018740       ?Download@CWebBrowserEventHandler@DuiLib@@UAGJPAVCWebBrowserUI@2@PAUIMoniker@@PAUIBindCtx@@KJPAU_tagBINDINFO@@PB_W4I@Z 00419740 f i MainWnd.obj
 0001:00018750       ?EnableModeless@CWebBrowserEventHandler@DuiLib@@UAGJPAVCWebBrowserUI@2@H@Z 00419750 f i MainWnd.obj
 0001:00018760       ?FilterDataObject@CWebBrowserEventHandler@DuiLib@@UAGJPAVCWebBrowserUI@2@PAUIDataObject@@PAPAU4@@Z 00419760 f i MainWnd.obj
 0001:00018770       ?GetClassStyle@CSkinFrame@@UBEIXZ 00419770 f i MainWnd.obj
 0001:00018790       ?GetDropTarget@CWebBrowserEventHandler@DuiLib@@UAGJPAVCWebBrowserUI@2@PAUIDropTarget@@PAPAU4@@Z 00419790 f i MainWnd.obj
 0001:000187a0       ?GetExternal@CWebBrowserEventHandler@DuiLib@@UAGJPAVCWebBrowserUI@2@PAPAUIDispatch@@@Z 004197a0 f i MainWnd.obj
 0001:000187b0       ?GetHostInfo@CWebBrowserEventHandler@DuiLib@@UAGJPAVCWebBrowserUI@2@PAU_DOCHOSTUIINFO@@@Z 004197b0 f i MainWnd.obj
 0001:000187c0       ?GetOptionKeyPath@CWebBrowserEventHandler@DuiLib@@UAGJPAVCWebBrowserUI@2@PAPA_WK@Z 004197c0 f i MainWnd.obj
 0001:000187d0       ?GetSkinManager@CSkinManager@@SAPAV1@XZ 004197d0 f i MainWnd.obj
 0001:000188a0       ?GetWString@Data_t@_bstr_t@@QAEAAPA_WXZ 004198a0 f i MainWnd.obj
 0001:000188c0       ?GetWindowClassName@CSkinFrame@@UBEPB_WXZ 004198c0 f i MainWnd.obj
 0001:000188e0       ?HandleMessage@CSkinFrame@@UAEJIIJ@Z 004198e0 f i MainWnd.obj
 0001:00018c20       ?HideUI@CWebBrowserEventHandler@DuiLib@@UAGJPAVCWebBrowserUI@2@@Z 00419c20 f i MainWnd.obj
 0001:00018c30       ?Init@CSkinFrame@@QAEXXZ   00419c30 f i MainWnd.obj
 0001:00018de0       ?MessageBoxW@CMsgWnd@@SAHPAUHWND__@@PB_W1@Z 00419de0 f i MainWnd.obj
 0001:00018f30       ?NavigateComplete2@CWebBrowserEventHandler@DuiLib@@UAEXPAVCWebBrowserUI@2@PAUIDispatch@@AAPAUtagVARIANT@@@Z 00419f30 f i MainWnd.obj
 0001:00018f50       ?NavigateError@CWebBrowserEventHandler@DuiLib@@UAEXPAVCWebBrowserUI@2@PAUIDispatch@@AAPAUtagVARIANT@@22AAPAF@Z 00419f50 f i MainWnd.obj
 0001:00018f70       ?NewWindow3@CWebBrowserEventHandler@DuiLib@@UAEXPAVCWebBrowserUI@2@PAPAUIDispatch@@AAPAFKPA_W3@Z 00419f70 f i MainWnd.obj
 0001:00018f90       ?Notify@?$ObserverImpl@HUSkinChangedParam@@@@UAEHUSkinChangedParam@@@Z 00419f90 f i MainWnd.obj
 0001:00019120       ?Notify@CSkinFrame@@UAEXAAUtagTNotifyUI@DuiLib@@@Z 0041a120 f i MainWnd.obj
 0001:00019190       ?OnClose@CSkinFrame@@QAEJIIJAAH@Z 0041a190 f i MainWnd.obj
 0001:000191c0       ?OnCreate@CSkinFrame@@QAEJIIJAAH@Z 0041a1c0 f i MainWnd.obj
 0001:000194b0       ?OnDestroy@CSkinFrame@@QAEJIIJAAH@Z 0041a4b0 f i MainWnd.obj
 0001:000194e0       ?OnDocWindowActivate@CWebBrowserEventHandler@DuiLib@@UAGJPAVCWebBrowserUI@2@H@Z 0041a4e0 f i MainWnd.obj
 0001:000194f0       ?OnFinalMessage@CSkinFrame@@UAEXPAUHWND__@@@Z 0041a4f0 f i MainWnd.obj
 0001:00019560       ?OnFrameWindowActivate@CWebBrowserEventHandler@DuiLib@@UAGJPAVCWebBrowserUI@2@H@Z 0041a560 f i MainWnd.obj
 0001:00019570       ?OnKillFocus@CSkinFrame@@QAEJIIJAAH@Z 0041a570 f i MainWnd.obj
 0001:000195c0       ?OnLClick@CSkinFrame@@QAEXPAVCControlUI@DuiLib@@@Z 0041a5c0 f i MainWnd.obj
 0001:00019980       ?OnNcActivate@CSkinFrame@@QAEJIIJAAH@Z 0041a980 f i MainWnd.obj
 0001:00019a10       ?OnNcCalcSize@CSkinFrame@@QAEJIIJAAH@Z 0041aa10 f i MainWnd.obj
 0001:00019a30       ?OnNcPaint@CSkinFrame@@QAEJIIJAAH@Z 0041aa30 f i MainWnd.obj
 0001:00019a50       ?ProgressChange@CWebBrowserEventHandler@DuiLib@@UAEXPAVCWebBrowserUI@2@JJ@Z 0041aa50 f i MainWnd.obj
 0001:00019a70       ?Receive@?$ReceiverImpl@HUSkinChangedParam@@@@UAEHUSkinChangedParam@@@Z 0041aa70 f i MainWnd.obj
 0001:00019ac0       ?Release@Data_t@_bstr_t@@QAEKXZ 0041aac0 f i MainWnd.obj
 0001:00019b50       ?RemoveObserver@?$ReceiverImpl@HUSkinChangedParam@@@@UAEXXZ 0041ab50 f i MainWnd.obj
 0001:00019cb0       ?RemoveReceiver@?$ObserverImpl@HUSkinChangedParam@@@@UAEXPAV?$ReceiverImplBase@HUSkinChangedParam@@@@@Z 0041acb0 f i MainWnd.obj
 0001:00019e40       ?ResizeBorder@CWebBrowserEventHandler@DuiLib@@UAGJPAVCWebBrowserUI@2@PBUtagRECT@@PAUIOleInPlaceUIWindow@@H@Z 0041ae40 f i MainWnd.obj
 0001:00019e50       ?Respond@?$ReceiverImpl@HUSkinChangedParam@@@@UAEHUSkinChangedParam@@PAV?$ObserverImplBase@HUSkinChangedParam@@@@@Z 0041ae50 f i MainWnd.obj
 0001:00019ea0       ?ShowContextMenu@CWebBrowserEventHandler@DuiLib@@UAGJPAVCWebBrowserUI@2@KPAUtagPOINT@@PAUIUnknown@@PAUIDispatch@@@Z 0041aea0 f i MainWnd.obj
 0001:00019eb0       ?ShowUI@CWebBrowserEventHandler@DuiLib@@UAGJPAVCWebBrowserUI@2@KPAUIOleInPlaceActiveObject@@PAUIOleCommandTarget@@PAUIOleInPlaceFrame@@PAUIOleInPlaceUIWindow@@@Z 0041aeb0 f i MainWnd.obj
 0001:00019ec0       ?TitleChange@CWebBrowserEventHandler@DuiLib@@UAEXPAVCWebBrowserUI@2@PA_W@Z 0041aec0 f i MainWnd.obj
 0001:00019ee0       ?TranslateAcceleratorW@CWebBrowserEventHandler@DuiLib@@UAGJPAVCWebBrowserUI@2@PAUtagMSG@@PBU_GUID@@K@Z 0041aee0 f i MainWnd.obj
 0001:00019ef0       ?TranslateUrl@CWebBrowserEventHandler@DuiLib@@UAGJPAVCWebBrowserUI@2@KPA_WPAPA_W@Z 0041aef0 f i MainWnd.obj
 0001:00019f00       ?UpdateUI@CWebBrowserEventHandler@DuiLib@@UAGJPAVCWebBrowserUI@2@@Z 0041af00 f i MainWnd.obj
 0001:00019f10       ?_Alloc_proxy@?$_Tree_comp_alloc@V?$_Tmap_traits@HPAV?$ObserverImplBase@HUSkinChangedParam@@@@U?$less@H@std@@V?$allocator@U?$pair@$$CBHPAV?$ObserverImplBase@HUSkinChangedParam@@@@@std@@@3@$0A@@std@@@std@@QAEXXZ 0041af10 f i MainWnd.obj
 0001:0001a020       ?_Alloc_proxy@?$_Tree_comp_alloc@V?$_Tmap_traits@HPAV?$ReceiverImplBase@HUSkinChangedParam@@@@U?$less@H@std@@V?$allocator@U?$pair@$$CBHPAV?$ReceiverImplBase@HUSkinChangedParam@@@@@std@@@3@$0A@@std@@@std@@QAEXXZ 0041b020 f i MainWnd.obj
 0001:0001a130       ?_Buyheadnode@?$_Tree_comp_alloc@V?$_Tmap_traits@HPAV?$ObserverImplBase@HUSkinChangedParam@@@@U?$less@H@std@@V?$allocator@U?$pair@$$CBHPAV?$ObserverImplBase@HUSkinChangedParam@@@@@std@@@3@$0A@@std@@@std@@QAEPAU?$_Tree_node@U?$pair@$$CBHPAV?$ObserverImplBase@HUSkinChangedParam@@@@@std@@PAX@2@XZ 0041b130 f i MainWnd.obj
 0001:0001a2d0       ?_Buyheadnode@?$_Tree_comp_alloc@V?$_Tmap_traits@HPAV?$ReceiverImplBase@HUSkinChangedParam@@@@U?$less@H@std@@V?$allocator@U?$pair@$$CBHPAV?$ReceiverImplBase@HUSkinChangedParam@@@@@std@@@3@$0A@@std@@@std@@QAEPAU?$_Tree_node@U?$pair@$$CBHPAV?$ReceiverImplBase@HUSkinChangedParam@@@@@std@@PAX@2@XZ 0041b2d0 f i MainWnd.obj
 0001:0001a470       ?_Buynode0@?$_Tree_comp_alloc@V?$_Tmap_traits@HPAV?$ObserverImplBase@HUSkinChangedParam@@@@U?$less@H@std@@V?$allocator@U?$pair@$$CBHPAV?$ObserverImplBase@HUSkinChangedParam@@@@@std@@@3@$0A@@std@@@std@@QAEPAU?$_Tree_node@U?$pair@$$CBHPAV?$ObserverImplBase@HUSkinChangedParam@@@@@std@@PAX@2@XZ 0041b470 f i MainWnd.obj
 0001:0001a5e0       ?_Buynode0@?$_Tree_comp_alloc@V?$_Tmap_traits@HPAV?$ReceiverImplBase@HUSkinChangedParam@@@@U?$less@H@std@@V?$allocator@U?$pair@$$CBHPAV?$ReceiverImplBase@HUSkinChangedParam@@@@@std@@@3@$0A@@std@@@std@@QAEPAU?$_Tree_node@U?$pair@$$CBHPAV?$ReceiverImplBase@HUSkinChangedParam@@@@@std@@PAX@2@XZ 0041b5e0 f i MainWnd.obj
 0001:0001a750       ?_Compare@?$_Tree@V?$_Tmap_traits@HPAV?$ObserverImplBase@HUSkinChangedParam@@@@U?$less@H@std@@V?$allocator@U?$pair@$$CBHPAV?$ObserverImplBase@HUSkinChangedParam@@@@@std@@@3@$0A@@std@@@std@@IBE_NABH0@Z 0041b750 f i MainWnd.obj
 0001:0001a7b0       ?_Compare@?$_Tree@V?$_Tmap_traits@HPAV?$ReceiverImplBase@HUSkinChangedParam@@@@U?$less@H@std@@V?$allocator@U?$pair@$$CBHPAV?$ReceiverImplBase@HUSkinChangedParam@@@@@std@@@3@$0A@@std@@@std@@IBE_NABH0@Z 0041b7b0 f i MainWnd.obj
 0001:0001a810       ?_Construct@?$_Tree_comp_alloc@V?$_Tmap_traits@HPAV?$ObserverImplBase@HUSkinChangedParam@@@@U?$less@H@std@@V?$allocator@U?$pair@$$CBHPAV?$ObserverImplBase@HUSkinChangedParam@@@@@std@@@3@$0A@@std@@@std@@QAEXXZ 0041b810 f i MainWnd.obj
 0001:0001a8e0       ?_Construct@?$_Tree_comp_alloc@V?$_Tmap_traits@HPAV?$ReceiverImplBase@HUSkinChangedParam@@@@U?$less@H@std@@V?$allocator@U?$pair@$$CBHPAV?$ReceiverImplBase@HUSkinChangedParam@@@@@std@@@3@$0A@@std@@@std@@QAEXXZ 0041b8e0 f i MainWnd.obj
 0001:0001a9b0       ?_Destroy_if_not_nil@?$_Tree@V?$_Tmap_traits@HPAV?$ObserverImplBase@HUSkinChangedParam@@@@U?$less@H@std@@V?$allocator@U?$pair@$$CBHPAV?$ObserverImplBase@HUSkinChangedParam@@@@@std@@@3@$0A@@std@@@std@@IAEXPAU?$_Tree_node@U?$pair@$$CBHPAV?$ObserverImplBase@HUSkinChangedParam@@@@@std@@PAX@2@@Z 0041b9b0 f i MainWnd.obj
 0001:0001aa30       ?_Destroy_if_not_nil@?$_Tree@V?$_Tmap_traits@HPAV?$ReceiverImplBase@HUSkinChangedParam@@@@U?$less@H@std@@V?$allocator@U?$pair@$$CBHPAV?$ReceiverImplBase@HUSkinChangedParam@@@@@std@@@3@$0A@@std@@@std@@IAEXPAU?$_Tree_node@U?$pair@$$CBHPAV?$ReceiverImplBase@HUSkinChangedParam@@@@@std@@PAX@2@@Z 0041ba30 f i MainWnd.obj
 0001:0001aab0       ?_Erase@?$_Tree@V?$_Tmap_traits@HPAV?$ObserverImplBase@HUSkinChangedParam@@@@U?$less@H@std@@V?$allocator@U?$pair@$$CBHPAV?$ObserverImplBase@HUSkinChangedParam@@@@@std@@@3@$0A@@std@@@std@@IAEXPAU?$_Tree_node@U?$pair@$$CBHPAV?$ObserverImplBase@HUSkinChangedParam@@@@@std@@PAX@2@@Z 0041bab0 f i MainWnd.obj
 0001:0001ab70       ?_Erase@?$_Tree@V?$_Tmap_traits@HPAV?$ReceiverImplBase@HUSkinChangedParam@@@@U?$less@H@std@@V?$allocator@U?$pair@$$CBHPAV?$ReceiverImplBase@HUSkinChangedParam@@@@@std@@@3@$0A@@std@@@std@@IAEXPAU?$_Tree_node@U?$pair@$$CBHPAV?$ReceiverImplBase@HUSkinChangedParam@@@@@std@@PAX@2@@Z 0041bb70 f i MainWnd.obj
 0001:0001ac30       ?_Free@Data_t@_bstr_t@@AAEXXZ 0041bc30 f i MainWnd.obj
 0001:0001acd0       ?_Free@_bstr_t@@AAEXXZ     0041bcd0 f i MainWnd.obj
 0001:0001ad20       ?_Free_proxy@?$_Tree_comp_alloc@V?$_Tmap_traits@HPAV?$ObserverImplBase@HUSkinChangedParam@@@@U?$less@H@std@@V?$allocator@U?$pair@$$CBHPAV?$ObserverImplBase@HUSkinChangedParam@@@@@std@@@3@$0A@@std@@@std@@QAEXXZ 0041bd20 f i MainWnd.obj
 0001:0001ae10       ?_Free_proxy@?$_Tree_comp_alloc@V?$_Tmap_traits@HPAV?$ReceiverImplBase@HUSkinChangedParam@@@@U?$less@H@std@@V?$allocator@U?$pair@$$CBHPAV?$ReceiverImplBase@HUSkinChangedParam@@@@@std@@@3@$0A@@std@@@std@@QAEXXZ 0041be10 f i MainWnd.obj
 0001:0001af00       ?_Freeheadnode@?$_Tree_comp_alloc@V?$_Tmap_traits@HPAV?$ObserverImplBase@HUSkinChangedParam@@@@U?$less@H@std@@V?$allocator@U?$pair@$$CBHPAV?$ObserverImplBase@HUSkinChangedParam@@@@@std@@@3@$0A@@std@@@std@@QAEXPAU?$_Tree_node@U?$pair@$$CBHPAV?$ObserverImplBase@HUSkinChangedParam@@@@@std@@PAX@2@@Z 0041bf00 f i MainWnd.obj
 0001:0001afc0       ?_Freeheadnode@?$_Tree_comp_alloc@V?$_Tmap_traits@HPAV?$ReceiverImplBase@HUSkinChangedParam@@@@U?$less@H@std@@V?$allocator@U?$pair@$$CBHPAV?$ReceiverImplBase@HUSkinChangedParam@@@@@std@@@3@$0A@@std@@@std@@QAEXPAU?$_Tree_node@U?$pair@$$CBHPAV?$ReceiverImplBase@HUSkinChangedParam@@@@@std@@PAX@2@@Z 0041bfc0 f i MainWnd.obj
 0001:0001b080       ?_Freenode0@?$_Tree_comp_alloc@V?$_Tmap_traits@HPAV?$ObserverImplBase@HUSkinChangedParam@@@@U?$less@H@std@@V?$allocator@U?$pair@$$CBHPAV?$ObserverImplBase@HUSkinChangedParam@@@@@std@@@3@$0A@@std@@@std@@QAEXPAU?$_Tree_node@U?$pair@$$CBHPAV?$ObserverImplBase@HUSkinChangedParam@@@@@std@@PAX@2@@Z 0041c080 f i MainWnd.obj
 0001:0001b140       ?_Freenode0@?$_Tree_comp_alloc@V?$_Tmap_traits@HPAV?$ReceiverImplBase@HUSkinChangedParam@@@@U?$less@H@std@@V?$allocator@U?$pair@$$CBHPAV?$ReceiverImplBase@HUSkinChangedParam@@@@@std@@@3@$0A@@std@@@std@@QAEXPAU?$_Tree_node@U?$pair@$$CBHPAV?$ReceiverImplBase@HUSkinChangedParam@@@@@std@@PAX@2@@Z 0041c140 f i MainWnd.obj
 0001:0001b200       ?_Get_data@?$_Tree_comp_alloc@V?$_Tmap_traits@HPAV?$ObserverImplBase@HUSkinChangedParam@@@@U?$less@H@std@@V?$allocator@U?$pair@$$CBHPAV?$ObserverImplBase@HUSkinChangedParam@@@@@std@@@3@$0A@@std@@@std@@QAEAAV?$_Tree_val@U?$_Tree_simple_types@U?$pair@$$CBHPAV?$ObserverImplBase@HUSkinChangedParam@@@@@std@@@std@@@2@XZ 0041c200 f i MainWnd.obj
 0001:0001b240       ?_Get_data@?$_Tree_comp_alloc@V?$_Tmap_traits@HPAV?$ObserverImplBase@HUSkinChangedParam@@@@U?$less@H@std@@V?$allocator@U?$pair@$$CBHPAV?$ObserverImplBase@HUSkinChangedParam@@@@@std@@@3@$0A@@std@@@std@@QBEABV?$_Tree_val@U?$_Tree_simple_types@U?$pair@$$CBHPAV?$ObserverImplBase@HUSkinChangedParam@@@@@std@@@std@@@2@XZ 0041c240 f i MainWnd.obj
 0001:0001b280       ?_Get_data@?$_Tree_comp_alloc@V?$_Tmap_traits@HPAV?$ReceiverImplBase@HUSkinChangedParam@@@@U?$less@H@std@@V?$allocator@U?$pair@$$CBHPAV?$ReceiverImplBase@HUSkinChangedParam@@@@@std@@@3@$0A@@std@@@std@@QAEAAV?$_Tree_val@U?$_Tree_simple_types@U?$pair@$$CBHPAV?$ReceiverImplBase@HUSkinChangedParam@@@@@std@@@std@@@2@XZ 0041c280 f i MainWnd.obj
 0001:0001b2c0       ?_Get_data@?$_Tree_comp_alloc@V?$_Tmap_traits@HPAV?$ReceiverImplBase@HUSkinChangedParam@@@@U?$less@H@std@@V?$allocator@U?$pair@$$CBHPAV?$ReceiverImplBase@HUSkinChangedParam@@@@@std@@@3@$0A@@std@@@std@@QBEABV?$_Tree_val@U?$_Tree_simple_types@U?$pair@$$CBHPAV?$ReceiverImplBase@HUSkinChangedParam@@@@@std@@@std@@@2@XZ 0041c2c0 f i MainWnd.obj
 0001:0001b300       ?_Get_first@?$_Compressed_pair@U?$less@H@std@@V?$_Compressed_pair@V?$allocator@U?$_Tree_node@U?$pair@$$CBHPAV?$ObserverImplBase@HUSkinChangedParam@@@@@std@@PAX@std@@@std@@V?$_Tree_val@U?$_Tree_simple_types@U?$pair@$$CBHPAV?$ObserverImplBase@HUSkinChangedParam@@@@@std@@@std@@@2@$00@2@$00@std@@QAEAAU?$less@H@2@XZ 0041c300 f i MainWnd.obj
 0001:0001b320       ?_Get_first@?$_Compressed_pair@U?$less@H@std@@V?$_Compressed_pair@V?$allocator@U?$_Tree_node@U?$pair@$$CBHPAV?$ObserverImplBase@HUSkinChangedParam@@@@@std@@PAX@std@@@std@@V?$_Tree_val@U?$_Tree_simple_types@U?$pair@$$CBHPAV?$ObserverImplBase@HUSkinChangedParam@@@@@std@@@std@@@2@$00@2@$00@std@@QBEABU?$less@H@2@XZ 0041c320 f i MainWnd.obj
 0001:0001b340       ?_Get_first@?$_Compressed_pair@U?$less@H@std@@V?$_Compressed_pair@V?$allocator@U?$_Tree_node@U?$pair@$$CBHPAV?$ReceiverImplBase@HUSkinChangedParam@@@@@std@@PAX@std@@@std@@V?$_Tree_val@U?$_Tree_simple_types@U?$pair@$$CBHPAV?$ReceiverImplBase@HUSkinChangedParam@@@@@std@@@std@@@2@$00@2@$00@std@@QAEAAU?$less@H@2@XZ 0041c340 f i MainWnd.obj
 0001:0001b360       ?_Get_first@?$_Compressed_pair@U?$less@H@std@@V?$_Compressed_pair@V?$allocator@U?$_Tree_node@U?$pair@$$CBHPAV?$ReceiverImplBase@HUSkinChangedParam@@@@@std@@PAX@std@@@std@@V?$_Tree_val@U?$_Tree_simple_types@U?$pair@$$CBHPAV?$ReceiverImplBase@HUSkinChangedParam@@@@@std@@@std@@@2@$00@2@$00@std@@QBEABU?$less@H@2@XZ 0041c360 f i MainWnd.obj
 0001:0001b380       ?_Get_first@?$_Compressed_pair@V?$allocator@U?$_Tree_node@U?$pair@$$CBHPAV?$ObserverImplBase@HUSkinChangedParam@@@@@std@@PAX@std@@@std@@V?$_Tree_val@U?$_Tree_simple_types@U?$pair@$$CBHPAV?$ObserverImplBase@HUSkinChangedParam@@@@@std@@@std@@@2@$00@std@@QAEAAV?$allocator@U?$_Tree_node@U?$pair@$$CBHPAV?$ObserverImplBase@HUSkinChangedParam@@@@@std@@PAX@std@@@2@XZ 0041c380 f i MainWnd.obj
 0001:0001b3a0       ?_Get_first@?$_Compressed_pair@V?$allocator@U?$_Tree_node@U?$pair@$$CBHPAV?$ObserverImplBase@HUSkinChangedParam@@@@@std@@PAX@std@@@std@@V?$_Tree_val@U?$_Tree_simple_types@U?$pair@$$CBHPAV?$ObserverImplBase@HUSkinChangedParam@@@@@std@@@std@@@2@$00@std@@QBEABV?$allocator@U?$_Tree_node@U?$pair@$$CBHPAV?$ObserverImplBase@HUSkinChangedParam@@@@@std@@PAX@std@@@2@XZ 0041c3a0 f i MainWnd.obj
 0001:0001b3c0       ?_Get_first@?$_Compressed_pair@V?$allocator@U?$_Tree_node@U?$pair@$$CBHPAV?$ReceiverImplBase@HUSkinChangedParam@@@@@std@@PAX@std@@@std@@V?$_Tree_val@U?$_Tree_simple_types@U?$pair@$$CBHPAV?$ReceiverImplBase@HUSkinChangedParam@@@@@std@@@std@@@2@$00@std@@QAEAAV?$allocator@U?$_Tree_node@U?$pair@$$CBHPAV?$ReceiverImplBase@HUSkinChangedParam@@@@@std@@PAX@std@@@2@XZ 0041c3c0 f i MainWnd.obj
 0001:0001b3e0       ?_Get_first@?$_Compressed_pair@V?$allocator@U?$_Tree_node@U?$pair@$$CBHPAV?$ReceiverImplBase@HUSkinChangedParam@@@@@std@@PAX@std@@@std@@V?$_Tree_val@U?$_Tree_simple_types@U?$pair@$$CBHPAV?$ReceiverImplBase@HUSkinChangedParam@@@@@std@@@std@@@2@$00@std@@QBEABV?$allocator@U?$_Tree_node@U?$pair@$$CBHPAV?$ReceiverImplBase@HUSkinChangedParam@@@@@std@@PAX@std@@@2@XZ 0041c3e0 f i MainWnd.obj
 0001:0001b400       ?_Get_second@?$_Compressed_pair@U?$less@H@std@@V?$_Compressed_pair@V?$allocator@U?$_Tree_node@U?$pair@$$CBHPAV?$ObserverImplBase@HUSkinChangedParam@@@@@std@@PAX@std@@@std@@V?$_Tree_val@U?$_Tree_simple_types@U?$pair@$$CBHPAV?$ObserverImplBase@HUSkinChangedParam@@@@@std@@@std@@@2@$00@2@$00@std@@QAEAAV?$_Compressed_pair@V?$allocator@U?$_Tree_node@U?$pair@$$CBHPAV?$ObserverImplBase@HUSkinChangedParam@@@@@std@@PAX@std@@@std@@V?$_Tree_val@U?$_Tree_simple_types@U?$pair@$$CBHPAV?$ObserverImplBase@HUSkinChangedParam@@@@@std@@@std@@@2@$00@2@XZ 0041c400 f i MainWnd.obj
 0001:0001b420       ?_Get_second@?$_Compressed_pair@U?$less@H@std@@V?$_Compressed_pair@V?$allocator@U?$_Tree_node@U?$pair@$$CBHPAV?$ObserverImplBase@HUSkinChangedParam@@@@@std@@PAX@std@@@std@@V?$_Tree_val@U?$_Tree_simple_types@U?$pair@$$CBHPAV?$ObserverImplBase@HUSkinChangedParam@@@@@std@@@std@@@2@$00@2@$00@std@@QBEABV?$_Compressed_pair@V?$allocator@U?$_Tree_node@U?$pair@$$CBHPAV?$ObserverImplBase@HUSkinChangedParam@@@@@std@@PAX@std@@@std@@V?$_Tree_val@U?$_Tree_simple_types@U?$pair@$$CBHPAV?$ObserverImplBase@HUSkinChangedParam@@@@@std@@@std@@@2@$00@2@XZ 0041c420 f i MainWnd.obj
 0001:0001b440       ?_Get_second@?$_Compressed_pair@U?$less@H@std@@V?$_Compressed_pair@V?$allocator@U?$_Tree_node@U?$pair@$$CBHPAV?$ReceiverImplBase@HUSkinChangedParam@@@@@std@@PAX@std@@@std@@V?$_Tree_val@U?$_Tree_simple_types@U?$pair@$$CBHPAV?$ReceiverImplBase@HUSkinChangedParam@@@@@std@@@std@@@2@$00@2@$00@std@@QAEAAV?$_Compressed_pair@V?$allocator@U?$_Tree_node@U?$pair@$$CBHPAV?$ReceiverImplBase@HUSkinChangedParam@@@@@std@@PAX@std@@@std@@V?$_Tree_val@U?$_Tree_simple_types@U?$pair@$$CBHPAV?$ReceiverImplBase@HUSkinChangedParam@@@@@std@@@std@@@2@$00@2@XZ 0041c440 f i MainWnd.obj
 0001:0001b460       ?_Get_second@?$_Compressed_pair@U?$less@H@std@@V?$_Compressed_pair@V?$allocator@U?$_Tree_node@U?$pair@$$CBHPAV?$ReceiverImplBase@HUSkinChangedParam@@@@@std@@PAX@std@@@std@@V?$_Tree_val@U?$_Tree_simple_types@U?$pair@$$CBHPAV?$ReceiverImplBase@HUSkinChangedParam@@@@@std@@@std@@@2@$00@2@$00@std@@QBEABV?$_Compressed_pair@V?$allocator@U?$_Tree_node@U?$pair@$$CBHPAV?$ReceiverImplBase@HUSkinChangedParam@@@@@std@@PAX@std@@@std@@V?$_Tree_val@U?$_Tree_simple_types@U?$pair@$$CBHPAV?$ReceiverImplBase@HUSkinChangedParam@@@@@std@@@std@@@2@$00@2@XZ 0041c460 f i MainWnd.obj
 0001:0001b480       ?_Get_second@?$_Compressed_pair@V?$allocator@U?$_Tree_node@U?$pair@$$CBHPAV?$ObserverImplBase@HUSkinChangedParam@@@@@std@@PAX@std@@@std@@V?$_Tree_val@U?$_Tree_simple_types@U?$pair@$$CBHPAV?$ObserverImplBase@HUSkinChangedParam@@@@@std@@@std@@@2@$00@std@@QAEAAV?$_Tree_val@U?$_Tree_simple_types@U?$pair@$$CBHPAV?$ObserverImplBase@HUSkinChangedParam@@@@@std@@@std@@@2@XZ 0041c480 f i MainWnd.obj
 0001:0001b4a0       ?_Get_second@?$_Compressed_pair@V?$allocator@U?$_Tree_node@U?$pair@$$CBHPAV?$ObserverImplBase@HUSkinChangedParam@@@@@std@@PAX@std@@@std@@V?$_Tree_val@U?$_Tree_simple_types@U?$pair@$$CBHPAV?$ObserverImplBase@HUSkinChangedParam@@@@@std@@@std@@@2@$00@std@@QBEABV?$_Tree_val@U?$_Tree_simple_types@U?$pair@$$CBHPAV?$ObserverImplBase@HUSkinChangedParam@@@@@std@@@std@@@2@XZ 0041c4a0 f i MainWnd.obj
 0001:0001b4c0       ?_Get_second@?$_Compressed_pair@V?$allocator@U?$_Tree_node@U?$pair@$$CBHPAV?$ReceiverImplBase@HUSkinChangedParam@@@@@std@@PAX@std@@@std@@V?$_Tree_val@U?$_Tree_simple_types@U?$pair@$$CBHPAV?$ReceiverImplBase@HUSkinChangedParam@@@@@std@@@std@@@2@$00@std@@QAEAAV?$_Tree_val@U?$_Tree_simple_types@U?$pair@$$CBHPAV?$ReceiverImplBase@HUSkinChangedParam@@@@@std@@@std@@@2@XZ 0041c4c0 f i MainWnd.obj
 0001:0001b4e0       ?_Get_second@?$_Compressed_pair@V?$allocator@U?$_Tree_node@U?$pair@$$CBHPAV?$ReceiverImplBase@HUSkinChangedParam@@@@@std@@PAX@std@@@std@@V?$_Tree_val@U?$_Tree_simple_types@U?$pair@$$CBHPAV?$ReceiverImplBase@HUSkinChangedParam@@@@@std@@@std@@@2@$00@std@@QBEABV?$_Tree_val@U?$_Tree_simple_types@U?$pair@$$CBHPAV?$ReceiverImplBase@HUSkinChangedParam@@@@@std@@@std@@@2@XZ 0041c4e0 f i MainWnd.obj
 0001:0001b500       ?_Getal@?$_Tree_comp_alloc@V?$_Tmap_traits@HPAV?$ObserverImplBase@HUSkinChangedParam@@@@U?$less@H@std@@V?$allocator@U?$pair@$$CBHPAV?$ObserverImplBase@HUSkinChangedParam@@@@@std@@@3@$0A@@std@@@std@@QAEAAV?$allocator@U?$_Tree_node@U?$pair@$$CBHPAV?$ObserverImplBase@HUSkinChangedParam@@@@@std@@PAX@std@@@2@XZ 0041c500 f i MainWnd.obj
 0001:0001b540       ?_Getal@?$_Tree_comp_alloc@V?$_Tmap_traits@HPAV?$ObserverImplBase@HUSkinChangedParam@@@@U?$less@H@std@@V?$allocator@U?$pair@$$CBHPAV?$ObserverImplBase@HUSkinChangedParam@@@@@std@@@3@$0A@@std@@@std@@QBEABV?$allocator@U?$_Tree_node@U?$pair@$$CBHPAV?$ObserverImplBase@HUSkinChangedParam@@@@@std@@PAX@std@@@2@XZ 0041c540 f i MainWnd.obj
 0001:0001b580       ?_Getal@?$_Tree_comp_alloc@V?$_Tmap_traits@HPAV?$ReceiverImplBase@HUSkinChangedParam@@@@U?$less@H@std@@V?$allocator@U?$pair@$$CBHPAV?$ReceiverImplBase@HUSkinChangedParam@@@@@std@@@3@$0A@@std@@@std@@QAEAAV?$allocator@U?$_Tree_node@U?$pair@$$CBHPAV?$ReceiverImplBase@HUSkinChangedParam@@@@@std@@PAX@std@@@2@XZ 0041c580 f i MainWnd.obj
 0001:0001b5c0       ?_Getal@?$_Tree_comp_alloc@V?$_Tmap_traits@HPAV?$ReceiverImplBase@HUSkinChangedParam@@@@U?$less@H@std@@V?$allocator@U?$pair@$$CBHPAV?$ReceiverImplBase@HUSkinChangedParam@@@@@std@@@3@$0A@@std@@@std@@QBEABV?$allocator@U?$_Tree_node@U?$pair@$$CBHPAV?$ReceiverImplBase@HUSkinChangedParam@@@@@std@@PAX@std@@@2@XZ 0041c5c0 f i MainWnd.obj
 0001:0001b600       ?_Getcomp@?$_Tree_comp_alloc@V?$_Tmap_traits@HPAV?$ObserverImplBase@HUSkinChangedParam@@@@U?$less@H@std@@V?$allocator@U?$pair@$$CBHPAV?$ObserverImplBase@HUSkinChangedParam@@@@@std@@@3@$0A@@std@@@std@@QAEAAU?$less@H@2@XZ 0041c600 f i MainWnd.obj
 0001:0001b630       ?_Getcomp@?$_Tree_comp_alloc@V?$_Tmap_traits@HPAV?$ObserverImplBase@HUSkinChangedParam@@@@U?$less@H@std@@V?$allocator@U?$pair@$$CBHPAV?$ObserverImplBase@HUSkinChangedParam@@@@@std@@@3@$0A@@std@@@std@@QBEABU?$less@H@2@XZ 0041c630 f i MainWnd.obj
 0001:0001b660       ?_Getcomp@?$_Tree_comp_alloc@V?$_Tmap_traits@HPAV?$ReceiverImplBase@HUSkinChangedParam@@@@U?$less@H@std@@V?$allocator@U?$pair@$$CBHPAV?$ReceiverImplBase@HUSkinChangedParam@@@@@std@@@3@$0A@@std@@@std@@QAEAAU?$less@H@2@XZ 0041c660 f i MainWnd.obj
 0001:0001b690       ?_Getcomp@?$_Tree_comp_alloc@V?$_Tmap_traits@HPAV?$ReceiverImplBase@HUSkinChangedParam@@@@U?$less@H@std@@V?$allocator@U?$pair@$$CBHPAV?$ReceiverImplBase@HUSkinChangedParam@@@@@std@@@3@$0A@@std@@@std@@QBEABU?$less@H@2@XZ 0041c690 f i MainWnd.obj
 0001:0001b6c0       ?_Getpfirst@?$_Tree_comp_alloc@V?$_Tmap_traits@HPAV?$ObserverImplBase@HUSkinChangedParam@@@@U?$less@H@std@@V?$allocator@U?$pair@$$CBHPAV?$ObserverImplBase@HUSkinChangedParam@@@@@std@@@3@$0A@@std@@@std@@QBEPAPAU_Iterator_base12@2@XZ 0041c6c0 f i MainWnd.obj
 0001:0001b700       ?_Getpfirst@?$_Tree_comp_alloc@V?$_Tmap_traits@HPAV?$ReceiverImplBase@HUSkinChangedParam@@@@U?$less@H@std@@V?$allocator@U?$pair@$$CBHPAV?$ReceiverImplBase@HUSkinChangedParam@@@@@std@@@3@$0A@@std@@@std@@QBEPAPAU_Iterator_base12@2@XZ 0041c700 f i MainWnd.obj
 0001:0001b740       ?_Key@?$_Tree@V?$_Tmap_traits@HPAV?$ObserverImplBase@HUSkinChangedParam@@@@U?$less@H@std@@V?$allocator@U?$pair@$$CBHPAV?$ObserverImplBase@HUSkinChangedParam@@@@@std@@@3@$0A@@std@@@std@@IBEABHPAU?$_Tree_node@U?$pair@$$CBHPAV?$ObserverImplBase@HUSkinChangedParam@@@@@std@@PAX@2@@Z 0041c740 f i MainWnd.obj
 0001:0001b780       ?_Key@?$_Tree@V?$_Tmap_traits@HPAV?$ReceiverImplBase@HUSkinChangedParam@@@@U?$less@H@std@@V?$allocator@U?$pair@$$CBHPAV?$ReceiverImplBase@HUSkinChangedParam@@@@@std@@@3@$0A@@std@@@std@@IBEABHPAU?$_Tree_node@U?$pair@$$CBHPAV?$ReceiverImplBase@HUSkinChangedParam@@@@@std@@PAX@2@@Z 0041c780 f i MainWnd.obj
 0001:0001b7c0       ?_Kfn@?$_Tree@V?$_Tmap_traits@HPAV?$ObserverImplBase@HUSkinChangedParam@@@@U?$less@H@std@@V?$allocator@U?$pair@$$CBHPAV?$ObserverImplBase@HUSkinChangedParam@@@@@std@@@3@$0A@@std@@@std@@IBEABHABU?$pair@$$CBHPAV?$ObserverImplBase@HUSkinChangedParam@@@@@2@@Z 0041c7c0 f i MainWnd.obj
 0001:0001b800       ?_Kfn@?$_Tree@V?$_Tmap_traits@HPAV?$ReceiverImplBase@HUSkinChangedParam@@@@U?$less@H@std@@V?$allocator@U?$pair@$$CBHPAV?$ReceiverImplBase@HUSkinChangedParam@@@@@std@@@3@$0A@@std@@@std@@IBEABHABU?$pair@$$CBHPAV?$ReceiverImplBase@HUSkinChangedParam@@@@@2@@Z 0041c800 f i MainWnd.obj
 0001:0001b840       ?_Lmost@?$_Tree@V?$_Tmap_traits@HPAV?$ObserverImplBase@HUSkinChangedParam@@@@U?$less@H@std@@V?$allocator@U?$pair@$$CBHPAV?$ObserverImplBase@HUSkinChangedParam@@@@@std@@@3@$0A@@std@@@std@@IBEAAPAU?$_Tree_node@U?$pair@$$CBHPAV?$ObserverImplBase@HUSkinChangedParam@@@@@std@@PAX@2@XZ 0041c840 f i MainWnd.obj
 0001:0001b870       ?_Lmost@?$_Tree@V?$_Tmap_traits@HPAV?$ReceiverImplBase@HUSkinChangedParam@@@@U?$less@H@std@@V?$allocator@U?$pair@$$CBHPAV?$ReceiverImplBase@HUSkinChangedParam@@@@@std@@@3@$0A@@std@@@std@@IBEAAPAU?$_Tree_node@U?$pair@$$CBHPAV?$ReceiverImplBase@HUSkinChangedParam@@@@@std@@PAX@2@XZ 0041c870 f i MainWnd.obj
 0001:0001b8a0       ?_Lrotate@?$_Tree@V?$_Tmap_traits@HPAV?$ObserverImplBase@HUSkinChangedParam@@@@U?$less@H@std@@V?$allocator@U?$pair@$$CBHPAV?$ObserverImplBase@HUSkinChangedParam@@@@@std@@@3@$0A@@std@@@std@@IAEXPAU?$_Tree_node@U?$pair@$$CBHPAV?$ObserverImplBase@HUSkinChangedParam@@@@@std@@PAX@2@@Z 0041c8a0 f i MainWnd.obj
 0001:0001b990       ?_Lrotate@?$_Tree@V?$_Tmap_traits@HPAV?$ReceiverImplBase@HUSkinChangedParam@@@@U?$less@H@std@@V?$allocator@U?$pair@$$CBHPAV?$ReceiverImplBase@HUSkinChangedParam@@@@@std@@@3@$0A@@std@@@std@@IAEXPAU?$_Tree_node@U?$pair@$$CBHPAV?$ReceiverImplBase@HUSkinChangedParam@@@@@std@@PAX@2@@Z 0041c990 f i MainWnd.obj
 0001:0001ba80       ?_Max@?$_Tree_comp_alloc@V?$_Tmap_traits@HPAV?$ObserverImplBase@HUSkinChangedParam@@@@U?$less@H@std@@V?$allocator@U?$pair@$$CBHPAV?$ObserverImplBase@HUSkinChangedParam@@@@@std@@@3@$0A@@std@@@std@@SAPAU?$_Tree_node@U?$pair@$$CBHPAV?$ObserverImplBase@HUSkinChangedParam@@@@@std@@PAX@2@PAU32@@Z 0041ca80 f i MainWnd.obj
 0001:0001baa0       ?_Max@?$_Tree_comp_alloc@V?$_Tmap_traits@HPAV?$ReceiverImplBase@HUSkinChangedParam@@@@U?$less@H@std@@V?$allocator@U?$pair@$$CBHPAV?$ReceiverImplBase@HUSkinChangedParam@@@@@std@@@3@$0A@@std@@@std@@SAPAU?$_Tree_node@U?$pair@$$CBHPAV?$ReceiverImplBase@HUSkinChangedParam@@@@@std@@PAX@2@PAU32@@Z 0041caa0 f i MainWnd.obj
 0001:0001bac0       ?_Max@?$_Tree_val@U?$_Tree_simple_types@U?$pair@$$CBHPAV?$ObserverImplBase@HUSkinChangedParam@@@@@std@@@std@@@std@@SAPAU?$_Tree_node@U?$pair@$$CBHPAV?$ObserverImplBase@HUSkinChangedParam@@@@@std@@PAX@2@PAU32@@Z 0041cac0 f i MainWnd.obj
 0001:0001baf0       ?_Max@?$_Tree_val@U?$_Tree_simple_types@U?$pair@$$CBHPAV?$ReceiverImplBase@HUSkinChangedParam@@@@@std@@@std@@@std@@SAPAU?$_Tree_node@U?$pair@$$CBHPAV?$ReceiverImplBase@HUSkinChangedParam@@@@@std@@PAX@2@PAU32@@Z 0041caf0 f i MainWnd.obj
 0001:0001bb20       ?_Min@?$_Tree_comp_alloc@V?$_Tmap_traits@HPAV?$ObserverImplBase@HUSkinChangedParam@@@@U?$less@H@std@@V?$allocator@U?$pair@$$CBHPAV?$ObserverImplBase@HUSkinChangedParam@@@@@std@@@3@$0A@@std@@@std@@SAPAU?$_Tree_node@U?$pair@$$CBHPAV?$ObserverImplBase@HUSkinChangedParam@@@@@std@@PAX@2@PAU32@@Z 0041cb20 f i MainWnd.obj
 0001:0001bb40       ?_Min@?$_Tree_comp_alloc@V?$_Tmap_traits@HPAV?$ReceiverImplBase@HUSkinChangedParam@@@@U?$less@H@std@@V?$allocator@U?$pair@$$CBHPAV?$ReceiverImplBase@HUSkinChangedParam@@@@@std@@@3@$0A@@std@@@std@@SAPAU?$_Tree_node@U?$pair@$$CBHPAV?$ReceiverImplBase@HUSkinChangedParam@@@@@std@@PAX@2@PAU32@@Z 0041cb40 f i MainWnd.obj
 0001:0001bb60       ?_Min@?$_Tree_val@U?$_Tree_simple_types@U?$pair@$$CBHPAV?$ObserverImplBase@HUSkinChangedParam@@@@@std@@@std@@@std@@SAPAU?$_Tree_node@U?$pair@$$CBHPAV?$ObserverImplBase@HUSkinChangedParam@@@@@std@@PAX@2@PAU32@@Z 0041cb60 f i MainWnd.obj
 0001:0001bb90       ?_Min@?$_Tree_val@U?$_Tree_simple_types@U?$pair@$$CBHPAV?$ReceiverImplBase@HUSkinChangedParam@@@@@std@@@std@@@std@@SAPAU?$_Tree_node@U?$pair@$$CBHPAV?$ReceiverImplBase@HUSkinChangedParam@@@@@std@@PAX@2@PAU32@@Z 0041cb90 f i MainWnd.obj
 0001:0001bbc0       ?_Myhead@?$_Tree_comp_alloc@V?$_Tmap_traits@HPAV?$ObserverImplBase@HUSkinChangedParam@@@@U?$less@H@std@@V?$allocator@U?$pair@$$CBHPAV?$ObserverImplBase@HUSkinChangedParam@@@@@std@@@3@$0A@@std@@@std@@QAEAAPAU?$_Tree_node@U?$pair@$$CBHPAV?$ObserverImplBase@HUSkinChangedParam@@@@@std@@PAX@2@XZ 0041cbc0 f i MainWnd.obj
 0001:0001bbf0       ?_Myhead@?$_Tree_comp_alloc@V?$_Tmap_traits@HPAV?$ObserverImplBase@HUSkinChangedParam@@@@U?$less@H@std@@V?$allocator@U?$pair@$$CBHPAV?$ObserverImplBase@HUSkinChangedParam@@@@@std@@@3@$0A@@std@@@std@@QBEABQAU?$_Tree_node@U?$pair@$$CBHPAV?$ObserverImplBase@HUSkinChangedParam@@@@@std@@PAX@2@XZ 0041cbf0 f i MainWnd.obj
 0001:0001bc20       ?_Myhead@?$_Tree_comp_alloc@V?$_Tmap_traits@HPAV?$ReceiverImplBase@HUSkinChangedParam@@@@U?$less@H@std@@V?$allocator@U?$pair@$$CBHPAV?$ReceiverImplBase@HUSkinChangedParam@@@@@std@@@3@$0A@@std@@@std@@QAEAAPAU?$_Tree_node@U?$pair@$$CBHPAV?$ReceiverImplBase@HUSkinChangedParam@@@@@std@@PAX@2@XZ 0041cc20 f i MainWnd.obj
 0001:0001bc50       ?_Myhead@?$_Tree_comp_alloc@V?$_Tmap_traits@HPAV?$ReceiverImplBase@HUSkinChangedParam@@@@U?$less@H@std@@V?$allocator@U?$pair@$$CBHPAV?$ReceiverImplBase@HUSkinChangedParam@@@@@std@@@3@$0A@@std@@@std@@QBEABQAU?$_Tree_node@U?$pair@$$CBHPAV?$ReceiverImplBase@HUSkinChangedParam@@@@@std@@PAX@2@XZ 0041cc50 f i MainWnd.obj
 0001:0001bc80       ?_Mynode@?$_Tree_unchecked_const_iterator@V?$_Tree_val@U?$_Tree_simple_types@U?$pair@$$CBHPAV?$ObserverImplBase@HUSkinChangedParam@@@@@std@@@std@@@std@@U_Iterator_base12@2@@std@@QBEPAU?$_Tree_node@U?$pair@$$CBHPAV?$ObserverImplBase@HUSkinChangedParam@@@@@std@@PAX@2@XZ 0041cc80 f i MainWnd.obj
 0001:0001bca0       ?_Mynode@?$_Tree_unchecked_const_iterator@V?$_Tree_val@U?$_Tree_simple_types@U?$pair@$$CBHPAV?$ReceiverImplBase@HUSkinChangedParam@@@@@std@@@std@@@std@@U_Iterator_base12@2@@std@@QBEPAU?$_Tree_node@U?$pair@$$CBHPAV?$ReceiverImplBase@HUSkinChangedParam@@@@@std@@PAX@2@XZ 0041cca0 f i MainWnd.obj
 0001:0001bcc0       ?_Myproxy@?$_Tree_comp_alloc@V?$_Tmap_traits@HPAV?$ObserverImplBase@HUSkinChangedParam@@@@U?$less@H@std@@V?$allocator@U?$pair@$$CBHPAV?$ObserverImplBase@HUSkinChangedParam@@@@@std@@@3@$0A@@std@@@std@@QAEAAPAU_Container_proxy@2@XZ 0041ccc0 f i MainWnd.obj
 0001:0001bcf0       ?_Myproxy@?$_Tree_comp_alloc@V?$_Tmap_traits@HPAV?$ReceiverImplBase@HUSkinChangedParam@@@@U?$less@H@std@@V?$allocator@U?$pair@$$CBHPAV?$ReceiverImplBase@HUSkinChangedParam@@@@@std@@@3@$0A@@std@@@std@@QAEAAPAU_Container_proxy@2@XZ 0041ccf0 f i MainWnd.obj
 0001:0001bd20       ?_Mysize@?$_Tree_comp_alloc@V?$_Tmap_traits@HPAV?$ObserverImplBase@HUSkinChangedParam@@@@U?$less@H@std@@V?$allocator@U?$pair@$$CBHPAV?$ObserverImplBase@HUSkinChangedParam@@@@@std@@@3@$0A@@std@@@std@@QAEAAIXZ 0041cd20 f i MainWnd.obj
 0001:0001bd50       ?_Mysize@?$_Tree_comp_alloc@V?$_Tmap_traits@HPAV?$ObserverImplBase@HUSkinChangedParam@@@@U?$less@H@std@@V?$allocator@U?$pair@$$CBHPAV?$ObserverImplBase@HUSkinChangedParam@@@@@std@@@3@$0A@@std@@@std@@QBEABIXZ 0041cd50 f i MainWnd.obj
 0001:0001bd80       ?_Mysize@?$_Tree_comp_alloc@V?$_Tmap_traits@HPAV?$ReceiverImplBase@HUSkinChangedParam@@@@U?$less@H@std@@V?$allocator@U?$pair@$$CBHPAV?$ReceiverImplBase@HUSkinChangedParam@@@@@std@@@3@$0A@@std@@@std@@QAEAAIXZ 0041cd80 f i MainWnd.obj
 0001:0001bdb0       ?_Mysize@?$_Tree_comp_alloc@V?$_Tmap_traits@HPAV?$ReceiverImplBase@HUSkinChangedParam@@@@U?$less@H@std@@V?$allocator@U?$pair@$$CBHPAV?$ReceiverImplBase@HUSkinChangedParam@@@@@std@@@3@$0A@@std@@@std@@QBEABIXZ 0041cdb0 f i MainWnd.obj
 0001:0001bde0       ?_Orphan_all@?$_Tree_comp_alloc@V?$_Tmap_traits@HPAV?$ObserverImplBase@HUSkinChangedParam@@@@U?$less@H@std@@V?$allocator@U?$pair@$$CBHPAV?$ObserverImplBase@HUSkinChangedParam@@@@@std@@@3@$0A@@std@@@std@@QAEXXZ 0041cde0 f i MainWnd.obj
 0001:0001be20       ?_Orphan_all@?$_Tree_comp_alloc@V?$_Tmap_traits@HPAV?$ReceiverImplBase@HUSkinChangedParam@@@@U?$less@H@std@@V?$allocator@U?$pair@$$CBHPAV?$ReceiverImplBase@HUSkinChangedParam@@@@@std@@@3@$0A@@std@@@std@@QAEXXZ 0041ce20 f i MainWnd.obj
 0001:0001be60       ?_Orphan_ptr@?$_Tree@V?$_Tmap_traits@HPAV?$ObserverImplBase@HUSkinChangedParam@@@@U?$less@H@std@@V?$allocator@U?$pair@$$CBHPAV?$ObserverImplBase@HUSkinChangedParam@@@@@std@@@3@$0A@@std@@@std@@IAEXPAU?$_Tree_node@U?$pair@$$CBHPAV?$ObserverImplBase@HUSkinChangedParam@@@@@std@@PAX@2@@Z 0041ce60 f i MainWnd.obj
 0001:0001bfd0       ?_Orphan_ptr@?$_Tree@V?$_Tmap_traits@HPAV?$ReceiverImplBase@HUSkinChangedParam@@@@U?$less@H@std@@V?$allocator@U?$pair@$$CBHPAV?$ReceiverImplBase@HUSkinChangedParam@@@@@std@@@3@$0A@@std@@@std@@IAEXPAU?$_Tree_node@U?$pair@$$CBHPAV?$ReceiverImplBase@HUSkinChangedParam@@@@@std@@PAX@2@@Z 0041cfd0 f i MainWnd.obj
 0001:0001c140       ?_Rmost@?$_Tree@V?$_Tmap_traits@HPAV?$ObserverImplBase@HUSkinChangedParam@@@@U?$less@H@std@@V?$allocator@U?$pair@$$CBHPAV?$ObserverImplBase@HUSkinChangedParam@@@@@std@@@3@$0A@@std@@@std@@IBEAAPAU?$_Tree_node@U?$pair@$$CBHPAV?$ObserverImplBase@HUSkinChangedParam@@@@@std@@PAX@2@XZ 0041d140 f i MainWnd.obj
 0001:0001c180       ?_Rmost@?$_Tree@V?$_Tmap_traits@HPAV?$ReceiverImplBase@HUSkinChangedParam@@@@U?$less@H@std@@V?$allocator@U?$pair@$$CBHPAV?$ReceiverImplBase@HUSkinChangedParam@@@@@std@@@3@$0A@@std@@@std@@IBEAAPAU?$_Tree_node@U?$pair@$$CBHPAV?$ReceiverImplBase@HUSkinChangedParam@@@@@std@@PAX@2@XZ 0041d180 f i MainWnd.obj
 0001:0001c1c0       ?_Root@?$_Tree@V?$_Tmap_traits@HPAV?$ObserverImplBase@HUSkinChangedParam@@@@U?$less@H@std@@V?$allocator@U?$pair@$$CBHPAV?$ObserverImplBase@HUSkinChangedParam@@@@@std@@@3@$0A@@std@@@std@@IBEAAPAU?$_Tree_node@U?$pair@$$CBHPAV?$ObserverImplBase@HUSkinChangedParam@@@@@std@@PAX@2@XZ 0041d1c0 f i MainWnd.obj
 0001:0001c200       ?_Root@?$_Tree@V?$_Tmap_traits@HPAV?$ReceiverImplBase@HUSkinChangedParam@@@@U?$less@H@std@@V?$allocator@U?$pair@$$CBHPAV?$ReceiverImplBase@HUSkinChangedParam@@@@@std@@@3@$0A@@std@@@std@@IBEAAPAU?$_Tree_node@U?$pair@$$CBHPAV?$ReceiverImplBase@HUSkinChangedParam@@@@@std@@PAX@2@XZ 0041d200 f i MainWnd.obj
 0001:0001c240       ?_Rrotate@?$_Tree@V?$_Tmap_traits@HPAV?$ObserverImplBase@HUSkinChangedParam@@@@U?$less@H@std@@V?$allocator@U?$pair@$$CBHPAV?$ObserverImplBase@HUSkinChangedParam@@@@@std@@@3@$0A@@std@@@std@@IAEXPAU?$_Tree_node@U?$pair@$$CBHPAV?$ObserverImplBase@HUSkinChangedParam@@@@@std@@PAX@2@@Z 0041d240 f i MainWnd.obj
 0001:0001c330       ?_Rrotate@?$_Tree@V?$_Tmap_traits@HPAV?$ReceiverImplBase@HUSkinChangedParam@@@@U?$less@H@std@@V?$allocator@U?$pair@$$CBHPAV?$ReceiverImplBase@HUSkinChangedParam@@@@@std@@@3@$0A@@std@@@std@@IAEXPAU?$_Tree_node@U?$pair@$$CBHPAV?$ReceiverImplBase@HUSkinChangedParam@@@@@std@@PAX@2@@Z 0041d330 f i MainWnd.obj
 0001:0001c420       ?_Tidy@?$_Tree@V?$_Tmap_traits@HPAV?$ObserverImplBase@HUSkinChangedParam@@@@U?$less@H@std@@V?$allocator@U?$pair@$$CBHPAV?$ObserverImplBase@HUSkinChangedParam@@@@@std@@@3@$0A@@std@@@std@@IAEXXZ 0041d420 f i MainWnd.obj
 0001:0001c540       ?_Tidy@?$_Tree@V?$_Tmap_traits@HPAV?$ReceiverImplBase@HUSkinChangedParam@@@@U?$less@H@std@@V?$allocator@U?$pair@$$CBHPAV?$ReceiverImplBase@HUSkinChangedParam@@@@@std@@@3@$0A@@std@@@std@@IAEXXZ 0041d540 f i MainWnd.obj
 0001:0001c660       ?allocate@?$allocator@U?$_Tree_node@U?$pair@$$CBHPAV?$ObserverImplBase@HUSkinChangedParam@@@@@std@@PAX@std@@@std@@QAEPAU?$_Tree_node@U?$pair@$$CBHPAV?$ObserverImplBase@HUSkinChangedParam@@@@@std@@PAX@2@I@Z 0041d660 f i MainWnd.obj
 0001:0001c6a0       ?allocate@?$allocator@U?$_Tree_node@U?$pair@$$CBHPAV?$ReceiverImplBase@HUSkinChangedParam@@@@@std@@PAX@std@@@std@@QAEPAU?$_Tree_node@U?$pair@$$CBHPAV?$ReceiverImplBase@HUSkinChangedParam@@@@@std@@PAX@2@I@Z 0041d6a0 f i MainWnd.obj
 0001:0001c6e0       ?begin@?$_Tree@V?$_Tmap_traits@HPAV?$ObserverImplBase@HUSkinChangedParam@@@@U?$less@H@std@@V?$allocator@U?$pair@$$CBHPAV?$ObserverImplBase@HUSkinChangedParam@@@@@std@@@3@$0A@@std@@@std@@QAE?AV?$_Tree_iterator@V?$_Tree_val@U?$_Tree_simple_types@U?$pair@$$CBHPAV?$ObserverImplBase@HUSkinChangedParam@@@@@std@@@std@@@std@@@2@XZ 0041d6e0 f i MainWnd.obj
 0001:0001c770       ?begin@?$_Tree@V?$_Tmap_traits@HPAV?$ReceiverImplBase@HUSkinChangedParam@@@@U?$less@H@std@@V?$allocator@U?$pair@$$CBHPAV?$ReceiverImplBase@HUSkinChangedParam@@@@@std@@@3@$0A@@std@@@std@@QAE?AV?$_Tree_iterator@V?$_Tree_val@U?$_Tree_simple_types@U?$pair@$$CBHPAV?$ReceiverImplBase@HUSkinChangedParam@@@@@std@@@std@@@std@@@2@XZ 0041d770 f i MainWnd.obj
 0001:0001c800       ?clear@?$_Tree@V?$_Tmap_traits@HPAV?$ObserverImplBase@HUSkinChangedParam@@@@U?$less@H@std@@V?$allocator@U?$pair@$$CBHPAV?$ObserverImplBase@HUSkinChangedParam@@@@@std@@@3@$0A@@std@@@std@@QAEXXZ 0041d800 f i MainWnd.obj
 0001:0001c8f0       ?clear@?$_Tree@V?$_Tmap_traits@HPAV?$ReceiverImplBase@HUSkinChangedParam@@@@U?$less@H@std@@V?$allocator@U?$pair@$$CBHPAV?$ReceiverImplBase@HUSkinChangedParam@@@@@std@@@3@$0A@@std@@@std@@QAEXXZ 0041d8f0 f i MainWnd.obj
 0001:0001c9e0       ?deallocate@?$allocator@U?$_Tree_node@U?$pair@$$CBHPAV?$ObserverImplBase@HUSkinChangedParam@@@@@std@@PAX@std@@@std@@QAEXQAU?$_Tree_node@U?$pair@$$CBHPAV?$ObserverImplBase@HUSkinChangedParam@@@@@std@@PAX@2@I@Z 0041d9e0 f i MainWnd.obj
 0001:0001ca20       ?deallocate@?$allocator@U?$_Tree_node@U?$pair@$$CBHPAV?$ReceiverImplBase@HUSkinChangedParam@@@@@std@@PAX@std@@@std@@QAEXQAU?$_Tree_node@U?$pair@$$CBHPAV?$ReceiverImplBase@HUSkinChangedParam@@@@@std@@PAX@2@I@Z 0041da20 f i MainWnd.obj
 0001:0001ca60       ?end@?$_Tree@V?$_Tmap_traits@HPAV?$ObserverImplBase@HUSkinChangedParam@@@@U?$less@H@std@@V?$allocator@U?$pair@$$CBHPAV?$ObserverImplBase@HUSkinChangedParam@@@@@std@@@3@$0A@@std@@@std@@QAE?AV?$_Tree_iterator@V?$_Tree_val@U?$_Tree_simple_types@U?$pair@$$CBHPAV?$ObserverImplBase@HUSkinChangedParam@@@@@std@@@std@@@std@@@2@XZ 0041da60 f i MainWnd.obj
 0001:0001caf0       ?end@?$_Tree@V?$_Tmap_traits@HPAV?$ReceiverImplBase@HUSkinChangedParam@@@@U?$less@H@std@@V?$allocator@U?$pair@$$CBHPAV?$ReceiverImplBase@HUSkinChangedParam@@@@@std@@@3@$0A@@std@@@std@@QAE?AV?$_Tree_iterator@V?$_Tree_val@U?$_Tree_simple_types@U?$pair@$$CBHPAV?$ReceiverImplBase@HUSkinChangedParam@@@@@std@@@std@@@std@@@2@XZ 0041daf0 f i MainWnd.obj
 0001:0001cb80       ?erase@?$_Tree@V?$_Tmap_traits@HPAV?$ObserverImplBase@HUSkinChangedParam@@@@U?$less@H@std@@V?$allocator@U?$pair@$$CBHPAV?$ObserverImplBase@HUSkinChangedParam@@@@@std@@@3@$0A@@std@@@std@@QAE?AV?$_Tree_iterator@V?$_Tree_val@U?$_Tree_simple_types@U?$pair@$$CBHPAV?$ObserverImplBase@HUSkinChangedParam@@@@@std@@@std@@@std@@@2@V?$_Tree_const_iterator@V?$_Tree_val@U?$_Tree_simple_types@U?$pair@$$CBHPAV?$ObserverImplBase@HUSkinChangedParam@@@@@std@@@std@@@std@@@2@0@Z 0041db80 f i MainWnd.obj
 0001:0001ce10       ?erase@?$_Tree@V?$_Tmap_traits@HPAV?$ObserverImplBase@HUSkinChangedParam@@@@U?$less@H@std@@V?$allocator@U?$pair@$$CBHPAV?$ObserverImplBase@HUSkinChangedParam@@@@@std@@@3@$0A@@std@@@std@@QAE?AV?$_Tree_iterator@V?$_Tree_val@U?$_Tree_simple_types@U?$pair@$$CBHPAV?$ObserverImplBase@HUSkinChangedParam@@@@@std@@@std@@@std@@@2@V?$_Tree_const_iterator@V?$_Tree_val@U?$_Tree_simple_types@U?$pair@$$CBHPAV?$ObserverImplBase@HUSkinChangedParam@@@@@std@@@std@@@std@@@2@@Z 0041de10 f i MainWnd.obj
 0001:0001d500       ?erase@?$_Tree@V?$_Tmap_traits@HPAV?$ReceiverImplBase@HUSkinChangedParam@@@@U?$less@H@std@@V?$allocator@U?$pair@$$CBHPAV?$ReceiverImplBase@HUSkinChangedParam@@@@@std@@@3@$0A@@std@@@std@@QAE?AV?$_Tree_iterator@V?$_Tree_val@U?$_Tree_simple_types@U?$pair@$$CBHPAV?$ReceiverImplBase@HUSkinChangedParam@@@@@std@@@std@@@std@@@2@V?$_Tree_const_iterator@V?$_Tree_val@U?$_Tree_simple_types@U?$pair@$$CBHPAV?$ReceiverImplBase@HUSkinChangedParam@@@@@std@@@std@@@std@@@2@0@Z 0041e500 f i MainWnd.obj
 0001:0001d790       ?erase@?$_Tree@V?$_Tmap_traits@HPAV?$ReceiverImplBase@HUSkinChangedParam@@@@U?$less@H@std@@V?$allocator@U?$pair@$$CBHPAV?$ReceiverImplBase@HUSkinChangedParam@@@@@std@@@3@$0A@@std@@@std@@QAE?AV?$_Tree_iterator@V?$_Tree_val@U?$_Tree_simple_types@U?$pair@$$CBHPAV?$ReceiverImplBase@HUSkinChangedParam@@@@@std@@@std@@@std@@@2@V?$_Tree_const_iterator@V?$_Tree_val@U?$_Tree_simple_types@U?$pair@$$CBHPAV?$ReceiverImplBase@HUSkinChangedParam@@@@@std@@@std@@@std@@@2@@Z 0041e790 f i MainWnd.obj
 0001:0001de80       ?lower_bound@?$_Tree@V?$_Tmap_traits@HPAV?$ObserverImplBase@HUSkinChangedParam@@@@U?$less@H@std@@V?$allocator@U?$pair@$$CBHPAV?$ObserverImplBase@HUSkinChangedParam@@@@@std@@@3@$0A@@std@@@std@@QAE?AV?$_Tree_iterator@V?$_Tree_val@U?$_Tree_simple_types@U?$pair@$$CBHPAV?$ObserverImplBase@HUSkinChangedParam@@@@@std@@@std@@@std@@@2@ABH@Z 0041ee80 f i MainWnd.obj
 0001:0001df00       ?lower_bound@?$_Tree@V?$_Tmap_traits@HPAV?$ReceiverImplBase@HUSkinChangedParam@@@@U?$less@H@std@@V?$allocator@U?$pair@$$CBHPAV?$ReceiverImplBase@HUSkinChangedParam@@@@@std@@@3@$0A@@std@@@std@@QAE?AV?$_Tree_iterator@V?$_Tree_val@U?$_Tree_simple_types@U?$pair@$$CBHPAV?$ReceiverImplBase@HUSkinChangedParam@@@@@std@@@std@@@std@@@2@ABH@Z 0041ef00 f i MainWnd.obj
 0001:0001df80       ?max_size@?$_Default_allocator_traits@V?$allocator@U?$_Tree_node@U?$pair@$$CBHPAV?$ObserverImplBase@HUSkinChangedParam@@@@@std@@PAX@std@@@std@@@std@@SAIABV?$allocator@U?$_Tree_node@U?$pair@$$CBHPAV?$ObserverImplBase@HUSkinChangedParam@@@@@std@@PAX@std@@@2@@Z 0041ef80 f i MainWnd.obj
 0001:0001df90       ?max_size@?$_Default_allocator_traits@V?$allocator@U?$_Tree_node@U?$pair@$$CBHPAV?$ReceiverImplBase@HUSkinChangedParam@@@@@std@@PAX@std@@@std@@@std@@SAIABV?$allocator@U?$_Tree_node@U?$pair@$$CBHPAV?$ReceiverImplBase@HUSkinChangedParam@@@@@std@@PAX@std@@@2@@Z 0041ef90 f i MainWnd.obj
 0001:0001dfa0       ?max_size@?$_Tree@V?$_Tmap_traits@HPAV?$ObserverImplBase@HUSkinChangedParam@@@@U?$less@H@std@@V?$allocator@U?$pair@$$CBHPAV?$ObserverImplBase@HUSkinChangedParam@@@@@std@@@3@$0A@@std@@@std@@QBEIXZ 0041efa0 f i MainWnd.obj
 0001:0001dfe0       ?max_size@?$_Tree@V?$_Tmap_traits@HPAV?$ReceiverImplBase@HUSkinChangedParam@@@@U?$less@H@std@@V?$allocator@U?$pair@$$CBHPAV?$ReceiverImplBase@HUSkinChangedParam@@@@@std@@@3@$0A@@std@@@std@@QBEIXZ 0041efe0 f i MainWnd.obj
 0001:0001e020       ?pointer_to@?$pointer_traits@PAU?$pair@$$CBHPAV?$ObserverImplBase@HUSkinChangedParam@@@@@std@@@std@@SAPAU?$pair@$$CBHPAV?$ObserverImplBase@HUSkinChangedParam@@@@@2@AAU32@@Z 0041f020 f i MainWnd.obj
 0001:0001e040       ?pointer_to@?$pointer_traits@PAU?$pair@$$CBHPAV?$ReceiverImplBase@HUSkinChangedParam@@@@@std@@@std@@SAPAU?$pair@$$CBHPAV?$ReceiverImplBase@HUSkinChangedParam@@@@@2@AAU32@@Z 0041f040 f i MainWnd.obj
 0001:0001e060       ?size@?$_Tree@V?$_Tmap_traits@HPAV?$ObserverImplBase@HUSkinChangedParam@@@@U?$less@H@std@@V?$allocator@U?$pair@$$CBHPAV?$ObserverImplBase@HUSkinChangedParam@@@@@std@@@3@$0A@@std@@@std@@QBEIXZ 0041f060 f i MainWnd.obj
 0001:0001e090       ?size@?$_Tree@V?$_Tmap_traits@HPAV?$ReceiverImplBase@HUSkinChangedParam@@@@U?$less@H@std@@V?$allocator@U?$pair@$$CBHPAV?$ReceiverImplBase@HUSkinChangedParam@@@@@std@@@3@$0A@@std@@@std@@QBEIXZ 0041f090 f i MainWnd.obj
 0001:0001e0c0       ??0CMsgWnd@@QAE@XZ         0041f0c0 f   MsgWnd.obj
 0001:0001e130       ??1CMsgWnd@@UAE@XZ         0041f130 f   MsgWnd.obj
 0001:0001e1a0       ?SetMsg@CMsgWnd@@QAEXPB_W@Z 0041f1a0 f   MsgWnd.obj
 0001:0001e220       ?SetTitle@CMsgWnd@@QAEXPB_W@Z 0041f220 f   MsgWnd.obj
 0001:0001e2a0       ?OnFinalMessage@CMsgWnd@@UAEXPAUHWND__@@@Z 0041f2a0 f   MsgWnd.obj
 0001:0001e320       ?GetSkinFile@CMsgWnd@@UAE?AVCDuiString@DuiLib@@XZ 0041f320 f   MsgWnd.obj
 0001:0001e380       ?GetWindowClassName@CMsgWnd@@UBEPB_WXZ 0041f380 f   MsgWnd.obj
 0001:0001e3a0       ?Notify@CMsgWnd@@UAEXAAUtagTNotifyUI@DuiLib@@@Z 0041f3a0 f   MsgWnd.obj
 0001:0001e3e0       ?InitWindow@CMsgWnd@@UAEXXZ 0041f3e0 f   MsgWnd.obj
 0001:0001e430       ?_GetBaseMessageMap@CMsgWnd@@KGPBUDUI_MSGMAP@DuiLib@@XZ 0041f430 f   MsgWnd.obj
 0001:0001e440       ?GetMessageMap@CMsgWnd@@MBEPBUDUI_MSGMAP@DuiLib@@XZ 0041f440 f   MsgWnd.obj
 0001:0001e460       ?OnClick@CMsgWnd@@MAEXAAUtagTNotifyUI@DuiLib@@@Z 0041f460 f   MsgWnd.obj
 0001:0001e730       ?OnSysCommand@CMsgWnd@@MAEJIIJAAH@Z 0041f730 f   MsgWnd.obj
 0001:0001e750       ?HandleCustomMessage@CMsgWnd@@MAEJIIJAAH@Z 0041f750 f   MsgWnd.obj
 0001:0001e91a       ??_9CMsgWnd@@$BCA@AE       0041f91a f i MsgWnd.obj
 0001:0001e920       ??_GCMsgWnd@@UAEPAXI@Z     0041f920 f i MsgWnd.obj
 0001:0001e920       ??_ECMsgWnd@@UAEPAXI@Z     0041f920 f i MsgWnd.obj
 0001:0001e980       ??0CPopWnd@@QAE@XZ         0041f980 f   PopWnd.obj
 0001:0001e9f0       ??1CPopWnd@@UAE@XZ         0041f9f0 f   PopWnd.obj
 0001:0001ea60       ?OnFinalMessage@CPopWnd@@UAEXPAUHWND__@@@Z 0041fa60 f   PopWnd.obj
 0001:0001eae0       ?GetSkinFile@CPopWnd@@UAE?AVCDuiString@DuiLib@@XZ 0041fae0 f   PopWnd.obj
 0001:0001eb40       ?GetWindowClassName@CPopWnd@@UBEPB_WXZ 0041fb40 f   PopWnd.obj
 0001:0001eb60       ?Notify@CPopWnd@@UAEXAAUtagTNotifyUI@DuiLib@@@Z 0041fb60 f   PopWnd.obj
 0001:0001eba0       ?InitWindow@CPopWnd@@UAEXXZ 0041fba0 f   PopWnd.obj
 0001:0001ec70       ?_GetBaseMessageMap@CPopWnd@@KGPBUDUI_MSGMAP@DuiLib@@XZ 0041fc70 f   PopWnd.obj
 0001:0001ec80       ?GetMessageMap@CPopWnd@@MBEPBUDUI_MSGMAP@DuiLib@@XZ 0041fc80 f   PopWnd.obj
 0001:0001eca0       ?OnClick@CPopWnd@@MAEXAAUtagTNotifyUI@DuiLib@@@Z 0041fca0 f   PopWnd.obj
 0001:0001ef50       ?OnSelectChanged@CPopWnd@@MAEXAAUtagTNotifyUI@DuiLib@@@Z 0041ff50 f   PopWnd.obj
 0001:0001f050       ?OnItemSelect@CPopWnd@@MAEXAAUtagTNotifyUI@DuiLib@@@Z 00420050 f   PopWnd.obj
 0001:0001f150       ?OnSysCommand@CPopWnd@@MAEJIIJAAH@Z 00420150 f   PopWnd.obj
 0001:0001f320       ?HandleCustomMessage@CPopWnd@@MAEJIIJAAH@Z 00420320 f   PopWnd.obj
 0001:0001f5ae       ??_9CPopWnd@@$BCA@AE       004205ae f i PopWnd.obj
 0001:0001f5b3       ??_9CPopWnd@@$BII@AE       004205b3 f i PopWnd.obj
 0001:0001f5bd       ??_9CPopWnd@@$BIM@AE       004205bd f i PopWnd.obj
 0001:0001f5d0       ??_ECPopWnd@@UAEPAXI@Z     004205d0 f i PopWnd.obj
 0001:0001f5d0       ??_GCPopWnd@@UAEPAXI@Z     004205d0 f i PopWnd.obj
 0001:0001f630       ?MessageHandler@CPopWnd@@MAEJIIJAA_N@Z 00420630 f i PopWnd.obj
 0001:0001f6b2       _FreeResource@4            004206b2 f   kernel32:KERNEL32.dll
 0001:0001f6b8       _LoadResource@8            004206b8 f   kernel32:KERNEL32.dll
 0001:0001f6be       _LockResource@4            004206be f   kernel32:KERNEL32.dll
 0001:0001f6c4       _SizeofResource@8          004206c4 f   kernel32:KERNEL32.dll
 0001:0001f6ca       _FindResourceW@12          004206ca f   kernel32:KERNEL32.dll
 0001:0001f6d0       _lstrcmpiW@8               004206d0 f   kernel32:KERNEL32.dll
 0001:0001f6d6       _lstrlenW@4                004206d6 f   kernel32:KERNEL32.dll
 0001:0001f6dc       _IsWindow@4                004206dc f   user32:USER32.dll
 0001:0001f6e2       _IsChild@8                 004206e2 f   user32:USER32.dll
 0001:0001f6e8       _ShowWindow@8              004206e8 f   user32:USER32.dll
 0001:0001f6ee       _SetWindowPos@28           004206ee f   user32:USER32.dll
 0001:0001f6f4       _GetWindowRect@8           004206f4 f   user32:USER32.dll
 0001:0001f6fa       _IntersectRect@12          004206fa f   user32:USER32.dll
 0001:0001f700       _OffsetRect@12             00420700 f   user32:USER32.dll
 0001:0001f706       _PostQuitMessage@4         00420706 f   user32:USER32.dll
 0001:0001f70c       _DestroyWindow@4           0042070c f   user32:USER32.dll
 0001:0001f712       _IsWindowVisible@4         00420712 f   user32:USER32.dll
 0001:0001f718       _IsIconic@4                00420718 f   user32:USER32.dll
 0001:0001f71e       _InvalidateRect@12         0042071e f   user32:USER32.dll
 0001:0001f724       _MessageBoxW@16            00420724 f   user32:USER32.dll
 0001:0001f72a       _GetCursorPos@4            0042072a f   user32:USER32.dll
 0001:0001f730       _ClientToScreen@8          00420730 f   user32:USER32.dll
 0001:0001f736       _GetWindowLongW@8          00420736 f   user32:USER32.dll
 0001:0001f73c       _SetWindowLongW@12         0042073c f   user32:USER32.dll
 0001:0001f742       _IsZoomed@4                00420742 f   user32:USER32.dll
 0001:0001f748       _SHGetFolderPathW@20       00420748 f   shell32:SHELL32.dll
 0001:0001f74e       _ShellExecuteW@24          0042074e f   shell32:SHELL32.dll
 0001:0001f754       _OleInitialize@4           00420754 f   ole32:ole32.dll
 0001:0001f75a       _OleUninitialize@0         0042075a f   ole32:ole32.dll
 0001:0001f760       _CoUninitialize@0          00420760 f   ole32:ole32.dll
 0001:0001f766       _CoInitialize@4            00420766 f   ole32:ole32.dll
 0001:0001f76c       _SysAllocString@4          0042076c f   oleaut32:OLEAUT32.dll
 0001:0001f772       _SysFreeString@4           00420772 f   oleaut32:OLEAUT32.dll
 0001:0001f778       ??0CDuiString@DuiLib@@QAE@XZ 00420778 f   DuiLib_d:DuiLib_d.dll
 0001:0001f77e       ??0CDuiString@DuiLib@@QAE@ABV01@@Z 0042077e f   DuiLib_d:DuiLib_d.dll
 0001:0001f784       ??0CDuiString@DuiLib@@QAE@PB_WH@Z 00420784 f   DuiLib_d:DuiLib_d.dll
 0001:0001f78a       ??1CDuiString@DuiLib@@QAE@XZ 0042078a f   DuiLib_d:DuiLib_d.dll
 0001:0001f790       ?Empty@CDuiString@DuiLib@@QAEXXZ 00420790 f   DuiLib_d:DuiLib_d.dll
 0001:0001f796       ?IsEmpty@CDuiString@DuiLib@@QBE_NXZ 00420796 f   DuiLib_d:DuiLib_d.dll
 0001:0001f79c       ??BCDuiString@DuiLib@@QBEPB_WXZ 0042079c f   DuiLib_d:DuiLib_d.dll
 0001:0001f7a2       ??4CDuiString@DuiLib@@QAEABV01@ABV01@@Z 004207a2 f   DuiLib_d:DuiLib_d.dll
 0001:0001f7a8       ??4CDuiString@DuiLib@@QAEABV01@PB_W@Z 004207a8 f   DuiLib_d:DuiLib_d.dll
 0001:0001f7ae       ?GetPaintWindow@CPaintManagerUI@DuiLib@@QBEPAUHWND__@@XZ 004207ae f   DuiLib_d:DuiLib_d.dll
 0001:0001f7b4       ??0CControlUI@DuiLib@@QAE@XZ 004207b4 f   DuiLib_d:DuiLib_d.dll
 0001:0001f7ba       ??1CControlUI@DuiLib@@UAE@XZ 004207ba f   DuiLib_d:DuiLib_d.dll
 0001:0001f7c0       ?SetPos@CControlUI@DuiLib@@UAEXUtagRECT@@_N@Z 004207c0 f   DuiLib_d:DuiLib_d.dll
 0001:0001f7c6       ?SetVisible@CControlUI@DuiLib@@UAEX_N@Z 004207c6 f   DuiLib_d:DuiLib_d.dll
 0001:0001f7cc       ?SetInternVisible@CControlUI@DuiLib@@UAEX_N@Z 004207cc f   DuiLib_d:DuiLib_d.dll
 0001:0001f7d2       ?SetAttribute@CControlUI@DuiLib@@UAEXPB_W0@Z 004207d2 f   DuiLib_d:DuiLib_d.dll
 0001:0001f7d8       ?DoPaint@CControlUI@DuiLib@@UAEXPAUHDC__@@ABUtagRECT@@@Z 004207d8 f   DuiLib_d:DuiLib_d.dll
 0001:0001f7de       ?DrawImageString@CRenderEngine@DuiLib@@SA_NPAUHDC__@@PAVCPaintManagerUI@2@ABUtagRECT@@2PB_W3PAUHINSTANCE__@@@Z 004207de f   DuiLib_d:DuiLib_d.dll
 0001:0001f7e4       ?DrawTextW@CRenderEngine@DuiLib@@SAXPAUHDC__@@PAVCPaintManagerUI@2@AAUtagRECT@@PB_WKHI@Z 004207e4 f   DuiLib_d:DuiLib_d.dll
 0001:0001f7ea       ?DrawHtmlText@CRenderEngine@DuiLib@@SAXPAUHDC__@@PAVCPaintManagerUI@2@AAUtagRECT@@PB_WKPAU5@PAVCDuiString@2@AAHI@Z 004207ea f   DuiLib_d:DuiLib_d.dll
 0001:0001f7f0       ??0CComboUI@DuiLib@@QAE@XZ 004207f0 f   DuiLib_d:DuiLib_d.dll
 0001:0001f7f6       ?DoEvent@CComboUI@DuiLib@@UAEXAAUtagTEventUI@2@@Z 004207f6 f   DuiLib_d:DuiLib_d.dll
 0001:0001f7fc       ??1CComboUI@DuiLib@@UAE@XZ 004207fc f   DuiLib_d:DuiLib_d.dll
 0001:0001f802       ??0CProgressUI@DuiLib@@QAE@XZ 00420802 f   DuiLib_d:DuiLib_d.dll
 0001:0001f808       ??1CProgressUI@DuiLib@@UAE@XZ 00420808 f   DuiLib_d:DuiLib_d.dll
 0001:0001f80e       ?Activate@CComboUI@DuiLib@@UAE_NXZ 0042080e f   DuiLib_d:DuiLib_d.dll
 0001:0001f814       ?Activate@CControlUI@DuiLib@@UAE_NXZ 00420814 f   DuiLib_d:DuiLib_d.dll
 0001:0001f81a       ?Add@CComboUI@DuiLib@@UAE_NPAVCControlUI@2@@Z 0042081a f   DuiLib_d:DuiLib_d.dll
 0001:0001f820       ?AddAt@CComboUI@DuiLib@@UAE_NPAVCControlUI@2@H@Z 00420820 f   DuiLib_d:DuiLib_d.dll
 0001:0001f826       ?DoEvent@CControlUI@DuiLib@@UAEXAAUtagTEventUI@2@@Z 00420826 f   DuiLib_d:DuiLib_d.dll
 0001:0001f82c       ?DoEvent@CLabelUI@DuiLib@@UAEXAAUtagTEventUI@2@@Z 0042082c f   DuiLib_d:DuiLib_d.dll
 0001:0001f832       ?DoInit@CComboUI@DuiLib@@UAEXXZ 00420832 f   DuiLib_d:DuiLib_d.dll
 0001:0001f838       ?DoInit@CControlUI@DuiLib@@UAEXXZ 00420838 f   DuiLib_d:DuiLib_d.dll
 0001:0001f83e       ?DoPaint@CComboUI@DuiLib@@UAEXPAUHDC__@@ABUtagRECT@@@Z 0042083e f   DuiLib_d:DuiLib_d.dll
 0001:0001f844       ?DoPostPaint@CControlUI@DuiLib@@UAEXPAUHDC__@@ABUtagRECT@@@Z 00420844 f   DuiLib_d:DuiLib_d.dll
 0001:0001f84a       ?EnableScrollBar@CContainerUI@DuiLib@@UAEX_N0@Z 0042084a f   DuiLib_d:DuiLib_d.dll
 0001:0001f850       ?EndDown@CContainerUI@DuiLib@@UAEXXZ 00420850 f   DuiLib_d:DuiLib_d.dll
 0001:0001f856       ?EndRight@CContainerUI@DuiLib@@UAEXXZ 00420856 f   DuiLib_d:DuiLib_d.dll
 0001:0001f85c       ?EstimateSize@CComboUI@DuiLib@@UAE?AUtagSIZE@@U3@@Z 0042085c f   DuiLib_d:DuiLib_d.dll
 0001:0001f862       ?EstimateSize@CControlUI@DuiLib@@UAE?AUtagSIZE@@U3@@Z 00420862 f   DuiLib_d:DuiLib_d.dll
 0001:0001f868       ?EstimateSize@CLabelUI@DuiLib@@UAE?AUtagSIZE@@U3@@Z 00420868 f   DuiLib_d:DuiLib_d.dll
 0001:0001f86e       ?Event@CControlUI@DuiLib@@UAEXAAUtagTEventUI@2@@Z 0042086e f   DuiLib_d:DuiLib_d.dll
 0001:0001f874       ?FindControl@CContainerUI@DuiLib@@UAEPAVCControlUI@2@P6GPAV32@PAV32@PAX@Z1I@Z 00420874 f   DuiLib_d:DuiLib_d.dll
 0001:0001f87a       ?FindControl@CControlUI@DuiLib@@UAEPAV12@P6GPAV12@PAV12@PAX@Z1I@Z 0042087a f   DuiLib_d:DuiLib_d.dll
 0001:0001f880       ?FindSelectable@CContainerUI@DuiLib@@UBEHH_N@Z 00420880 f   DuiLib_d:DuiLib_d.dll
 0001:0001f886       ?GetAutoCalcWidth@CLabelUI@DuiLib@@UBE_NXZ 00420886 f   DuiLib_d:DuiLib_d.dll
 0001:0001f88c       ?GetChildAlign@CContainerUI@DuiLib@@UBEIXZ 0042088c f   DuiLib_d:DuiLib_d.dll
 0001:0001f892       ?GetChildPadding@CContainerUI@DuiLib@@UBEHXZ 00420892 f   DuiLib_d:DuiLib_d.dll
 0001:0001f898       ?GetChildVAlign@CContainerUI@DuiLib@@UBEIXZ 00420898 f   DuiLib_d:DuiLib_d.dll
 0001:0001f89e       ?GetClass@CControlUI@DuiLib@@UBEPB_WXZ 0042089e f   DuiLib_d:DuiLib_d.dll
 0001:0001f8a4       ?GetClientPos@CContainerUI@DuiLib@@UBE?AUtagRECT@@XZ 004208a4 f   DuiLib_d:DuiLib_d.dll
 0001:0001f8aa       ?GetClientPos@CControlUI@DuiLib@@UBE?AUtagRECT@@XZ 004208aa f   DuiLib_d:DuiLib_d.dll
 0001:0001f8b0       ?GetControlFlags@CComboUI@DuiLib@@UBEIXZ 004208b0 f   DuiLib_d:DuiLib_d.dll
 0001:0001f8b6       ?GetControlFlags@CControlUI@DuiLib@@UBEIXZ 004208b6 f   DuiLib_d:DuiLib_d.dll
 0001:0001f8bc       ?GetControlFlags@CLabelUI@DuiLib@@UBEIXZ 004208bc f   DuiLib_d:DuiLib_d.dll
 0001:0001f8c2       ?GetCount@CContainerUI@DuiLib@@UBEHXZ 004208c2 f   DuiLib_d:DuiLib_d.dll
 0001:0001f8c8       ?GetCurSel@CComboUI@DuiLib@@UBEHXZ 004208c8 f   DuiLib_d:DuiLib_d.dll
 0001:0001f8ce       ?GetCursor@CControlUI@DuiLib@@UAEGXZ 004208ce f   DuiLib_d:DuiLib_d.dll
 0001:0001f8d4       ?GetFixedHeight@CControlUI@DuiLib@@UBEHXZ 004208d4 f   DuiLib_d:DuiLib_d.dll
 0001:0001f8da       ?GetFixedWidth@CControlUI@DuiLib@@UBEHXZ 004208da f   DuiLib_d:DuiLib_d.dll
 0001:0001f8e0       ?GetFixedXY@CControlUI@DuiLib@@UBE?AUtagSIZE@@XZ 004208e0 f   DuiLib_d:DuiLib_d.dll
 0001:0001f8e6       ?GetFloatAlign@CControlUI@DuiLib@@UBEIXZ 004208e6 f   DuiLib_d:DuiLib_d.dll
 0001:0001f8ec       ?GetFloatPercent@CControlUI@DuiLib@@UBE?AUtagTPercentInfo@2@XZ 004208ec f   DuiLib_d:DuiLib_d.dll
 0001:0001f8f2       ?GetHeight@CControlUI@DuiLib@@UBEHXZ 004208f2 f   DuiLib_d:DuiLib_d.dll
 0001:0001f8f8       ?GetHorizontalScrollBar@CContainerUI@DuiLib@@UBEPAVCScrollBarUI@2@XZ 004208f8 f   DuiLib_d:DuiLib_d.dll
 0001:0001f8fe       ?GetInset@CContainerUI@DuiLib@@UBE?AUtagRECT@@XZ 004208fe f   DuiLib_d:DuiLib_d.dll
 0001:0001f904       ?GetInterface@CComboUI@DuiLib@@UAEPAXPB_W@Z 00420904 f   DuiLib_d:DuiLib_d.dll
 0001:0001f90a       ?GetInterface@CControlUI@DuiLib@@UAEPAXPB_W@Z 0042090a f   DuiLib_d:DuiLib_d.dll
 0001:0001f910       ?GetInterface@CProgressUI@DuiLib@@UAEPAXPB_W@Z 00420910 f   DuiLib_d:DuiLib_d.dll
 0001:0001f916       ?GetItemAt@CContainerUI@DuiLib@@UBEPAVCControlUI@2@H@Z 00420916 f   DuiLib_d:DuiLib_d.dll
 0001:0001f91c       ?GetItemIndex@CContainerUI@DuiLib@@UBEHPAVCControlUI@2@@Z 0042091c f   DuiLib_d:DuiLib_d.dll
 0001:0001f922       ?GetListInfo@CComboUI@DuiLib@@UAEPAUtagTListInfoUI@2@XZ 00420922 f   DuiLib_d:DuiLib_d.dll
 0001:0001f928       ?GetListType@CComboUI@DuiLib@@UAEIXZ 00420928 f   DuiLib_d:DuiLib_d.dll
 0001:0001f92e       ?GetManager@CControlUI@DuiLib@@UBEPAVCPaintManagerUI@2@XZ 0042092e f   DuiLib_d:DuiLib_d.dll
 0001:0001f934       ?GetMaxHeight@CControlUI@DuiLib@@UBEHXZ 00420934 f   DuiLib_d:DuiLib_d.dll
 0001:0001f93a       ?GetMaxWidth@CControlUI@DuiLib@@UBEHXZ 0042093a f   DuiLib_d:DuiLib_d.dll
 0001:0001f940       ?GetMinHeight@CControlUI@DuiLib@@UBEHXZ 00420940 f   DuiLib_d:DuiLib_d.dll
 0001:0001f946       ?GetMinWidth@CControlUI@DuiLib@@UBEHXZ 00420946 f   DuiLib_d:DuiLib_d.dll
 0001:0001f94c       ?GetName@CControlUI@DuiLib@@UBE?AVCDuiString@2@XZ 0042094c f   DuiLib_d:DuiLib_d.dll
 0001:0001f952       ?GetPadding@CControlUI@DuiLib@@UBE?AUtagRECT@@XZ 00420952 f   DuiLib_d:DuiLib_d.dll
 0001:0001f958       ?GetParent@CControlUI@DuiLib@@UBEPAV12@XZ 00420958 f   DuiLib_d:DuiLib_d.dll
 0001:0001f95e       ?GetPos@CControlUI@DuiLib@@UBEABUtagRECT@@XZ 0042095e f   DuiLib_d:DuiLib_d.dll
 0001:0001f964       ?GetRelativePos@CControlUI@DuiLib@@UBE?AUtagRECT@@XZ 00420964 f   DuiLib_d:DuiLib_d.dll
 0001:0001f96a       ?GetScrollPos@CContainerUI@DuiLib@@UBE?AUtagSIZE@@XZ 0042096a f   DuiLib_d:DuiLib_d.dll
 0001:0001f970       ?GetScrollRange@CContainerUI@DuiLib@@UBE?AUtagSIZE@@XZ 00420970 f   DuiLib_d:DuiLib_d.dll
 0001:0001f976       ?GetScrollStepSize@CContainerUI@DuiLib@@UBEHXZ 00420976 f   DuiLib_d:DuiLib_d.dll
 0001:0001f97c       ?GetShortcut@CControlUI@DuiLib@@UBE_WXZ 0042097c f   DuiLib_d:DuiLib_d.dll
 0001:0001f982       ?GetTag@CControlUI@DuiLib@@UBEIXZ 00420982 f   DuiLib_d:DuiLib_d.dll
 0001:0001f988       ?GetText@CComboUI@DuiLib@@UBE?AVCDuiString@2@XZ 00420988 f   DuiLib_d:DuiLib_d.dll
 0001:0001f98e       ?GetText@CControlUI@DuiLib@@UBE?AVCDuiString@2@XZ 0042098e f   DuiLib_d:DuiLib_d.dll
 0001:0001f994       ?GetToolTip@CControlUI@DuiLib@@UBE?AVCDuiString@2@XZ 00420994 f   DuiLib_d:DuiLib_d.dll
 0001:0001f99a       ?GetToolTipWidth@CControlUI@DuiLib@@UAEHXZ 0042099a f   DuiLib_d:DuiLib_d.dll
 0001:0001f9a0       ?GetUserData@CControlUI@DuiLib@@UAEABVCDuiString@2@XZ 004209a0 f   DuiLib_d:DuiLib_d.dll
 0001:0001f9a6       ?GetVerticalScrollBar@CContainerUI@DuiLib@@UBEPAVCScrollBarUI@2@XZ 004209a6 f   DuiLib_d:DuiLib_d.dll
 0001:0001f9ac       ?GetWidth@CControlUI@DuiLib@@UBEHXZ 004209ac f   DuiLib_d:DuiLib_d.dll
 0001:0001f9b2       ?GetX@CControlUI@DuiLib@@UBEHXZ 004209b2 f   DuiLib_d:DuiLib_d.dll
 0001:0001f9b8       ?GetY@CControlUI@DuiLib@@UBEHXZ 004209b8 f   DuiLib_d:DuiLib_d.dll
 0001:0001f9be       ?HomeLeft@CContainerUI@DuiLib@@UAEXXZ 004209be f   DuiLib_d:DuiLib_d.dll
 0001:0001f9c4       ?HomeUp@CContainerUI@DuiLib@@UAEXXZ 004209c4 f   DuiLib_d:DuiLib_d.dll
 0001:0001f9ca       ?Init@CControlUI@DuiLib@@UAEXXZ 004209ca f   DuiLib_d:DuiLib_d.dll
 0001:0001f9d0       ?IsAutoDestroy@CContainerUI@DuiLib@@UBE_NXZ 004209d0 f   DuiLib_d:DuiLib_d.dll
 0001:0001f9d6       ?IsContextMenuUsed@CControlUI@DuiLib@@UBE_NXZ 004209d6 f   DuiLib_d:DuiLib_d.dll
 0001:0001f9dc       ?IsDelayedDestroy@CContainerUI@DuiLib@@UBE_NXZ 004209dc f   DuiLib_d:DuiLib_d.dll
 0001:0001f9e2       ?IsDragEnabled@CControlUI@DuiLib@@UBE_NXZ 004209e2 f   DuiLib_d:DuiLib_d.dll
 0001:0001f9e8       ?IsDropEnabled@CControlUI@DuiLib@@UBE_NXZ 004209e8 f   DuiLib_d:DuiLib_d.dll
 0001:0001f9ee       ?IsEnabled@CControlUI@DuiLib@@UBE_NXZ 004209ee f   DuiLib_d:DuiLib_d.dll
 0001:0001f9f4       ?IsFloat@CControlUI@DuiLib@@UBE_NXZ 004209f4 f   DuiLib_d:DuiLib_d.dll
 0001:0001f9fa       ?IsFocused@CControlUI@DuiLib@@UBE_NXZ 004209fa f   DuiLib_d:DuiLib_d.dll
 0001:0001fa00       ?IsKeyboardEnabled@CControlUI@DuiLib@@UBE_NXZ 00420a00 f   DuiLib_d:DuiLib_d.dll
 0001:0001fa06       ?IsMouseChildEnabled@CContainerUI@DuiLib@@UBE_NXZ 00420a06 f   DuiLib_d:DuiLib_d.dll
 0001:0001fa0c       ?IsMouseEnabled@CControlUI@DuiLib@@UBE_NXZ 00420a0c f   DuiLib_d:DuiLib_d.dll
 0001:0001fa12       ?IsResourceText@CControlUI@DuiLib@@UBE_NXZ 00420a12 f   DuiLib_d:DuiLib_d.dll
 0001:0001fa18       ?IsVisible@CControlUI@DuiLib@@UBE_NXZ 00420a18 f   DuiLib_d:DuiLib_d.dll
 0001:0001fa1e       ?LineDown@CContainerUI@DuiLib@@UAEXXZ 00420a1e f   DuiLib_d:DuiLib_d.dll
 0001:0001fa24       ?LineLeft@CContainerUI@DuiLib@@UAEXXZ 00420a24 f   DuiLib_d:DuiLib_d.dll
 0001:0001fa2a       ?LineRight@CContainerUI@DuiLib@@UAEXXZ 00420a2a f   DuiLib_d:DuiLib_d.dll
 0001:0001fa30       ?LineUp@CContainerUI@DuiLib@@UAEXXZ 00420a30 f   DuiLib_d:DuiLib_d.dll
 0001:0001fa36       ?Move@CComboUI@DuiLib@@UAEXUtagSIZE@@_N@Z 00420a36 f   DuiLib_d:DuiLib_d.dll
 0001:0001fa3c       ?Move@CControlUI@DuiLib@@UAEXUtagSIZE@@_N@Z 00420a3c f   DuiLib_d:DuiLib_d.dll
 0001:0001fa42       ?PageDown@CContainerUI@DuiLib@@UAEXXZ 00420a42 f   DuiLib_d:DuiLib_d.dll
 0001:0001fa48       ?PageLeft@CContainerUI@DuiLib@@UAEXXZ 00420a48 f   DuiLib_d:DuiLib_d.dll
 0001:0001fa4e       ?PageRight@CContainerUI@DuiLib@@UAEXXZ 00420a4e f   DuiLib_d:DuiLib_d.dll
 0001:0001fa54       ?PageUp@CContainerUI@DuiLib@@UAEXXZ 00420a54 f   DuiLib_d:DuiLib_d.dll
 0001:0001fa5a       ?PaintBkColor@CControlUI@DuiLib@@UAEXPAUHDC__@@@Z 00420a5a f   DuiLib_d:DuiLib_d.dll
 0001:0001fa60       ?PaintBkImage@CControlUI@DuiLib@@UAEXPAUHDC__@@@Z 00420a60 f   DuiLib_d:DuiLib_d.dll
 0001:0001fa66       ?PaintBorder@CControlUI@DuiLib@@UAEXPAUHDC__@@@Z 00420a66 f   DuiLib_d:DuiLib_d.dll
 0001:0001fa6c       ?PaintForeColor@CControlUI@DuiLib@@UAEXPAUHDC__@@@Z 00420a6c f   DuiLib_d:DuiLib_d.dll
 0001:0001fa72       ?PaintForeImage@CControlUI@DuiLib@@UAEXPAUHDC__@@@Z 00420a72 f   DuiLib_d:DuiLib_d.dll
 0001:0001fa78       ?PaintStatusImage@CComboUI@DuiLib@@UAEXPAUHDC__@@@Z 00420a78 f   DuiLib_d:DuiLib_d.dll
 0001:0001fa7e       ?PaintStatusImage@CControlUI@DuiLib@@UAEXPAUHDC__@@@Z 00420a7e f   DuiLib_d:DuiLib_d.dll
 0001:0001fa84       ?PaintText@CComboUI@DuiLib@@UAEXPAUHDC__@@@Z 00420a84 f   DuiLib_d:DuiLib_d.dll
 0001:0001fa8a       ?PaintText@CControlUI@DuiLib@@UAEXPAUHDC__@@@Z 00420a8a f   DuiLib_d:DuiLib_d.dll
 0001:0001fa90       ?PaintText@CLabelUI@DuiLib@@UAEXPAUHDC__@@@Z 00420a90 f   DuiLib_d:DuiLib_d.dll
 0001:0001fa96       ?ProcessScrollBar@CContainerUI@DuiLib@@MAEXUtagRECT@@HH@Z 00420a96 f   DuiLib_d:DuiLib_d.dll
 0001:0001fa9c       ?Remove@CComboUI@DuiLib@@UAE_NPAVCControlUI@2@@Z 00420a9c f   DuiLib_d:DuiLib_d.dll
 0001:0001faa2       ?RemoveAll@CComboUI@DuiLib@@UAEXXZ 00420aa2 f   DuiLib_d:DuiLib_d.dll
 0001:0001faa8       ?RemoveAt@CComboUI@DuiLib@@UAE_NH@Z 00420aa8 f   DuiLib_d:DuiLib_d.dll
 0001:0001faae       ?SelectItem@CComboUI@DuiLib@@UAE_NH_N@Z 00420aae f   DuiLib_d:DuiLib_d.dll
 0001:0001fab4       ?SelectMultiItem@CComboUI@DuiLib@@UAE_NH_N@Z 00420ab4 f   DuiLib_d:DuiLib_d.dll
 0001:0001faba       ?SetAttribute@CComboUI@DuiLib@@UAEXPB_W0@Z 00420aba f   DuiLib_d:DuiLib_d.dll
 0001:0001fac0       ?SetAttribute@CProgressUI@DuiLib@@UAEXPB_W0@Z 00420ac0 f   DuiLib_d:DuiLib_d.dll
 0001:0001fac6       ?SetAutoCalcWidth@CLabelUI@DuiLib@@UAEX_N@Z 00420ac6 f   DuiLib_d:DuiLib_d.dll
 0001:0001facc       ?SetAutoDestroy@CContainerUI@DuiLib@@UAEX_N@Z 00420acc f   DuiLib_d:DuiLib_d.dll
 0001:0001fad2       ?SetChildAlign@CContainerUI@DuiLib@@UAEXI@Z 00420ad2 f   DuiLib_d:DuiLib_d.dll
 0001:0001fad8       ?SetChildPadding@CContainerUI@DuiLib@@UAEXH@Z 00420ad8 f   DuiLib_d:DuiLib_d.dll
 0001:0001fade       ?SetChildVAlign@CContainerUI@DuiLib@@UAEXI@Z 00420ade f   DuiLib_d:DuiLib_d.dll
 0001:0001fae4       ?SetContextMenuUsed@CControlUI@DuiLib@@UAEX_N@Z 00420ae4 f   DuiLib_d:DuiLib_d.dll
 0001:0001faea       ?SetCursor@CControlUI@DuiLib@@UAEXG@Z 00420aea f   DuiLib_d:DuiLib_d.dll
 0001:0001faf0       ?SetDelayedDestroy@CContainerUI@DuiLib@@UAEX_N@Z 00420af0 f   DuiLib_d:DuiLib_d.dll
 0001:0001faf6       ?SetDragEnable@CControlUI@DuiLib@@UAEX_N@Z 00420af6 f   DuiLib_d:DuiLib_d.dll
 0001:0001fafc       ?SetDropEnable@CControlUI@DuiLib@@UAEX_N@Z 00420afc f   DuiLib_d:DuiLib_d.dll
 0001:0001fb02       ?SetEnabled@CComboUI@DuiLib@@UAEX_N@Z 00420b02 f   DuiLib_d:DuiLib_d.dll
 0001:0001fb08       ?SetEnabled@CControlUI@DuiLib@@UAEX_N@Z 00420b08 f   DuiLib_d:DuiLib_d.dll
 0001:0001fb0e       ?SetFixedHeight@CControlUI@DuiLib@@UAEXH@Z 00420b0e f   DuiLib_d:DuiLib_d.dll
 0001:0001fb14       ?SetFixedWidth@CControlUI@DuiLib@@UAEXH@Z 00420b14 f   DuiLib_d:DuiLib_d.dll
 0001:0001fb1a       ?SetFixedXY@CControlUI@DuiLib@@UAEXUtagSIZE@@@Z 00420b1a f   DuiLib_d:DuiLib_d.dll
 0001:0001fb20       ?SetFloat@CControlUI@DuiLib@@UAEX_N@Z 00420b20 f   DuiLib_d:DuiLib_d.dll
 0001:0001fb26       ?SetFloatAlign@CControlUI@DuiLib@@UAEXI@Z 00420b26 f   DuiLib_d:DuiLib_d.dll
 0001:0001fb2c       ?SetFloatPercent@CControlUI@DuiLib@@UAEXUtagTPercentInfo@2@@Z 00420b2c f   DuiLib_d:DuiLib_d.dll
 0001:0001fb32       ?SetFloatPos@CContainerUI@DuiLib@@MAEXH@Z 00420b32 f   DuiLib_d:DuiLib_d.dll
 0001:0001fb38       ?SetFocus@CControlUI@DuiLib@@UAEXXZ 00420b38 f   DuiLib_d:DuiLib_d.dll
 0001:0001fb3e       ?SetInset@CContainerUI@DuiLib@@UAEXUtagRECT@@@Z 00420b3e f   DuiLib_d:DuiLib_d.dll
 0001:0001fb44       ?SetInternVisible@CContainerUI@DuiLib@@UAEX_N@Z 00420b44 f   DuiLib_d:DuiLib_d.dll
 0001:0001fb4a       ?SetItemIndex@CComboUI@DuiLib@@UAE_NPAVCControlUI@2@H@Z 00420b4a f   DuiLib_d:DuiLib_d.dll
 0001:0001fb50       ?SetKeyboardEnabled@CControlUI@DuiLib@@UAEX_N@Z 00420b50 f   DuiLib_d:DuiLib_d.dll
 0001:0001fb56       ?SetManager@CContainerUI@DuiLib@@UAEXPAVCPaintManagerUI@2@PAVCControlUI@2@_N@Z 00420b56 f   DuiLib_d:DuiLib_d.dll
 0001:0001fb5c       ?SetManager@CControlUI@DuiLib@@UAEXPAVCPaintManagerUI@2@PAV12@_N@Z 00420b5c f   DuiLib_d:DuiLib_d.dll
 0001:0001fb62       ?SetMaxHeight@CControlUI@DuiLib@@UAEXH@Z 00420b62 f   DuiLib_d:DuiLib_d.dll
 0001:0001fb68       ?SetMaxWidth@CControlUI@DuiLib@@UAEXH@Z 00420b68 f   DuiLib_d:DuiLib_d.dll
 0001:0001fb6e       ?SetMinHeight@CControlUI@DuiLib@@UAEXH@Z 00420b6e f   DuiLib_d:DuiLib_d.dll
 0001:0001fb74       ?SetMinWidth@CControlUI@DuiLib@@UAEXH@Z 00420b74 f   DuiLib_d:DuiLib_d.dll
 0001:0001fb7a       ?SetMouseChildEnabled@CContainerUI@DuiLib@@UAEX_N@Z 00420b7a f   DuiLib_d:DuiLib_d.dll
 0001:0001fb80       ?SetMouseEnabled@CContainerUI@DuiLib@@UAEX_N@Z 00420b80 f   DuiLib_d:DuiLib_d.dll
 0001:0001fb86       ?SetMouseEnabled@CControlUI@DuiLib@@UAEX_N@Z 00420b86 f   DuiLib_d:DuiLib_d.dll
 0001:0001fb8c       ?SetName@CControlUI@DuiLib@@UAEXPB_W@Z 00420b8c f   DuiLib_d:DuiLib_d.dll
 0001:0001fb92       ?SetPadding@CControlUI@DuiLib@@UAEXUtagRECT@@@Z 00420b92 f   DuiLib_d:DuiLib_d.dll
 0001:0001fb98       ?SetPos@CComboUI@DuiLib@@UAEXUtagRECT@@_N@Z 00420b98 f   DuiLib_d:DuiLib_d.dll
 0001:0001fb9e       ?SetResourceText@CControlUI@DuiLib@@UAEX_N@Z 00420b9e f   DuiLib_d:DuiLib_d.dll
 0001:0001fba4       ?SetScrollPos@CContainerUI@DuiLib@@UAEXUtagSIZE@@_N@Z 00420ba4 f   DuiLib_d:DuiLib_d.dll
 0001:0001fbaa       ?SetScrollStepSize@CContainerUI@DuiLib@@UAEXH@Z 00420baa f   DuiLib_d:DuiLib_d.dll
 0001:0001fbb0       ?SetShortcut@CControlUI@DuiLib@@UAEX_W@Z 00420bb0 f   DuiLib_d:DuiLib_d.dll
 0001:0001fbb6       ?SetTag@CControlUI@DuiLib@@UAEXI@Z 00420bb6 f   DuiLib_d:DuiLib_d.dll
 0001:0001fbbc       ?SetText@CControlUI@DuiLib@@UAEXPB_W@Z 00420bbc f   DuiLib_d:DuiLib_d.dll
 0001:0001fbc2       ?SetText@CLabelUI@DuiLib@@UAEXPB_W@Z 00420bc2 f   DuiLib_d:DuiLib_d.dll
 0001:0001fbc8       ?SetToolTip@CControlUI@DuiLib@@UAEXPB_W@Z 00420bc8 f   DuiLib_d:DuiLib_d.dll
 0001:0001fbce       ?SetToolTipWidth@CControlUI@DuiLib@@UAEXH@Z 00420bce f   DuiLib_d:DuiLib_d.dll
 0001:0001fbd4       ?SetUserData@CControlUI@DuiLib@@UAEXPB_W@Z 00420bd4 f   DuiLib_d:DuiLib_d.dll
 0001:0001fbda       ?SetVisible@CContainerUI@DuiLib@@UAEX_N@Z 00420bda f   DuiLib_d:DuiLib_d.dll
 0001:0001fbe0       ?UnSelectItem@CComboUI@DuiLib@@UAE_NH_N@Z 00420be0 f   DuiLib_d:DuiLib_d.dll
 0001:0001fbe6       ?UpdateText@CProgressUI@DuiLib@@UAEXXZ 00420be6 f   DuiLib_d:DuiLib_d.dll
 0001:0001fbec       ??0STRINGorID@DuiLib@@QAE@PB_W@Z 00420bec f   DuiLib_d:DuiLib_d.dll
 0001:0001fbf2       ?GetData@CDuiString@DuiLib@@QBEPB_WXZ 00420bf2 f   DuiLib_d:DuiLib_d.dll
 0001:0001fbf8       ??YCDuiString@DuiLib@@QAEABV01@PB_W@Z 00420bf8 f   DuiLib_d:DuiLib_d.dll
 0001:0001fbfe       ?GetInstance@CResourceManager@DuiLib@@SAPAV12@XZ 00420bfe f   DuiLib_d:DuiLib_d.dll
 0001:0001fc04       ?Release@CResourceManager@DuiLib@@QAEXXZ 00420c04 f   DuiLib_d:DuiLib_d.dll
 0001:0001fc0a       ?LoadResource@CResourceManager@DuiLib@@QAEHVSTRINGorID@2@PB_W@Z 00420c0a f   DuiLib_d:DuiLib_d.dll
 0001:0001fc10       ?GetInstancePath@CPaintManagerUI@DuiLib@@SA?AVCDuiString@2@XZ 00420c10 f   DuiLib_d:DuiLib_d.dll
 0001:0001fc16       ?GetResourceDll@CPaintManagerUI@DuiLib@@SAPAUHINSTANCE__@@XZ 00420c16 f   DuiLib_d:DuiLib_d.dll
 0001:0001fc1c       ?SetInstance@CPaintManagerUI@DuiLib@@SAXPAUHINSTANCE__@@@Z 00420c1c f   DuiLib_d:DuiLib_d.dll
 0001:0001fc22       ?SetResourcePath@CPaintManagerUI@DuiLib@@SAXPB_W@Z 00420c22 f   DuiLib_d:DuiLib_d.dll
 0001:0001fc28       ?SetResourceZip@CPaintManagerUI@DuiLib@@SAXPAXIPB_W@Z 00420c28 f   DuiLib_d:DuiLib_d.dll
 0001:0001fc2e       ?SetResourceZip@CPaintManagerUI@DuiLib@@SAXPB_W_N0@Z 00420c2e f   DuiLib_d:DuiLib_d.dll
 0001:0001fc34       ?SetResourceType@CPaintManagerUI@DuiLib@@SAXH@Z 00420c34 f   DuiLib_d:DuiLib_d.dll
 0001:0001fc3a       ?GetResourceType@CPaintManagerUI@DuiLib@@SAHXZ 00420c3a f   DuiLib_d:DuiLib_d.dll
 0001:0001fc40       ?MessageLoop@CPaintManagerUI@DuiLib@@SAXXZ 00420c40 f   DuiLib_d:DuiLib_d.dll
 0001:0001fc46       ?Create@CWindowWnd@DuiLib@@QAEPAUHWND__@@PAU3@PB_WKKHHHHPAUHMENU__@@@Z 00420c46 f   DuiLib_d:DuiLib_d.dll
 0001:0001fc4c       ?CenterWindow@CWindowWnd@DuiLib@@QAEXXZ 00420c4c f   DuiLib_d:DuiLib_d.dll
 0001:0001fc52       ?RegistControl@CControlFactory@DuiLib@@QAEXVCDuiString@2@P6APAVCControlUI@2@XZ@Z 00420c52 f   DuiLib_d:DuiLib_d.dll
 0001:0001fc58       ?GetInstance@CControlFactory@DuiLib@@SAPAV12@XZ 00420c58 f   DuiLib_d:DuiLib_d.dll
 0001:0001fc5e       ??0CDuiPoint@DuiLib@@QAE@XZ 00420c5e f   DuiLib_d:DuiLib_d.dll
 0001:0001fc64       ??0CDuiSize@DuiLib@@QAE@HH@Z 00420c64 f   DuiLib_d:DuiLib_d.dll
 0001:0001fc6a       ??HCDuiString@DuiLib@@QBE?AV01@PB_W@Z 00420c6a f   DuiLib_d:DuiLib_d.dll
 0001:0001fc70       ??8CDuiString@DuiLib@@QBE_NPB_W@Z 00420c70 f   DuiLib_d:DuiLib_d.dll
 0001:0001fc76       ?CompareNoCase@CDuiString@DuiLib@@QBEHPB_W@Z 00420c76 f   DuiLib_d:DuiLib_d.dll
 0001:0001fc7c       ?Format@CDuiString@DuiLib@@QAAHPB_WZZ 00420c7c f   DuiLib_d:DuiLib_d.dll
 0001:0001fc82       ??0CStdStringPtrMap@DuiLib@@QAE@H@Z 00420c82 f   DuiLib_d:DuiLib_d.dll
 0001:0001fc88       ??1CStdStringPtrMap@DuiLib@@QAE@XZ 00420c88 f   DuiLib_d:DuiLib_d.dll
 0001:0001fc8e       ??0CTrayIcon@DuiLib@@QAE@XZ 00420c8e f   DuiLib_d:DuiLib_d.dll
 0001:0001fc94       ??1CTrayIcon@DuiLib@@QAE@XZ 00420c94 f   DuiLib_d:DuiLib_d.dll
 0001:0001fc9a       ?CreateTrayIcon@CTrayIcon@DuiLib@@QAEXPAUHWND__@@IPB_WI@Z 00420c9a f   DuiLib_d:DuiLib_d.dll
 0001:0001fca0       ?DeleteTrayIcon@CTrayIcon@DuiLib@@QAEXXZ 00420ca0 f   DuiLib_d:DuiLib_d.dll
 0001:0001fca6       ?SetLanguage@CResourceManager@DuiLib@@QAEXPB_W@Z 00420ca6 f   DuiLib_d:DuiLib_d.dll
 0001:0001fcac       ?GetLanguage@CResourceManager@DuiLib@@QAEPB_WXZ 00420cac f   DuiLib_d:DuiLib_d.dll
 0001:0001fcb2       ?LoadLanguage@CResourceManager@DuiLib@@QAEHPB_W@Z 00420cb2 f   DuiLib_d:DuiLib_d.dll
 0001:0001fcb8       ?SetTextQueryInterface@CResourceManager@DuiLib@@QAEXPAVIQueryControlText@2@@Z 00420cb8 f   DuiLib_d:DuiLib_d.dll
 0001:0001fcbe       ?ReloadText@CResourceManager@DuiLib@@QAEXXZ 00420cbe f   DuiLib_d:DuiLib_d.dll
 0001:0001fcc4       ??0CPaintManagerUI@DuiLib@@QAE@XZ 00420cc4 f   DuiLib_d:DuiLib_d.dll
 0001:0001fcca       ??1CPaintManagerUI@DuiLib@@UAE@XZ 00420cca f   DuiLib_d:DuiLib_d.dll
 0001:0001fcd0       ?Init@CPaintManagerUI@DuiLib@@QAEXPAUHWND__@@PB_W@Z 00420cd0 f   DuiLib_d:DuiLib_d.dll
 0001:0001fcd6       ?NeedUpdate@CPaintManagerUI@DuiLib@@QAEXXZ 00420cd6 f   DuiLib_d:DuiLib_d.dll
 0001:0001fcdc       ?GetInitSize@CPaintManagerUI@DuiLib@@QAE?AUtagSIZE@@XZ 00420cdc f   DuiLib_d:DuiLib_d.dll
 0001:0001fce2       ?DeletePtr@CPaintManagerUI@DuiLib@@QAEXPAX@Z 00420ce2 f   DuiLib_d:DuiLib_d.dll
 0001:0001fce8       ?GetStyle@CPaintManagerUI@DuiLib@@QBEPB_WPB_W@Z 00420ce8 f   DuiLib_d:DuiLib_d.dll
 0001:0001fcee       ?AttachDialog@CPaintManagerUI@DuiLib@@QAE_NPAVCControlUI@2@@Z 00420cee f   DuiLib_d:DuiLib_d.dll
 0001:0001fcf4       ?AddNotifier@CPaintManagerUI@DuiLib@@QAE_NPAVINotifyUI@2@@Z 00420cf4 f   DuiLib_d:DuiLib_d.dll
 0001:0001fcfa       ?GetRoot@CPaintManagerUI@DuiLib@@QBEPAVCControlUI@2@XZ 00420cfa f   DuiLib_d:DuiLib_d.dll
 0001:0001fd00       ?FindControl@CPaintManagerUI@DuiLib@@QBEPAVCControlUI@2@PB_W@Z 00420d00 f   DuiLib_d:DuiLib_d.dll
 0001:0001fd06       ?ResetDPIAssets@CPaintManagerUI@DuiLib@@QAEXXZ 00420d06 f   DuiLib_d:DuiLib_d.dll
 0001:0001fd0c       ?SetDPI@CPaintManagerUI@DuiLib@@QAEXH@Z 00420d0c f   DuiLib_d:DuiLib_d.dll
 0001:0001fd12       ?MessageHandler@CPaintManagerUI@DuiLib@@QAE_NIIJAAJ@Z 00420d12 f   DuiLib_d:DuiLib_d.dll
 0001:0001fd18       ?AddVirtualWnd@CNotifyPump@DuiLib@@QAE_NVCDuiString@2@PAV12@@Z 00420d18 f   DuiLib_d:DuiLib_d.dll
 0001:0001fd1e       ?RemoveVirtualWnd@CNotifyPump@DuiLib@@QAE_NVCDuiString@2@@Z 00420d1e f   DuiLib_d:DuiLib_d.dll
 0001:0001fd24       ??0CNotifyPump@DuiLib@@QAE@XZ 00420d24 f   DuiLib_d:DuiLib_d.dll
 0001:0001fd2a       ??1CNotifyPump@DuiLib@@QAE@XZ 00420d2a f   DuiLib_d:DuiLib_d.dll
 0001:0001fd30       ??0CWindowWnd@DuiLib@@QAE@XZ 00420d30 f   DuiLib_d:DuiLib_d.dll
 0001:0001fd36       ??BCWindowWnd@DuiLib@@QBEPAUHWND__@@XZ 00420d36 f   DuiLib_d:DuiLib_d.dll
 0001:0001fd3c       ?ShowModal@CWindowWnd@DuiLib@@QAEIXZ 00420d3c f   DuiLib_d:DuiLib_d.dll
 0001:0001fd42       ?Close@CWindowWnd@DuiLib@@QAEXI@Z 00420d42 f   DuiLib_d:DuiLib_d.dll
 0001:0001fd48       ?SetIcon@CWindowWnd@DuiLib@@QAEXI@Z 00420d48 f   DuiLib_d:DuiLib_d.dll
 0001:0001fd4e       ?SendMessageW@CWindowWnd@DuiLib@@QAEJIIJ@Z 00420d4e f   DuiLib_d:DuiLib_d.dll
 0001:0001fd54       ?HandleMessage@CWindowWnd@DuiLib@@MAEJIIJ@Z 00420d54 f   DuiLib_d:DuiLib_d.dll
 0001:0001fd5a       ?GetBkColor@CControlUI@DuiLib@@QBEKXZ 00420d5a f   DuiLib_d:DuiLib_d.dll
 0001:0001fd60       ?SetBkColor@CControlUI@DuiLib@@QAEXK@Z 00420d60 f   DuiLib_d:DuiLib_d.dll
 0001:0001fd66       ?SetBkImage@CControlUI@DuiLib@@QAEXPB_W@Z 00420d66 f   DuiLib_d:DuiLib_d.dll
 0001:0001fd6c       ?NeedUpdate@CControlUI@DuiLib@@QAEXXZ 00420d6c f   DuiLib_d:DuiLib_d.dll
 0001:0001fd72       ?NeedParentUpdate@CControlUI@DuiLib@@QAEXXZ 00420d72 f   DuiLib_d:DuiLib_d.dll
 0001:0001fd78       ?ApplyAttributeList@CControlUI@DuiLib@@QAEPAV12@PB_W@Z 00420d78 f   DuiLib_d:DuiLib_d.dll
 0001:0001fd7e       ??0CDialogBuilder@DuiLib@@QAE@XZ 00420d7e f   DuiLib_d:DuiLib_d.dll
 0001:0001fd84       ?Create@CDialogBuilder@DuiLib@@QAEPAVCControlUI@2@VSTRINGorID@2@PB_WPAVIDialogBuilderCallback@2@PAVCPaintManagerUI@2@PAV32@@Z 00420d84 f   DuiLib_d:DuiLib_d.dll
 0001:0001fd8a       ??1CDialogBuilder@DuiLib@@QAE@XZ 00420d8a f   DuiLib_d:DuiLib_d.dll
 0001:0001fd90       ??0WindowImplBase@DuiLib@@QAE@XZ 00420d90 f   DuiLib_d:DuiLib_d.dll
 0001:0001fd96       ??1WindowImplBase@DuiLib@@UAE@XZ 00420d96 f   DuiLib_d:DuiLib_d.dll
 0001:0001fd9c       ?OnFinalMessage@WindowImplBase@DuiLib@@UAEXPAUHWND__@@@Z 00420d9c f   DuiLib_d:DuiLib_d.dll
 0001:0001fda2       ?Notify@WindowImplBase@DuiLib@@UAEXAAUtagTNotifyUI@2@@Z 00420da2 f   DuiLib_d:DuiLib_d.dll
 0001:0001fda8       ??0CListLabelElementUI@DuiLib@@QAE@XZ 00420da8 f   DuiLib_d:DuiLib_d.dll
 0001:0001fdae       ??1CListLabelElementUI@DuiLib@@UAE@XZ 00420dae f   DuiLib_d:DuiLib_d.dll
 0001:0001fdb4       ??0CListTextElementUI@DuiLib@@QAE@XZ 00420db4 f   DuiLib_d:DuiLib_d.dll
 0001:0001fdba       ??1CListTextElementUI@DuiLib@@UAE@XZ 00420dba f   DuiLib_d:DuiLib_d.dll
 0001:0001fdc0       ?SetText@CListTextElementUI@DuiLib@@QAEXHPB_W@Z 00420dc0 f   DuiLib_d:DuiLib_d.dll
 0001:0001fdc6       ??0CListContainerElementUI@DuiLib@@QAE@XZ 00420dc6 f   DuiLib_d:DuiLib_d.dll
 0001:0001fdcc       ??1CListContainerElementUI@DuiLib@@UAE@XZ 00420dcc f   DuiLib_d:DuiLib_d.dll
 0001:0001fdd2       ?SetItemFont@CComboUI@DuiLib@@QAEXH@Z 00420dd2 f   DuiLib_d:DuiLib_d.dll
 0001:0001fdd8       ??0CTreeNodeUI@DuiLib@@QAE@PAV01@@Z 00420dd8 f   DuiLib_d:DuiLib_d.dll
 0001:0001fdde       ??1CTreeNodeUI@DuiLib@@UAE@XZ 00420dde f   DuiLib_d:DuiLib_d.dll
 0001:0001fde4       ?SetItemText@CTreeNodeUI@DuiLib@@QAEXPB_W@Z 00420de4 f   DuiLib_d:DuiLib_d.dll
 0001:0001fdea       ??0CButtonUI@DuiLib@@QAE@XZ 00420dea f   DuiLib_d:DuiLib_d.dll
 0001:0001fdf0       ??1CButtonUI@DuiLib@@UAE@XZ 00420df0 f   DuiLib_d:DuiLib_d.dll
 0001:0001fdf6       ??0COptionUI@DuiLib@@QAE@XZ 00420df6 f   DuiLib_d:DuiLib_d.dll
 0001:0001fdfc       ??1COptionUI@DuiLib@@UAE@XZ 00420dfc f   DuiLib_d:DuiLib_d.dll
 0001:0001fe02       ?GetValue@CProgressUI@DuiLib@@QBEHXZ 00420e02 f   DuiLib_d:DuiLib_d.dll
 0001:0001fe08       ?SetValue@CProgressUI@DuiLib@@QAEXH@Z 00420e08 f   DuiLib_d:DuiLib_d.dll
 0001:0001fe0e       ?GetControl@CActiveXUI@DuiLib@@QAEJU_GUID@@PAPAX@Z 00420e0e f   DuiLib_d:DuiLib_d.dll
 0001:0001fe14       ?SetWebBrowserEventHandler@CWebBrowserUI@DuiLib@@QAEXPAVCWebBrowserEventHandler@2@@Z 00420e14 f   DuiLib_d:DuiLib_d.dll
 0001:0001fe1a       ?NavigateUrl@CWebBrowserUI@DuiLib@@QAEXPB_W@Z 00420e1a f   DuiLib_d:DuiLib_d.dll
 0001:0001fe20       ?GetGlobalContextMenuObserver@CMenuWnd@DuiLib@@SAAAVMenuObserverImpl@2@XZ 00420e20 f   DuiLib_d:DuiLib_d.dll
 0001:0001fe26       ?DestroyMenu@CMenuWnd@DuiLib@@SAXXZ 00420e26 f   DuiLib_d:DuiLib_d.dll
 0001:0001fe2c       ?SetMenuItemInfoW@CMenuWnd@DuiLib@@SAPAUMenuItemInfo@2@PB_W_N@Z 00420e2c f   DuiLib_d:DuiLib_d.dll
 0001:0001fe32       ??0CMenuWnd@DuiLib@@QAE@XZ 00420e32 f   DuiLib_d:DuiLib_d.dll
 0001:0001fe38       ??1CMenuWnd@DuiLib@@QAE@XZ 00420e38 f   DuiLib_d:DuiLib_d.dll
 0001:0001fe3e       ?Init@CMenuWnd@DuiLib@@QAEXPAVCMenuElementUI@2@VSTRINGorID@2@UtagPOINT@@PAVCPaintManagerUI@2@PAVCStdStringPtrMap@2@K@Z 00420e3e f   DuiLib_d:DuiLib_d.dll
 0001:0001fe44       ?GetMenuUI@CMenuWnd@DuiLib@@QAEPAVCMenuUI@2@XZ 00420e44 f   DuiLib_d:DuiLib_d.dll
 0001:0001fe4a       ?ResizeMenu@CMenuWnd@DuiLib@@QAEXXZ 00420e4a f   DuiLib_d:DuiLib_d.dll
 0001:0001fe50       ??0CMenuElementUI@DuiLib@@QAE@XZ 00420e50 f   DuiLib_d:DuiLib_d.dll
 0001:0001fe56       ??1CMenuElementUI@DuiLib@@UAE@XZ 00420e56 f   DuiLib_d:DuiLib_d.dll
 0001:0001fe5c       ?SetIcon@CMenuElementUI@DuiLib@@QAEXPB_W@Z 00420e5c f   DuiLib_d:DuiLib_d.dll
 0001:0001fe62       ?SetIconSize@CMenuElementUI@DuiLib@@QAEXJJ@Z 00420e62 f   DuiLib_d:DuiLib_d.dll
 0001:0001fe68       ?SetShowExplandIcon@CMenuElementUI@DuiLib@@QAEX_N@Z 00420e68 f   DuiLib_d:DuiLib_d.dll
 0001:0001fe6e       ?BeginRoll@CRollTextUI@DuiLib@@QAEXHJJ@Z 00420e6e f   DuiLib_d:DuiLib_d.dll
 0001:0001fe74       ?GetSelectColor@CColorPaletteUI@DuiLib@@QAEKXZ 00420e74 f   DuiLib_d:DuiLib_d.dll
 0001:0001fe7a       ?SetSelectColor@CColorPaletteUI@DuiLib@@QAEXK@Z 00420e7a f   DuiLib_d:DuiLib_d.dll
 0001:0001fe80       ?InitListCtrl@CListExUI@DuiLib@@QAEXXZ 00420e80 f   DuiLib_d:DuiLib_d.dll
 0001:0001fe86       ??0CListTextExtElementUI@DuiLib@@QAE@XZ 00420e86 f   DuiLib_d:DuiLib_d.dll
 0001:0001fe8c       ??1CListTextExtElementUI@DuiLib@@UAE@XZ 00420e8c f   DuiLib_d:DuiLib_d.dll
 0001:0001fe92       ?SetText@CListTextExtElementUI@DuiLib@@QAEXHPB_W@Z 00420e92 f   DuiLib_d:DuiLib_d.dll
 0001:0001fe98       ?Activate@CButtonUI@DuiLib@@UAE_NXZ 00420e98 f   DuiLib_d:DuiLib_d.dll
 0001:0001fe9e       ?Activate@CListContainerElementUI@DuiLib@@UAE_NXZ 00420e9e f   DuiLib_d:DuiLib_d.dll
 0001:0001fea4       ?Activate@CListElementUI@DuiLib@@UAE_NXZ 00420ea4 f   DuiLib_d:DuiLib_d.dll
 0001:0001feaa       ?Activate@COptionUI@DuiLib@@UAE_NXZ 00420eaa f   DuiLib_d:DuiLib_d.dll
 0001:0001feb0       ?DoEvent@CButtonUI@DuiLib@@UAEXAAUtagTEventUI@2@@Z 00420eb0 f   DuiLib_d:DuiLib_d.dll
 0001:0001feb6       ?DoEvent@CListContainerElementUI@DuiLib@@UAEXAAUtagTEventUI@2@@Z 00420eb6 f   DuiLib_d:DuiLib_d.dll
 0001:0001febc       ?DoEvent@CListLabelElementUI@DuiLib@@UAEXAAUtagTEventUI@2@@Z 00420ebc f   DuiLib_d:DuiLib_d.dll
 0001:0001fec2       ?DoEvent@CListTextElementUI@DuiLib@@UAEXAAUtagTEventUI@2@@Z 00420ec2 f   DuiLib_d:DuiLib_d.dll
 0001:0001fec8       ?DoEvent@CListTextExtElementUI@DuiLib@@UAEXAAUtagTEventUI@2@@Z 00420ec8 f   DuiLib_d:DuiLib_d.dll
 0001:0001fece       ?DoEvent@CMenuElementUI@DuiLib@@UAEXAAUtagTEventUI@2@@Z 00420ece f   DuiLib_d:DuiLib_d.dll
 0001:0001fed4       ?DoEvent@CTreeNodeUI@DuiLib@@UAEXAAUtagTEventUI@2@@Z 00420ed4 f   DuiLib_d:DuiLib_d.dll
 0001:0001feda       ?DoPaint@CListContainerElementUI@DuiLib@@UAEXPAUHDC__@@ABUtagRECT@@@Z 00420eda f   DuiLib_d:DuiLib_d.dll
 0001:0001fee0       ?DoPaint@CListLabelElementUI@DuiLib@@UAEXPAUHDC__@@ABUtagRECT@@@Z 00420ee0 f   DuiLib_d:DuiLib_d.dll
 0001:0001fee6       ?DoPaint@CListTextExtElementUI@DuiLib@@UAEXPAUHDC__@@ABUtagRECT@@@Z 00420ee6 f   DuiLib_d:DuiLib_d.dll
 0001:0001feec       ?DoPaint@CMenuElementUI@DuiLib@@UAEXPAUHDC__@@ABUtagRECT@@@Z 00420eec f   DuiLib_d:DuiLib_d.dll
 0001:0001fef2       ?DoPostPaint@CHorizontalLayoutUI@DuiLib@@UAEXPAUHDC__@@ABUtagRECT@@@Z 00420ef2 f   DuiLib_d:DuiLib_d.dll
 0001:0001fef8       ?DrawItemBk@CListContainerElementUI@DuiLib@@UAEXPAUHDC__@@ABUtagRECT@@@Z 00420ef8 f   DuiLib_d:DuiLib_d.dll
 0001:0001fefe       ?EstimateSize@CListLabelElementUI@DuiLib@@UAE?AUtagSIZE@@U3@@Z 00420efe f   DuiLib_d:DuiLib_d.dll
 0001:0001ff04       ?EstimateSize@CListTextElementUI@DuiLib@@UAE?AUtagSIZE@@U3@@Z 00420f04 f   DuiLib_d:DuiLib_d.dll
 0001:0001ff0a       ?EstimateSize@CListTextExtElementUI@DuiLib@@UAE?AUtagSIZE@@U3@@Z 00420f0a f   DuiLib_d:DuiLib_d.dll
 0001:0001ff10       ?EstimateSize@CMenuElementUI@DuiLib@@UAE?AUtagSIZE@@U3@@Z 00420f10 f   DuiLib_d:DuiLib_d.dll
 0001:0001ff16       ?GetClass@CButtonUI@DuiLib@@UBEPB_WXZ 00420f16 f   DuiLib_d:DuiLib_d.dll
 0001:0001ff1c       ?GetClass@CComboUI@DuiLib@@UBEPB_WXZ 00420f1c f   DuiLib_d:DuiLib_d.dll
 0001:0001ff22       ?GetClass@CListContainerElementUI@DuiLib@@UBEPB_WXZ 00420f22 f   DuiLib_d:DuiLib_d.dll
 0001:0001ff28       ?GetClass@CListLabelElementUI@DuiLib@@UBEPB_WXZ 00420f28 f   DuiLib_d:DuiLib_d.dll
 0001:0001ff2e       ?GetClass@CListTextElementUI@DuiLib@@UBEPB_WXZ 00420f2e f   DuiLib_d:DuiLib_d.dll
 0001:0001ff34       ?GetClass@CListTextExtElementUI@DuiLib@@UBEPB_WXZ 00420f34 f   DuiLib_d:DuiLib_d.dll
 0001:0001ff3a       ?GetClass@CMenuElementUI@DuiLib@@UBEPB_WXZ 00420f3a f   DuiLib_d:DuiLib_d.dll
 0001:0001ff40       ?GetClass@COptionUI@DuiLib@@UBEPB_WXZ 00420f40 f   DuiLib_d:DuiLib_d.dll
 0001:0001ff46       ?GetClass@CTreeNodeUI@DuiLib@@UBEPB_WXZ 00420f46 f   DuiLib_d:DuiLib_d.dll
 0001:0001ff4c       ?GetControlFlags@CButtonUI@DuiLib@@UBEIXZ 00420f4c f   DuiLib_d:DuiLib_d.dll
 0001:0001ff52       ?GetControlFlags@CListContainerElementUI@DuiLib@@UBEIXZ 00420f52 f   DuiLib_d:DuiLib_d.dll
 0001:0001ff58       ?GetControlFlags@CListElementUI@DuiLib@@UBEIXZ 00420f58 f   DuiLib_d:DuiLib_d.dll
 0001:0001ff5e       ?GetControlFlags@CListTextElementUI@DuiLib@@UBEIXZ 00420f5e f   DuiLib_d:DuiLib_d.dll
 0001:0001ff64       ?GetControlFlags@CListTextExtElementUI@DuiLib@@UBEIXZ 00420f64 f   DuiLib_d:DuiLib_d.dll
 0001:0001ff6a       ?GetDisabledImage@CButtonUI@DuiLib@@UAEPB_WXZ 00420f6a f   DuiLib_d:DuiLib_d.dll
 0001:0001ff70       ?GetFocusedImage@CButtonUI@DuiLib@@UAEPB_WXZ 00420f70 f   DuiLib_d:DuiLib_d.dll
 0001:0001ff76       ?GetHotForeImage@CButtonUI@DuiLib@@UAEPB_WXZ 00420f76 f   DuiLib_d:DuiLib_d.dll
 0001:0001ff7c       ?GetHotImage@CButtonUI@DuiLib@@UAEPB_WXZ 00420f7c f   DuiLib_d:DuiLib_d.dll
 0001:0001ff82       ?GetInterface@CButtonUI@DuiLib@@UAEPAXPB_W@Z 00420f82 f   DuiLib_d:DuiLib_d.dll
 0001:0001ff88       ?GetInterface@CListContainerElementUI@DuiLib@@UAEPAXPB_W@Z 00420f88 f   DuiLib_d:DuiLib_d.dll
 0001:0001ff8e       ?GetInterface@CListLabelElementUI@DuiLib@@UAEPAXPB_W@Z 00420f8e f   DuiLib_d:DuiLib_d.dll
 0001:0001ff94       ?GetInterface@CListTextElementUI@DuiLib@@UAEPAXPB_W@Z 00420f94 f   DuiLib_d:DuiLib_d.dll
 0001:0001ff9a       ?GetInterface@CListTextExtElementUI@DuiLib@@UAEPAXPB_W@Z 00420f9a f   DuiLib_d:DuiLib_d.dll
 0001:0001ffa0       ?GetInterface@CMenuElementUI@DuiLib@@UAEPAXPB_W@Z 00420fa0 f   DuiLib_d:DuiLib_d.dll
 0001:0001ffa6       ?GetInterface@COptionUI@DuiLib@@UAEPAXPB_W@Z 00420fa6 f   DuiLib_d:DuiLib_d.dll
 0001:0001ffac       ?GetInterface@CTreeNodeUI@DuiLib@@UAEPAXPB_W@Z 00420fac f   DuiLib_d:DuiLib_d.dll
 0001:0001ffb2       ?GetManagerName@WindowImplBase@DuiLib@@MAEPB_WXZ 00420fb2 f   DuiLib_d:DuiLib_d.dll
 0001:0001ffb8       ?GetNormalImage@CButtonUI@DuiLib@@UAEPB_WXZ 00420fb8 f   DuiLib_d:DuiLib_d.dll
 0001:0001ffbe       ?GetPushedImage@CButtonUI@DuiLib@@UAEPB_WXZ 00420fbe f   DuiLib_d:DuiLib_d.dll
 0001:0001ffc4       ?GetSelectedStateImage@COptionUI@DuiLib@@UAEPB_WXZ 00420fc4 f   DuiLib_d:DuiLib_d.dll
 0001:0001ffca       ?GetSkinType@WindowImplBase@DuiLib@@MAE?AVCDuiString@2@XZ 00420fca f   DuiLib_d:DuiLib_d.dll
 0001:0001ffd0       ?GetStateImage@CButtonUI@DuiLib@@UAEPB_WXZ 00420fd0 f   DuiLib_d:DuiLib_d.dll
 0001:0001ffd6       ?GetStyle@WindowImplBase@DuiLib@@UAEJXZ 00420fd6 f   DuiLib_d:DuiLib_d.dll
 0001:0001ffdc       ?GetSuperClassName@CWindowWnd@DuiLib@@MBEPB_WXZ 00420fdc f   DuiLib_d:DuiLib_d.dll
 0001:0001ffe2       ?HandleMessage@WindowImplBase@DuiLib@@UAEJIIJ@Z 00420fe2 f   DuiLib_d:DuiLib_d.dll
 0001:0001ffe8       ?InitResource@WindowImplBase@DuiLib@@UAEXXZ 00420fe8 f   DuiLib_d:DuiLib_d.dll
 0001:0001ffee       ?MessageHandler@WindowImplBase@DuiLib@@UAEJIIJAA_N@Z 00420fee f   DuiLib_d:DuiLib_d.dll
 0001:0001fff4       ?Move@CContainerUI@DuiLib@@UAEXUtagSIZE@@_N@Z 00420ff4 f   DuiLib_d:DuiLib_d.dll
 0001:0001fffa       ?OnChar@WindowImplBase@DuiLib@@UAEJIIJAAH@Z 00420ffa f   DuiLib_d:DuiLib_d.dll
 0001:00020000       ?OnClick@WindowImplBase@DuiLib@@MAEXAAUtagTNotifyUI@2@@Z 00421000 f   DuiLib_d:DuiLib_d.dll
 0001:00020006       ?OnClose@WindowImplBase@DuiLib@@UAEJIIJAAH@Z 00421006 f   DuiLib_d:DuiLib_d.dll
 0001:0002000c       ?OnCreate@WindowImplBase@DuiLib@@UAEJIIJAAH@Z 0042100c f   DuiLib_d:DuiLib_d.dll
 0001:00020012       ?OnKeyDown@WindowImplBase@DuiLib@@UAEJIIJAAH@Z 00421012 f   DuiLib_d:DuiLib_d.dll
 0001:00020018       ?OnKillFocus@WindowImplBase@DuiLib@@UAEJIIJAAH@Z 00421018 f   DuiLib_d:DuiLib_d.dll
 0001:0002001e       ?OnLButtonDown@WindowImplBase@DuiLib@@UAEJIIJAAH@Z 0042101e f   DuiLib_d:DuiLib_d.dll
 0001:00020024       ?OnLButtonUp@WindowImplBase@DuiLib@@UAEJIIJAAH@Z 00421024 f   DuiLib_d:DuiLib_d.dll
 0001:0002002a       ?OnMouseHover@WindowImplBase@DuiLib@@UAEJIIJAAH@Z 0042102a f   DuiLib_d:DuiLib_d.dll
 0001:00020030       ?OnMouseMove@WindowImplBase@DuiLib@@UAEJIIJAAH@Z 00421030 f   DuiLib_d:DuiLib_d.dll
 0001:00020036       ?OnMouseWheel@WindowImplBase@DuiLib@@UAEJIIJAAH@Z 00421036 f   DuiLib_d:DuiLib_d.dll
 0001:0002003c       ?OnNcActivate@WindowImplBase@DuiLib@@UAEJIIJAAH@Z 0042103c f   DuiLib_d:DuiLib_d.dll
 0001:00020042       ?OnNcCalcSize@WindowImplBase@DuiLib@@UAEJIIJAAH@Z 00421042 f   DuiLib_d:DuiLib_d.dll
 0001:00020048       ?OnNcHitTest@WindowImplBase@DuiLib@@UAEJIIJAAH@Z 00421048 f   DuiLib_d:DuiLib_d.dll
 0001:0002004e       ?OnNcPaint@WindowImplBase@DuiLib@@UAEJIIJAAH@Z 0042104e f   DuiLib_d:DuiLib_d.dll
 0001:00020054       ?OnSetFocus@WindowImplBase@DuiLib@@UAEJIIJAAH@Z 00421054 f   DuiLib_d:DuiLib_d.dll
 0001:0002005a       ?OnSize@WindowImplBase@DuiLib@@UAEJIIJAAH@Z 0042105a f   DuiLib_d:DuiLib_d.dll
 0001:00020060       ?OnSysCommand@WindowImplBase@DuiLib@@UAEJIIJAAH@Z 00421060 f   DuiLib_d:DuiLib_d.dll
 0001:00020066       ?PaintBkColor@CButtonUI@DuiLib@@UAEXPAUHDC__@@@Z 00421066 f   DuiLib_d:DuiLib_d.dll
 0001:0002006c       ?PaintBkColor@COptionUI@DuiLib@@UAEXPAUHDC__@@@Z 0042106c f   DuiLib_d:DuiLib_d.dll
 0001:00020072       ?PaintForeImage@CButtonUI@DuiLib@@UAEXPAUHDC__@@@Z 00421072 f   DuiLib_d:DuiLib_d.dll
 0001:00020078       ?PaintForeImage@COptionUI@DuiLib@@UAEXPAUHDC__@@@Z 00421078 f   DuiLib_d:DuiLib_d.dll
 0001:0002007e       ?PaintStatusImage@CButtonUI@DuiLib@@UAEXPAUHDC__@@@Z 0042107e f   DuiLib_d:DuiLib_d.dll
 0001:00020084       ?PaintStatusImage@CListTextExtElementUI@DuiLib@@UAEXPAUHDC__@@@Z 00421084 f   DuiLib_d:DuiLib_d.dll
 0001:0002008a       ?PaintStatusImage@COptionUI@DuiLib@@UAEXPAUHDC__@@@Z 0042108a f   DuiLib_d:DuiLib_d.dll
 0001:00020090       ?PaintText@CButtonUI@DuiLib@@UAEXPAUHDC__@@@Z 00421090 f   DuiLib_d:DuiLib_d.dll
 0001:00020096       ?PaintText@COptionUI@DuiLib@@UAEXPAUHDC__@@@Z 00421096 f   DuiLib_d:DuiLib_d.dll
 0001:0002009c       ?ResponseDefaultKeyEvent@WindowImplBase@DuiLib@@MAEJI@Z 0042109c f   DuiLib_d:DuiLib_d.dll
 0001:000200a2       ?Selected@COptionUI@DuiLib@@UAEX_N@Z 004210a2 f   DuiLib_d:DuiLib_d.dll
 0001:000200a8       ?SetAttribute@CButtonUI@DuiLib@@UAEXPB_W0@Z 004210a8 f   DuiLib_d:DuiLib_d.dll
 0001:000200ae       ?SetAttribute@CListContainerElementUI@DuiLib@@UAEXPB_W0@Z 004210ae f   DuiLib_d:DuiLib_d.dll
 0001:000200b4       ?SetAttribute@CListElementUI@DuiLib@@UAEXPB_W0@Z 004210b4 f   DuiLib_d:DuiLib_d.dll
 0001:000200ba       ?SetAttribute@CListTextExtElementUI@DuiLib@@UAEXPB_W0@Z 004210ba f   DuiLib_d:DuiLib_d.dll
 0001:000200c0       ?SetAttribute@CMenuElementUI@DuiLib@@UAEXPB_W0@Z 004210c0 f   DuiLib_d:DuiLib_d.dll
 0001:000200c6       ?SetAttribute@COptionUI@DuiLib@@UAEXPB_W0@Z 004210c6 f   DuiLib_d:DuiLib_d.dll
 0001:000200cc       ?SetAttribute@CTreeNodeUI@DuiLib@@UAEXPB_W0@Z 004210cc f   DuiLib_d:DuiLib_d.dll
 0001:000200d2       ?SetDisabledImage@CButtonUI@DuiLib@@UAEXPB_W@Z 004210d2 f   DuiLib_d:DuiLib_d.dll
 0001:000200d8       ?SetEnabled@CButtonUI@DuiLib@@UAEX_N@Z 004210d8 f   DuiLib_d:DuiLib_d.dll
 0001:000200de       ?SetEnabled@CListContainerElementUI@DuiLib@@UAEX_N@Z 004210de f   DuiLib_d:DuiLib_d.dll
 0001:000200e4       ?SetEnabled@CListElementUI@DuiLib@@UAEX_N@Z 004210e4 f   DuiLib_d:DuiLib_d.dll
 0001:000200ea       ?SetEnabled@COptionUI@DuiLib@@UAEX_N@Z 004210ea f   DuiLib_d:DuiLib_d.dll
 0001:000200f0       ?SetFocusedImage@CButtonUI@DuiLib@@UAEXPB_W@Z 004210f0 f   DuiLib_d:DuiLib_d.dll
 0001:000200f6       ?SetHotForeImage@CButtonUI@DuiLib@@UAEXPB_W@Z 004210f6 f   DuiLib_d:DuiLib_d.dll
 0001:000200fc       ?SetHotImage@CButtonUI@DuiLib@@UAEXPB_W@Z 004210fc f   DuiLib_d:DuiLib_d.dll
 0001:00020102       ?SetManager@COptionUI@DuiLib@@UAEXPAVCPaintManagerUI@2@PAVCControlUI@2@_N@Z 00421102 f   DuiLib_d:DuiLib_d.dll
 0001:00020108       ?SetNormalImage@CButtonUI@DuiLib@@UAEXPB_W@Z 00421108 f   DuiLib_d:DuiLib_d.dll
 0001:0002010e       ?SetPos@CListContainerElementUI@DuiLib@@UAEXUtagRECT@@_N@Z 0042110e f   DuiLib_d:DuiLib_d.dll
 0001:00020114       ?SetPushedImage@CButtonUI@DuiLib@@UAEXPB_W@Z 00421114 f   DuiLib_d:DuiLib_d.dll
 0001:0002011a       ?SetSelectedStateImage@COptionUI@DuiLib@@UAEXPB_W@Z 0042111a f   DuiLib_d:DuiLib_d.dll
 0001:00020120       ?SetStateImage@CButtonUI@DuiLib@@UAEXPB_W@Z 00421120 f   DuiLib_d:DuiLib_d.dll
 0001:00020126       ?SetVisible@CListContainerElementUI@DuiLib@@UAEX_N@Z 00421126 f   DuiLib_d:DuiLib_d.dll
 0001:0002012c       ?SetVisible@CListElementUI@DuiLib@@UAEX_N@Z 0042112c f   DuiLib_d:DuiLib_d.dll
 0001:00020132       ?MakeLower@CDuiString@DuiLib@@QAEXXZ 00421132 f   DuiLib_d:DuiLib_d.dll
 0001:00020138       ?CreateControl@WindowImplBase@DuiLib@@UAEPAVCControlUI@2@PB_W@Z 00421138 f   DuiLib_d:DuiLib_d.dll
 0001:0002013e       ?GetClassStyle@WindowImplBase@DuiLib@@UBEIXZ 0042113e f   DuiLib_d:DuiLib_d.dll
 0001:00020144       ?OnDestroy@WindowImplBase@DuiLib@@UAEJIIJAAH@Z 00421144 f   DuiLib_d:DuiLib_d.dll
 0001:0002014a       ?OnGetMinMaxInfo@WindowImplBase@DuiLib@@UAEJIIJAAH@Z 0042114a f   DuiLib_d:DuiLib_d.dll
 0001:00020150       ?QueryControlText@WindowImplBase@DuiLib@@UAEPB_WPB_W0@Z 00421150 f   DuiLib_d:DuiLib_d.dll
 0001:00020160       ??$__vcrt_va_start_verify_argument_type@G@@YGXXZ 00421160 f i comsuppwd:comsupp.obj
 0001:00020170       ??$__vcrt_va_start_verify_argument_type@PB_W@@YGXXZ 00421170 f i comsuppwd:comsupp.obj
 0001:00020180       ?_com_dispatch_method@@YAJPAUIDispatch@@JGGPAXPB_WZZ 00421180 f   comsuppwd:comsupp.obj
 0001:00020280       ?_com_dispatch_propget@@YGJPAUIDispatch@@JGPAX@Z 00421280 f   comsuppwd:comsupp.obj
 0001:000202c0       ?_com_dispatch_propput@@YAJPAUIDispatch@@JGZZ 004212c0 f   comsuppwd:comsupp.obj
 0001:00020440       ?_com_issue_error@@YGXJ@Z  00421440 f   comsuppwd:comsupp.obj
 0001:00020490       ?_com_issue_errorex@@YGXJPAUIUnknown@@ABU_GUID@@@Z 00421490 f   comsuppwd:comsupp.obj
 0001:00020640       ?_set_com_error_handler@@YGXP6GXJPAUIErrorInfo@@@Z@Z 00421640 f   comsuppwd:comsupp.obj
 0001:00020660       ??0_com_error@@QAE@ABV0@@Z 00421660 f i comsuppwd:comraise.obj
 0001:00020710       ??0_com_error@@QAE@JPAUIErrorInfo@@_N@Z 00421710 f i comsuppwd:comraise.obj
 0001:000207c0       ??1_com_error@@UAE@XZ      004217c0 f i comsuppwd:comraise.obj
 0001:00020870       ??_G_com_error@@UAEPAXI@Z  00421870 f i comsuppwd:comraise.obj
 0001:00020870       ??_E_com_error@@UAEPAXI@Z  00421870 f i comsuppwd:comraise.obj
 0001:000208c0       ?_com_raise_error@@YGXJPAUIErrorInfo@@@Z 004218c0 f   comsuppwd:comraise.obj
 0001:00020920       ?HRESULT_FROM_WIN32@@YGJK@Z 00421920 f i comsuppwd:invkprxy.obj
 0001:00020970       ?_com_dispatch_raw_method@@YAJPAUIDispatch@@JGGPAXPB_WZZ 00421970 f   comsuppwd:invkprxy.obj
 0001:00020a60       ?_com_dispatch_raw_propget@@YGJPAUIDispatch@@JGPAX@Z 00421a60 f   comsuppwd:invkprxy.obj
 0001:00020aa0       ?_com_dispatch_raw_propput@@YAJPAUIDispatch@@JGZZ 00421aa0 f   comsuppwd:invkprxy.obj
 0001:00020c10       ?_com_invoke_helper@@YAJPAUIDispatch@@JGGPAXPB_WPADPAPAUIErrorInfo@@@Z 00421c10 f   comsuppwd:invkprxy.obj
 0001:00022070       ?WCodeToHRESULT@_com_error@@SGJG@Z 00423070 f i comsuppwd:invkerr.obj
 0001:000220c0       ?_com_handle_excepinfo@@YGJAAUtagEXCEPINFO@@PAPAUIErrorInfo@@@Z 004230c0 f   comsuppwd:invkerr.obj
 0001:000223d8       ??0_Lockit@std@@QAE@H@Z    004233d8 f   msvcprtd:MSVCP140D.dll
 0001:000223de       ??1_Lockit@std@@QAE@XZ     004233de f   msvcprtd:MSVCP140D.dll
 0001:000223e4       ?_Debug_message@std@@YAXPB_W0I@Z 004233e4 f   msvcprtd:MSVCP140D.dll
 0001:000223ea       ?_Xbad_alloc@std@@YAXXZ    004233ea f   msvcprtd:MSVCP140D.dll
 0001:000223f0       ?_Xlength_error@std@@YAXPBD@Z 004233f0 f   msvcprtd:MSVCP140D.dll
 0001:000223f6       _GdipAlloc@4               004233f6 f   GdiPlus:gdiplus.dll
 0001:000223fc       _GdipFree@4                004233fc f   GdiPlus:gdiplus.dll
 0001:00022402       _GdipCloneBrush@8          00423402 f   GdiPlus:gdiplus.dll
 0001:00022408       _GdipDeleteBrush@4         00423408 f   GdiPlus:gdiplus.dll
 0001:0002240e       _GdipCreateSolidFill@8     0042340e f   GdiPlus:gdiplus.dll
 0001:00022414       _GdipCreateFromHDC@8       00423414 f   GdiPlus:gdiplus.dll
 0001:0002241a       _GdipDeleteGraphics@4      0042341a f   GdiPlus:gdiplus.dll
 0001:00022420       _GdipReleaseDC@8           00423420 f   GdiPlus:gdiplus.dll
 0001:00022426       _GdipSetSmoothingMode@8    00423426 f   GdiPlus:gdiplus.dll
 0001:0002242c       _GdipFillRectangleI@24     0042342c f   GdiPlus:gdiplus.dll
 0001:00022432       _GdipFillEllipseI@24       00423432 f   GdiPlus:gdiplus.dll
 0001:00022438       _GdipFillPieI@32           00423438 f   GdiPlus:gdiplus.dll
 0001:00022440       ??2@YAPAXI@Z               00423440 f   MSVCRTD:new_scalar.obj
 0001:000224a0       ??3@YAXPAX@Z               004234a0 f   MSVCRTD:delete_scalar.obj
 0001:000224c0       ??3@YAXPAXI@Z              004234c0 f   MSVCRTD:delete_scalar_size.obj
 0001:000224e0       @_RTC_AllocaHelper@12      004234e0 f   MSVCRTD:_stack_.obj
 0001:00022520       @_RTC_CheckStackVars2@12   00423520 f   MSVCRTD:_stack_.obj
 0001:00022630       @_RTC_CheckStackVars@8     00423630 f   MSVCRTD:_stack_.obj
 0001:000226a0       __RTC_CheckEsp             004236a0 f   MSVCRTD:_stack_.obj
 0001:000226e0       @__security_check_cookie@4 004236e0 f   MSVCRTD:_secchk_.obj
 0001:00022700       __CRT_RTC_INIT             00423700 f   MSVCRTD:_init_.obj
 0001:00022710       __CRT_RTC_INITW            00423710 f   MSVCRTD:_init_.obj
 0001:00022720       __RTC_InitBase             00423720 f   MSVCRTD:_init_.obj
 0001:00022760       __RTC_Shutdown             00423760 f   MSVCRTD:_init_.obj
 0001:00022780       ??1type_info@@UAE@XZ       00423780 f   MSVCRTD:std_type_info_static.obj
 0001:000227a0       ??_Etype_info@@UAEPAXI@Z   004237a0 f i MSVCRTD:std_type_info_static.obj
 0001:000227a0       ??_Gtype_info@@UAEPAXI@Z   004237a0 f i MSVCRTD:std_type_info_static.obj
 0001:000227e0       ??_M@YGXPAXIHP6EX0@Z@Z     004237e0 f   MSVCRTD:ehvecdtr.obj
 0001:00022810       ??_M@YGXPAXIIP6EX0@Z@Z     00423810 f   MSVCRTD:ehvecdtr.obj
 0001:00022940       ?__ArrayUnwind@@YGXPAXIIP6EX0@Z@Z 00423940 f   MSVCRTD:ehvecdtr.obj
 0001:00022a10       ??_V@YAXPAX@Z              00423a10 f   MSVCRTD:delete_array.obj
 0001:00022a30       ??$__crt_fast_decode_pointer@PAP6AXXZ@@YAPAP6AXXZQAP6AXXZ@Z 00423a30 f i MSVCRTD:utility.obj
 0001:00022a60       ??$__crt_fast_encode_pointer@PAP6AXXZ@@YAPAP6AXXZQAP6AXXZ@Z 00423a60 f i MSVCRTD:utility.obj
 0001:00022aa0       ?__crt_rotate_pointer_value@@YAIIH@Z 00423aa0 f i MSVCRTD:utility.obj
 0001:00022ab0       ?configure_argv@__scrt_narrow_argv_policy@@SAHXZ 00423ab0 f i MSVCRTD:utility.obj
 0001:00022b80       ?initialize_environment@__scrt_narrow_environment_policy@@SAHXZ 00423b80 f i MSVCRTD:utility.obj
 0001:00022c20       _NtCurrentTeb              00423c20 f i MSVCRTD:utility.obj
 0001:00022c30       ___scrt_acquire_startup_lock 00423c30 f   MSVCRTD:utility.obj
 0001:00022c90       ___scrt_dllmain_after_initialize_c 00423c90 f   MSVCRTD:utility.obj
 0001:00022cd0       ___scrt_dllmain_before_initialize_c 00423cd0 f   MSVCRTD:utility.obj
 0001:00022d00       ___scrt_dllmain_crt_thread_attach 00423d00 f   MSVCRTD:utility.obj
 0001:00022d40       ___scrt_dllmain_crt_thread_detach 00423d40 f   MSVCRTD:utility.obj
 0001:00022d60       ___scrt_dllmain_exception_filter 00423d60 f   MSVCRTD:utility.obj
 0001:00022dc0       ___scrt_dllmain_uninitialize_c 00423dc0 f   MSVCRTD:utility.obj
 0001:00022e00       ___scrt_dllmain_uninitialize_critical 00423e00 f   MSVCRTD:utility.obj
 0001:00022e20       ___scrt_initialize_crt     00423e20 f   MSVCRTD:utility.obj
 0001:00022e80       ___scrt_initialize_onexit_tables 00423e80 f   MSVCRTD:utility.obj
 0001:00022fa0       ___scrt_is_nonwritable_in_current_image 00423fa0 f   MSVCRTD:utility.obj
 0001:00023120       ___scrt_release_startup_lock 00424120 f   MSVCRTD:utility.obj
 0001:00023150       ___scrt_uninitialize_crt   00424150 f   MSVCRTD:utility.obj
 0001:000231a0       __onexit                   004241a0 f   MSVCRTD:utility.obj
 0001:00023230       _at_quick_exit             00424230 f   MSVCRTD:utility.obj
 0001:00023290       _atexit                    00424290 f   MSVCRTD:utility.obj
 0001:000236b0       ?set_app_type@__scrt_winmain_policy@@SAXXZ 004246b0 f i MSVCRTD:exe_winmain.obj
 0001:000236d0       ?set_commode@__scrt_file_policy@@SAXXZ 004246d0 f i MSVCRTD:exe_winmain.obj
 0001:000236f0       ?set_fmode@__scrt_file_policy@@SAXXZ 004246f0 f i MSVCRTD:exe_winmain.obj
 0001:00023710       _WinMainCRTStartup         00424710 f   MSVCRTD:exe_winmain.obj
 0001:00023720       ___raise_securityfailure   00424720 f   MSVCRTD:gs_report.obj
 0001:00023760       ___report_gsfailure        00424760 f   MSVCRTD:gs_report.obj
 0001:000238b0       ___report_rangecheckfailure 004248b0 f   MSVCRTD:gs_report.obj
 0001:000238c0       ___report_securityfailure  004248c0 f   MSVCRTD:gs_report.obj
 0001:000239d0       ___report_securityfailureEx 004249d0 f   MSVCRTD:gs_report.obj
 0001:00023b40       @_guard_check_icall@4      00424b40 f i MSVCRTD:checkcfg.obj
 0001:00023b60       __alloca_probe_16          00424b60 f   MSVCRTD:alloca16.obj
 0001:00023b76       __alloca_probe_8           00424b76     MSVCRTD:alloca16.obj
 0001:00023ba0       __except_handler4          00424ba0 f   MSVCRTD:_chandler4gs_.obj
 0001:00023bd0       ??0bad_alloc@std@@AAE@QBD@Z 00424bd0 f i MSVCRTD:throw_bad_alloc.obj
 0001:00023c00       ??0bad_alloc@std@@QAE@ABV01@@Z 00424c00 f i MSVCRTD:throw_bad_alloc.obj
 0001:00023c30       ??0bad_alloc@std@@QAE@XZ   00424c30 f i MSVCRTD:throw_bad_alloc.obj
 0001:00023c60       ??0bad_array_new_length@std@@QAE@ABV01@@Z 00424c60 f i MSVCRTD:throw_bad_alloc.obj
 0001:00023c90       ??0bad_array_new_length@std@@QAE@XZ 00424c90 f i MSVCRTD:throw_bad_alloc.obj
 0001:00023cc0       ??0exception@std@@QAE@ABV01@@Z 00424cc0 f i MSVCRTD:throw_bad_alloc.obj
 0001:00023d10       ??0exception@std@@QAE@QBDH@Z 00424d10 f i MSVCRTD:throw_bad_alloc.obj
 0001:00023d50       ??1bad_alloc@std@@UAE@XZ   00424d50 f i MSVCRTD:throw_bad_alloc.obj
 0001:00023d70       ??1bad_array_new_length@std@@UAE@XZ 00424d70 f i MSVCRTD:throw_bad_alloc.obj
 0001:00023d90       ??1exception@std@@UAE@XZ   00424d90 f i MSVCRTD:throw_bad_alloc.obj
 0001:00023dc0       ??_Gbad_alloc@std@@UAEPAXI@Z 00424dc0 f i MSVCRTD:throw_bad_alloc.obj
 0001:00023dc0       ??_Ebad_alloc@std@@UAEPAXI@Z 00424dc0 f i MSVCRTD:throw_bad_alloc.obj
 0001:00023e00       ??_Ebad_array_new_length@std@@UAEPAXI@Z 00424e00 f i MSVCRTD:throw_bad_alloc.obj
 0001:00023e00       ??_Gbad_array_new_length@std@@UAEPAXI@Z 00424e00 f i MSVCRTD:throw_bad_alloc.obj
 0001:00023e40       ??_Gexception@std@@UAEPAXI@Z 00424e40 f i MSVCRTD:throw_bad_alloc.obj
 0001:00023e40       ??_Eexception@std@@UAEPAXI@Z 00424e40 f i MSVCRTD:throw_bad_alloc.obj
 0001:00023e80       ?__scrt_throw_std_bad_alloc@@YAXXZ 00424e80 f   MSVCRTD:throw_bad_alloc.obj
 0001:00023eb0       ?__scrt_throw_std_bad_array_new_length@@YAXXZ 00424eb0 f   MSVCRTD:throw_bad_alloc.obj
 0001:00023ee0       ?what@exception@std@@UBEPBDXZ 00424ee0 f i MSVCRTD:throw_bad_alloc.obj
 0001:00023f20       ??$__vcrt_va_start_verify_argument_type@QBD@@YAXXZ 00424f20 f i MSVCRTD:_error_.obj
 0001:000240d0       ?_RTC_AllocaFailure@@YAXPAXPAU_RTC_ALLOCA_NODE@@H@Z 004250d0 f   MSVCRTD:_error_.obj
 0001:000241f0       ?_RTC_Failure@@YAXPAXH@Z   004251f0 f   MSVCRTD:_error_.obj
 0001:00024260       ?_RTC_StackFailure@@YAXPAXPBD@Z 00425260 f   MSVCRTD:_error_.obj
 0001:00024680       __RTC_UninitUse            00425680 f   MSVCRTD:_error_.obj
 0001:00024760       ___local_stdio_printf_options 00425760 f i MSVCRTD:_error_.obj
 0001:00024770       __vsprintf_s_l             00425770 f i MSVCRTD:_error_.obj
 0001:000247b0       _sprintf_s                 004257b0 f i MSVCRTD:_error_.obj
 0001:000247e0       ?_RTC_GetErrorFunc@@YAP6AHHPBDH00ZZPBX@Z 004257e0 f   MSVCRTD:_userapi_.obj
 0001:000247f0       ?_RTC_GetErrorFuncW@@YAP6AHHPB_WH00ZZPBX@Z 004257f0 f   MSVCRTD:_userapi_.obj
 0001:00024800       __RTC_GetErrDesc           00425800 f   MSVCRTD:_userapi_.obj
 0001:00024820       __RTC_NumErrors            00425820 f   MSVCRTD:_userapi_.obj
 0001:00024830       __RTC_SetErrorFunc         00425830 f   MSVCRTD:_userapi_.obj
 0001:00024860       __RTC_SetErrorFuncW        00425860 f   MSVCRTD:_userapi_.obj
 0001:00024890       __RTC_SetErrorType         00425890 f   MSVCRTD:_userapi_.obj
 0001:000248c0       ___isa_available_init      004258c0 f   MSVCRTD:_cpu_disp_.obj
 0001:00024c50       __get_startup_argv_mode    00425c50 f   MSVCRTD:argv_mode.obj
 0001:00024c60       ___scrt_is_ucrt_dll_in_use 00425c60 f   MSVCRTD:ucrt_detection.obj
 0001:00024c90       ___scrt_fastfail           00425c90 f   MSVCRTD:utility_desktop.obj
 0001:00024e20       ___scrt_get_show_window_mode 00425e20 f   MSVCRTD:utility_desktop.obj
 0001:00024e70       ___scrt_initialize_winrt   00425e70 f   MSVCRTD:utility_desktop.obj
 0001:00024e80       ___scrt_is_managed_app     00425e80 f   MSVCRTD:utility_desktop.obj
 0001:00024f30       ___scrt_set_unhandled_exception_filter 00425f30 f   MSVCRTD:utility_desktop.obj
 0001:00024f50       ___scrt_unhandled_exception_filter@4 00425f50 f   MSVCRTD:utility_desktop.obj
 0001:00024fd0       __crt_debugger_hook        00425fd0 f   MSVCRTD:utility_desktop.obj
 0001:00025080       ___security_init_cookie    00426080 f   MSVCRTD:gs_support.obj
 0001:00025120       __matherr                  00426120 f   MSVCRTD:matherr.obj
 0001:00025130       __get_startup_commit_mode  00426130 f   MSVCRTD:commit_mode.obj
 0001:00025140       __get_startup_file_mode    00426140 f   MSVCRTD:file_mode.obj
 0001:00025150       __get_startup_new_mode     00426150 f   MSVCRTD:new_mode.obj
 0001:00025160       __get_startup_thread_locale_mode 00426160 f   MSVCRTD:thread_locale.obj
 0001:00025170       ?__scrt_initialize_type_info@@YAXXZ 00426170 f   MSVCRTD:tncleanup.obj
 0001:00025190       ?__scrt_uninitialize_type_info@@YAXXZ 00426190 f   MSVCRTD:tncleanup.obj
 0001:000251b0       __should_initialize_environment 004261b0 f   MSVCRTD:env_mode.obj
 0001:000251c0       __initialize_default_precision 004261c0 f   MSVCRTD:default_precision.obj
 0001:000251f0       __initialize_invalid_parameter_handler 004261f0 f   MSVCRTD:invalid_parameter_handler.obj
 0001:00025200       __initialize_denormal_control 00426200 f   MSVCRTD:denormal_control.obj
 0001:00025210       ___local_stdio_scanf_options 00426210 f i MSVCRTD:default_local_stdio_options.obj
 0001:00025220       ___scrt_initialize_default_local_stdio_options 00426220 f   MSVCRTD:default_local_stdio_options.obj
 0001:00025270       ___scrt_is_user_matherr_present 00426270 f   MSVCRTD:matherr_detection.obj
 0001:000252a0       ___scrt_get_dyn_tls_init_callback 004262a0 f   MSVCRTD:dyn_tls_init.obj
 0001:000252b0       ___scrt_get_dyn_tls_dtor_callback 004262b0 f   MSVCRTD:dyn_tls_dtor.obj
 0001:000252c0       __RTC_Initialize           004262c0 f   MSVCRTD:_initsect_.obj
 0001:00025300       __RTC_Terminate            00426300 f   MSVCRTD:_initsect_.obj
 0001:00025340       @_guard_check_icall_nop@4  00426340 f i MSVCRTD:guard_support.obj
 0001:00025350       _ReadNoFence               00426350 f i MSVCRTD:guard_support.obj
 0001:00025370       _ReadPointerNoFence        00426370 f i MSVCRTD:guard_support.obj
 0001:00025390       __guard_icall_checks_enforced 00426390 f i MSVCRTD:guard_support.obj
 0001:000253d0       __alloca_probe             004263d0 f   MSVCRTD:chkstk.obj
 0001:000253d0       __chkstk                   004263d0 f   MSVCRTD:chkstk.obj
 0001:000259d0       ?_RTC_GetSrcLine@@YAHPAEPA_WKPAH1K@Z 004269d0 f   MSVCRTD:_pdblkup_.obj
 0001:00025dea       __CxxThrowException@8      00426dea f   vcruntimed:VCRUNTIME140D.dll
 0001:00025df0       ___CxxFrameHandler3        00426df0 f   vcruntimed:VCRUNTIME140D.dll
 0001:00025df6       __purecall                 00426df6 f   vcruntimed:VCRUNTIME140D.dll
 0001:00025dfc       _memset                    00426dfc f   vcruntimed:VCRUNTIME140D.dll
 0001:00025e02       __except_handler4_common   00426e02 f   vcruntimed:VCRUNTIME140D.dll
 0001:00025e08       ___std_exception_copy      00426e08 f   vcruntimed:VCRUNTIME140D.dll
 0001:00025e0e       ___std_exception_destroy   00426e0e f   vcruntimed:VCRUNTIME140D.dll
 0001:00025e14       ___std_type_info_destroy_list 00426e14 f   vcruntimed:VCRUNTIME140D.dll
 0001:00025e1a       ___vcrt_GetModuleFileNameW 00426e1a f   vcruntimed:VCRUNTIME140D.dll
 0001:00025e20       ___vcrt_GetModuleHandleW   00426e20 f   vcruntimed:VCRUNTIME140D.dll
 0001:00025e26       ___vcrt_LoadLibraryExW     00426e26 f   vcruntimed:VCRUNTIME140D.dll
 0001:00025e2c       __invalid_parameter        00426e2c f   ucrtd:ucrtbased.dll
 0001:00025e32       _wcscmp                    00426e32 f   ucrtd:ucrtbased.dll
 0001:00025e38       _wcstol                    00426e38 f   ucrtd:ucrtbased.dll
 0001:00025e3e       __CrtDbgReportW            00426e3e f   ucrtd:ucrtbased.dll
 0001:00025e44       __wtof                     00426e44 f   ucrtd:ucrtbased.dll
 0001:00025e4a       __wtoi                     00426e4a f   ucrtd:ucrtbased.dll
 0001:00025e50       _wcslen                    00426e50 f   ucrtd:ucrtbased.dll
 0001:00025e56       __callnewh                 00426e56 f   ucrtd:ucrtbased.dll
 0001:00025e5c       _malloc                    00426e5c f   ucrtd:ucrtbased.dll
 0001:00025e62       __free_dbg                 00426e62 f   ucrtd:ucrtbased.dll
 0001:00025e68       __CrtDbgReport             00426e68 f   ucrtd:ucrtbased.dll
 0001:00025e6e       _terminate                 00426e6e f   ucrtd:ucrtbased.dll
 0001:00025e74       __seh_filter_dll           00426e74 f   ucrtd:ucrtbased.dll
 0001:00025e7a       __configure_narrow_argv    00426e7a f   ucrtd:ucrtbased.dll
 0001:00025e80       __initialize_narrow_environment 00426e80 f   ucrtd:ucrtbased.dll
 0001:00025e86       __initialize_onexit_table  00426e86 f   ucrtd:ucrtbased.dll
 0001:00025e8c       __register_onexit_function 00426e8c f   ucrtd:ucrtbased.dll
 0001:00025e92       __execute_onexit_table     00426e92 f   ucrtd:ucrtbased.dll
 0001:00025e98       __crt_atexit               00426e98 f   ucrtd:ucrtbased.dll
 0001:00025e9e       __crt_at_quick_exit        00426e9e f   ucrtd:ucrtbased.dll
 0001:00025ea4       __cexit                    00426ea4 f   ucrtd:ucrtbased.dll
 0001:00025eaa       __seh_filter_exe           00426eaa f   ucrtd:ucrtbased.dll
 0001:00025eb0       __set_app_type             00426eb0 f   ucrtd:ucrtbased.dll
 0001:00025eb6       ___setusermatherr          00426eb6 f   ucrtd:ucrtbased.dll
 0001:00025ebc       __get_narrow_winmain_command_line 00426ebc f   ucrtd:ucrtbased.dll
 0001:00025ec2       __initterm                 00426ec2 f   ucrtd:ucrtbased.dll
 0001:00025ec8       __initterm_e               00426ec8 f   ucrtd:ucrtbased.dll
 0001:00025ece       _exit                      00426ece f   ucrtd:ucrtbased.dll
 0001:00025ed4       __exit                     00426ed4 f   ucrtd:ucrtbased.dll
 0001:00025eda       __set_fmode                00426eda f   ucrtd:ucrtbased.dll
 0001:00025ee0       __c_exit                   00426ee0 f   ucrtd:ucrtbased.dll
 0001:00025ee6       __register_thread_local_exe_atexit_callback 00426ee6 f   ucrtd:ucrtbased.dll
 0001:00025eec       __configthreadlocale       00426eec f   ucrtd:ucrtbased.dll
 0001:00025ef2       __set_new_mode             00426ef2 f   ucrtd:ucrtbased.dll
 0001:00025ef8       ___p__commode              00426ef8 f   ucrtd:ucrtbased.dll
 0001:00025efe       _strcpy_s                  00426efe f   ucrtd:ucrtbased.dll
 0001:00025f04       _strcat_s                  00426f04 f   ucrtd:ucrtbased.dll
 0001:00025f0a       ___stdio_common_vsprintf_s 00426f0a f   ucrtd:ucrtbased.dll
 0001:00025f10       __controlfp_s              00426f10 f   ucrtd:ucrtbased.dll
 0001:00025f16       __wmakepath_s              00426f16 f   ucrtd:ucrtbased.dll
 0001:00025f1c       __wsplitpath_s             00426f1c f   ucrtd:ucrtbased.dll
 0001:00025f22       _wcscpy_s                  00426f22 f   ucrtd:ucrtbased.dll
 0001:00025f28       _LocalFree@4               00426f28 f   kernel32:KERNEL32.dll
 0001:00025f2e       _GetLastError@0            00426f2e f   kernel32:KERNEL32.dll
 0001:00025f34       _UnhandledExceptionFilter@4 00426f34 f   kernel32:KERNEL32.dll
 0001:00025f3a       _SetUnhandledExceptionFilter@4 00426f3a f   kernel32:KERNEL32.dll
 0001:00025f40       _GetCurrentProcess@0       00426f40 f   kernel32:KERNEL32.dll
 0001:00025f46       _TerminateProcess@8        00426f46 f   kernel32:KERNEL32.dll
 0001:00025f4c       _IsProcessorFeaturePresent@4 00426f4c f   kernel32:KERNEL32.dll
 0001:00025f52       _IsDebuggerPresent@0       00426f52 f   kernel32:KERNEL32.dll
 0001:00025f58       _RaiseException@16         00426f58 f   kernel32:KERNEL32.dll
 0001:00025f5e       _MultiByteToWideChar@24    00426f5e f   kernel32:KERNEL32.dll
 0001:00025f64       _WideCharToMultiByte@32    00426f64 f   kernel32:KERNEL32.dll
 0001:00025f6a       _GetStartupInfoW@4         00426f6a f   kernel32:KERNEL32.dll
 0001:00025f70       _GetModuleHandleW@4        00426f70 f   kernel32:KERNEL32.dll
 0001:00025f76       _QueryPerformanceCounter@4 00426f76 f   kernel32:KERNEL32.dll
 0001:00025f7c       _GetCurrentProcessId@0     00426f7c f   kernel32:KERNEL32.dll
 0001:00025f82       _GetCurrentThreadId@0      00426f82 f   kernel32:KERNEL32.dll
 0001:00025f88       _GetSystemTimeAsFileTime@4 00426f88 f   kernel32:KERNEL32.dll
 0001:00025f8e       _InitializeSListHead@4     00426f8e f   kernel32:KERNEL32.dll
 0001:00025f94       _HeapAlloc@12              00426f94 f   kernel32:KERNEL32.dll
 0001:00025f9a       _HeapFree@12               00426f9a f   kernel32:KERNEL32.dll
 0001:00025fa0       _GetProcessHeap@0          00426fa0 f   kernel32:KERNEL32.dll
 0001:00025fa6       _VirtualQuery@12           00426fa6 f   kernel32:KERNEL32.dll
 0001:00025fac       _FreeLibrary@4             00426fac f   kernel32:KERNEL32.dll
 0001:00025fb2       _GetProcAddress@8          00426fb2 f   kernel32:KERNEL32.dll
 0001:00025fb8       _GetErrorInfo@8            00426fb8 f   oleaut32:OLEAUT32.dll
 0001:00025fbe       _VariantInit@4             00426fbe f   oleaut32:OLEAUT32.dll
 0001:00025fc4       _VariantClear@4            00426fc4 f   oleaut32:OLEAUT32.dll
 0001:00025fca       _VariantChangeType@16      00426fca f   oleaut32:OLEAUT32.dll
 0001:00025fd0       _SetErrorInfo@8            00426fd0 f   oleaut32:OLEAUT32.dll
 0001:00025fd6       _CreateErrorInfo@4         00426fd6 f   oleaut32:OLEAUT32.dll
 0001:00025fe0       ___acrt_initialize         00426fe0 f   MSVCRTD:ucrt_stubs.obj
 0001:00025fe0       ___scrt_stub_for_acrt_initialize 00426fe0 f   MSVCRTD:ucrt_stubs.obj
 0001:00025fe0       ___vcrt_initialize         00426fe0 f   MSVCRTD:ucrt_stubs.obj
 0001:00025ff0       ___acrt_thread_attach      00426ff0 f   MSVCRTD:ucrt_stubs.obj
 0001:00025ff0       ___vcrt_thread_attach      00426ff0 f   MSVCRTD:ucrt_stubs.obj
 0001:00025ff0       ___scrt_stub_for_acrt_thread_attach 00426ff0 f   MSVCRTD:ucrt_stubs.obj
 0001:00026000       ___scrt_stub_for_acrt_thread_detach 00427000 f   MSVCRTD:ucrt_stubs.obj
 0001:00026000       ___acrt_thread_detach      00427000 f   MSVCRTD:ucrt_stubs.obj
 0001:00026000       ___vcrt_thread_detach      00427000 f   MSVCRTD:ucrt_stubs.obj
 0001:00026010       ___scrt_stub_for_acrt_uninitialize 00427010 f   MSVCRTD:ucrt_stubs.obj
 0001:00026010       ___vcrt_uninitialize       00427010 f   MSVCRTD:ucrt_stubs.obj
 0001:00026010       ___acrt_uninitialize       00427010 f   MSVCRTD:ucrt_stubs.obj
 0001:00026020       ___vcrt_uninitialize_critical 00427020 f   MSVCRTD:ucrt_stubs.obj
 0001:00026020       ___acrt_uninitialize_critical 00427020 f   MSVCRTD:ucrt_stubs.obj
 0001:00026020       ___scrt_stub_for_acrt_uninitialize_critical 00427020 f   MSVCRTD:ucrt_stubs.obj
 0001:00026030       ___scrt_stub_for_is_c_termination_complete 00427030 f   MSVCRTD:ucrt_stubs.obj
 0001:00026030       __is_c_termination_complete 00427030 f   MSVCRTD:ucrt_stubs.obj
 0002:00000000       ___xc_a                    0042d000     MSVCRTD:initializers.obj
 0002:0000031c       ___xc_z                    0042d31c     MSVCRTD:initializers.obj
 0002:00000420       ___xi_a                    0042d420     MSVCRTD:initializers.obj
 0002:0000072c       ___xi_z                    0042d72c     MSVCRTD:initializers.obj
 0002:00000830       ___xp_a                    0042d830     MSVCRTD:initializers.obj
 0002:00000934       ___xp_z                    0042d934     MSVCRTD:initializers.obj
 0002:00000a38       ___xt_a                    0042da38     MSVCRTD:initializers.obj
 0002:00000b3c       ___xt_z                    0042db3c     MSVCRTD:initializers.obj
 0002:00000d64       ??_C@_17CNPHIMPH@?$AA?$CF?$AAl?$AAs?$AA?$AA@ 0042dd64     ControlEx.obj
 0002:00000d74       ??_7Brush@Gdiplus@@6B@     0042dd74     ControlEx.obj
 0002:00000d84       ??_7SolidBrush@Gdiplus@@6B@ 0042dd84     ControlEx.obj
 0002:00000d90       ??_C@_1NI@PNPFGMMJ@?$AAC?$AA?3?$AA?2?$AAP?$AAr?$AAo?$AAg?$AAr?$AAa?$AAm?$AA?5?$AAF?$AAi?$AAl?$AAe?$AAs?$AA?5?$AA?$CI?$AAx?$AA8?$AA6?$AA?$CJ?$AA?2?$AAM?$AAi?$AAc?$AAr?$AAo?$AAs?$AAo?$AAf?$AAt@ 0042dd90     ControlEx.obj
 0002:00000e94       ??_C@_1DC@POOIKBAO@?$AAI?$AAT?$AAE?$AAR?$AAA?$AAT?$AAO?$AAR?$AA?5?$AAL?$AAI?$AAS?$AAT?$AA?5?$AAC?$AAO?$AAR?$AAR?$AAU?$AAP?$AAT?$AAE?$AAD?$AA?$CB?$AA?$AA@ 0042de94     ControlEx.obj
 0002:00000ed0       ??_C@_1EE@KLDMFDFL@?$AAs?$AAt?$AAd?$AA?3?$AA?3?$AA_?$AAI?$AAt?$AAe?$AAr?$AAa?$AAt?$AAo?$AAr?$AA_?$AAb?$AAa?$AAs?$AAe?$AA1?$AA2?$AA?3?$AA?3?$AA_?$AAO?$AAr?$AAp?$AAh?$AAa?$AAn?$AA_?$AAm@ 0042ded0     ControlEx.obj
 0002:00000f24       ??_C@_1DG@PLBPCAEM@?$AA?$CC?$AAI?$AAT?$AAE?$AAR?$AAA?$AAT?$AAO?$AAR?$AA?5?$AAL?$AAI?$AAS?$AAT?$AA?5?$AAC?$AAO?$AAR?$AAR?$AAU?$AAP?$AAT?$AAE?$AAD?$AA?$CB?$AA?$CC?$AA?$AA@ 0042df24     ControlEx.obj
 0002:00000f64       ??_C@_0BE@LMNLACIC@_Ptr_container?5?$CB?$DN?50?$AA@ 0042df64     ControlEx.obj
 0002:00000f7c       ??_C@_1DG@HGDKEBPG@?$AA?$CC?$AA_?$AAP?$AAt?$AAr?$AA_?$AAc?$AAo?$AAn?$AAt?$AAa?$AAi?$AAn?$AAe?$AAr?$AA?5?$AA?$CB?$AA?$DN?$AA?5?$AA0?$AA?$CC?$AA?5?$AA?$CG?$AA?$CG?$AA?5?$AA0?$AA?$AA@ 0042df7c     ControlEx.obj
 0002:00000fc0       ??_C@_1NI@BOLJGK@?$AAC?$AA?3?$AA?2?$AAP?$AAr?$AAo?$AAg?$AAr?$AAa?$AAm?$AA?5?$AAF?$AAi?$AAl?$AAe?$AAs?$AA?5?$AA?$CI?$AAx?$AA8?$AA6?$AA?$CJ?$AA?2?$AAM?$AAi?$AAc?$AAr?$AAo?$AAs?$AAo?$AAf?$AAt@ 0042dfc0     ControlEx.obj
 0002:000010c4       ??_C@_1BO@NKFMJPA@?$AAs?$AAt?$AAd?$AA?3?$AA?3?$AA_?$AAA?$AAl?$AAl?$AAo?$AAc?$AAa?$AAt?$AAe?$AA?$AA@ 0042e0c4     ControlEx.obj
 0002:000010e8       ??_C@_1CG@JNLFBNGN@?$AA?$CC?$AAi?$AAn?$AAv?$AAa?$AAl?$AAi?$AAd?$AA?5?$AAa?$AAr?$AAg?$AAu?$AAm?$AAe?$AAn?$AAt?$AA?$CC?$AA?$AA@ 0042e0e8     ControlEx.obj
 0002:00001118       ??_C@_09GLJCAGLP@_Ptr?5?$CB?$DN?50?$AA@ 0042e118     ControlEx.obj
 0002:00001124       ??_C@_1CC@GKJLLHIM@?$AA?$CC?$AA_?$AAP?$AAt?$AAr?$AA?5?$AA?$CB?$AA?$DN?$AA?5?$AA0?$AA?$CC?$AA?5?$AA?$CG?$AA?$CG?$AA?5?$AA0?$AA?$AA@ 0042e124     ControlEx.obj
 0002:0000114c       ??_C@_1CC@LOFJFFDB@?$AAs?$AAt?$AAd?$AA?3?$AA?3?$AA_?$AAD?$AAe?$AAa?$AAl?$AAl?$AAo?$AAc?$AAa?$AAt?$AAe?$AA?$AA@ 0042e14c     ControlEx.obj
 0002:00001178       ??_C@_1NE@PPMPCMAE@?$AAC?$AA?3?$AA?2?$AAP?$AAr?$AAo?$AAg?$AAr?$AAa?$AAm?$AA?5?$AAF?$AAi?$AAl?$AAe?$AAs?$AA?5?$AA?$CI?$AAx?$AA8?$AA6?$AA?$CJ?$AA?2?$AAM?$AAi?$AAc?$AAr?$AAo?$AAs?$AAo?$AAf?$AAt@ 0042e178     ControlEx.obj
 0002:00001278       ??_C@_1DM@LHGCHCBA@?$AAv?$AAe?$AAc?$AAt?$AAo?$AAr?$AA?5?$AAs?$AAu?$AAb?$AAs?$AAc?$AAr?$AAi?$AAp?$AAt?$AA?5?$AAo?$AAu?$AAt?$AA?5?$AAo?$AAf?$AA?5?$AAr?$AAa?$AAn?$AAg?$AAe?$AA?$AA@ 0042e278     ControlEx.obj
 0002:000012c0       ??_C@_1EA@LEKOKFNB@?$AA?$CC?$AAv?$AAe?$AAc?$AAt?$AAo?$AAr?$AA?5?$AAs?$AAu?$AAb?$AAs?$AAc?$AAr?$AAi?$AAp?$AAt?$AA?5?$AAo?$AAu?$AAt?$AA?5?$AAo?$AAf?$AA?5?$AAr?$AAa?$AAn?$AAg?$AAe?$AA?$CC?$AA?$AA@ 0042e2c0     ControlEx.obj
 0002:0000130c       ??_C@_0BD@OLBABOEK@vector?$DMT?$DO?5too?5long?$AA@ 0042e30c     ControlEx.obj
 0002:00001328       ??_7CCircleProgressUI@@6B@ 0042e328     ControlEx.obj
 0002:000014e8       ??_C@_1BO@PHBPCCFH@?$AAC?$AAi?$AAr?$AAc?$AAl?$AAe?$AAP?$AAr?$AAo?$AAg?$AAr?$AAe?$AAs?$AAs?$AA?$AA@ 0042e4e8     ControlEx.obj
 0002:00001510       ??_7CMyComboUI@@6BCControlUI@DuiLib@@@ 0042e510     ControlEx.obj
 0002:00001778       ??_7CMyComboUI@@6BIContainerUI@DuiLib@@@ 0042e778     ControlEx.obj
 0002:000017a8       ??_7CMyComboUI@@6B@        0042e7a8     ControlEx.obj
 0002:000017cc       ??_C@_1BA@HKMPIKJP@?$AAM?$AAy?$AAC?$AAo?$AAm?$AAb?$AAo?$AA?$AA@ 0042e7cc     ControlEx.obj
 0002:000017e4       ??_7CChartViewUI@@6B@      0042e7e4     ControlEx.obj
 0002:000019a4       ??_7CWndUI@@6B@            0042e9a4     ControlEx.obj
 0002:00001b54       ??_C@_17EDIENEDH@?$AAW?$AAn?$AAd?$AA?$AA@ 0042eb54     ControlEx.obj
 0002:00001b60       ??_C@_1LC@KJNNPOFL@?$AAs?$AAt?$AAd?$AA?3?$AA?3?$AAv?$AAe?$AAc?$AAt?$AAo?$AAr?$AA?$DM?$AAs?$AAt?$AAr?$AAu?$AAc?$AAt?$AA?5?$AAt?$AAa?$AAg?$AAC?$AAH?$AAA?$AAR?$AAT?$AAI?$AAT?$AAE?$AAM?$AA?0@ 0042eb60     ControlEx.obj
 0002:00001c38       ??_C@_1EM@FKAOCOMF@?$AAv?$AAe?$AAc?$AAt?$AAo?$AAr?$AA?5?$AAi?$AAt?$AAe?$AAr?$AAa?$AAt?$AAo?$AAr?$AA?5?$AA?$CL?$AA?5?$AAo?$AAf?$AAf?$AAs?$AAe?$AAt?$AA?5?$AAo?$AAu?$AAt?$AA?5?$AAo?$AAf?$AA?5@ 0042ec38     ControlEx.obj
 0002:00001c98       ??_C@_1OG@HCEIIPCL@?$AAs?$AAt?$AAd?$AA?3?$AA?3?$AA_?$AAV?$AAe?$AAc?$AAt?$AAo?$AAr?$AA_?$AAc?$AAo?$AAn?$AAs?$AAt?$AA_?$AAi?$AAt?$AAe?$AAr?$AAa?$AAt?$AAo?$AAr?$AA?$DM?$AAc?$AAl?$AAa?$AAs@ 0042ec98     ControlEx.obj
 0002:00001db0       ??_C@_1FA@KEJGGFHL@?$AA?$CC?$AAv?$AAe?$AAc?$AAt?$AAo?$AAr?$AA?5?$AAi?$AAt?$AAe?$AAr?$AAa?$AAt?$AAo?$AAr?$AA?5?$AA?$CL?$AA?5?$AAo?$AAf?$AAf?$AAs?$AAe?$AAt?$AA?5?$AAo?$AAu?$AAt?$AA?5?$AAo?$AAf@ 0042edb0     ControlEx.obj
 0002:00001e10       ??_C@_1EM@ENACFCMB@?$AAv?$AAe?$AAc?$AAt?$AAo?$AAr?$AA?5?$AAe?$AAm?$AAp?$AAl?$AAa?$AAc?$AAe?$AA?5?$AAi?$AAt?$AAe?$AAr?$AAa?$AAt?$AAo?$AAr?$AA?5?$AAo?$AAu?$AAt?$AAs?$AAi?$AAd?$AAe?$AA?5@ 0042ee10     ControlEx.obj
 0002:00001e70       ??_C@_1KK@OOELANBM@?$AAs?$AAt?$AAd?$AA?3?$AA?3?$AAv?$AAe?$AAc?$AAt?$AAo?$AAr?$AA?$DM?$AAs?$AAt?$AAr?$AAu?$AAc?$AAt?$AA?5?$AAt?$AAa?$AAg?$AAC?$AAH?$AAA?$AAR?$AAT?$AAI?$AAT?$AAE?$AAM?$AA?0@ 0042ee70     ControlEx.obj
 0002:00001f40       ??_C@_1FA@JJEJIKGE@?$AA?$CC?$AAv?$AAe?$AAc?$AAt?$AAo?$AAr?$AA?5?$AAe?$AAm?$AAp?$AAl?$AAa?$AAc?$AAe?$AA?5?$AAi?$AAt?$AAe?$AAr?$AAa?$AAt?$AAo?$AAr?$AA?5?$AAo?$AAu?$AAt?$AAs?$AAi?$AAd?$AAe@ 0042ef40     ControlEx.obj
 0002:00001fa0       __real@3f800000            0042efa0     ControlEx.obj
 0002:00001fa8       __real@4076800000000000    0042efa8     ControlEx.obj
 0002:00001fb4       __real@43b40000            0042efb4     ControlEx.obj
 0002:00003360       ??_7INotifyUI@DuiLib@@6B@  00430360     MainWnd.obj
 0002:0000336c       ??_SCListLabelElementUI@DuiLib@@6BCControlUI@1@@ 0043036c     MainWnd.obj
 0002:00003524       ??_SCListTextElementUI@DuiLib@@6BCControlUI@1@@ 00430524     MainWnd.obj
 0002:000036dc       ??_SCListContainerElementUI@DuiLib@@6BCControlUI@1@@ 004306dc     MainWnd.obj
 0002:0000394c       ??_SCComboUI@DuiLib@@6BCControlUI@1@@ 0043094c     MainWnd.obj
 0002:00003bb4       ??_SCTreeNodeUI@DuiLib@@6BCControlUI@1@@ 00430bb4     MainWnd.obj
 0002:00003e24       ??_SCButtonUI@DuiLib@@6B@  00430e24     MainWnd.obj
 0002:0000402c       ??_SCOptionUI@DuiLib@@6B@  0043102c     MainWnd.obj
 0002:0000423c       ??_7CWebBrowserEventHandler@DuiLib@@6B@ 0043123c     MainWnd.obj
 0002:000042b0       __GUID_d27cdb6c_ae6d_11cf_96b8_444553540000 004312b0     MainWnd.obj
 0002:000042cc       ??_SCMenuElementUI@DuiLib@@6BCControlUI@1@@ 004312cc     MainWnd.obj
 0002:0000453c       ??_SCListTextExtElementUI@DuiLib@@6BCControlUI@1@@ 0043153c     MainWnd.obj
 0002:000046ec       ??_C@_1O@FFKDKDLA@?$AAm?$AAs?$AAg?$AAw?$AAn?$AAd?$AA?$AA@ 004316ec     MainWnd.obj
 0002:00004700       ??_7?$ObserverImplBase@HUSkinChangedParam@@@@6B@ 00431700     MainWnd.obj
 0002:00004718       ??_7?$ObserverImpl@HUSkinChangedParam@@@@6B@ 00431718     MainWnd.obj
 0002:00004734       ??_7?$ReceiverImplBase@HUSkinChangedParam@@@@6B@ 00431734     MainWnd.obj
 0002:0000474c       ??_7?$ReceiverImpl@HUSkinChangedParam@@@@6B@ 0043174c     MainWnd.obj
 0002:00004764       ?messageMap@CMainPage@@1UDUI_MSGMAP@DuiLib@@B 00431764     MainWnd.obj
 0002:00004774       ??_7CMainPage@@6B@         00431774     MainWnd.obj
 0002:00004788       ?messageMap@CMainWnd@@1UDUI_MSGMAP@DuiLib@@B 00431788     MainWnd.obj
 0002:00004798       ??_7CMainWnd@@6BCWindowWnd@DuiLib@@@ 00431798     MainWnd.obj
 0002:00004844       ??_7CMainWnd@@6BCNotifyPump@DuiLib@@@ 00431844     MainWnd.obj
 0002:00004850       ??_7CMainWnd@@6BINotifyUI@DuiLib@@@ 00431850     MainWnd.obj
 0002:0000485c       ??_7CMainWnd@@6BIMessageFilterUI@DuiLib@@@ 0043185c     MainWnd.obj
 0002:00004868       ??_7CMainWnd@@6BIDialogBuilderCallback@DuiLib@@@ 00431868     MainWnd.obj
 0002:00004874       ??_7CMainWnd@@6BIQueryControlText@DuiLib@@@ 00431874     MainWnd.obj
 0002:00004880       ??_7CMainWnd@@6BCWebBrowserEventHandler@DuiLib@@@ 00431880     MainWnd.obj
 0002:000048f8       ??_7CMainWnd@@6B?$ReceiverImpl@HUSkinChangedParam@@@@@ 004318f8     MainWnd.obj
 0002:00004914       ??_7CSkinFrame@@6BCWindowWnd@DuiLib@@@ 00431914     MainWnd.obj
 0002:00004930       ??_7CSkinFrame@@6BINotifyUI@DuiLib@@@ 00431930     MainWnd.obj
 0002:00004938       ??_C@_1BE@LICBLHJD@?$AAs?$AAk?$AAi?$AAn?$AAf?$AAr?$AAa?$AAm?$AAe?$AA?$AA@ 00431938     MainWnd.obj
 0002:00004950       ??_C@_1BI@MDEJHCDK@?$AAU?$AAI?$AAS?$AAk?$AAi?$AAn?$AAF?$AAr?$AAa?$AAm?$AAe?$AA?$AA@ 00431950     MainWnd.obj
 0002:0000496c       ??_C@_1M@LNNONFPA@?$AAc?$AAl?$AAi?$AAc?$AAk?$AA?$AA@ 0043196c     MainWnd.obj
 0002:0000497c       ??_C@_1BO@GLHJHDN@?$AAs?$AAk?$AAi?$AAn?$AA_?$AAi?$AAm?$AAa?$AAg?$AAe?$AA_?$AAb?$AAt?$AAn?$AA?$AA@ 0043197c     MainWnd.obj
 0002:000049a0       ??_C@_1BO@BGOFAEJM@?$AAs?$AAk?$AAi?$AAn?$AA_?$AAc?$AAo?$AAl?$AAo?$AAr?$AA_?$AAb?$AAt?$AAn?$AA?$AA@ 004319a0     MainWnd.obj
 0002:000049c4       ??_C@_1BG@CPJKCGOM@?$AAs?$AAk?$AAi?$AAn?$AA_?$AAc?$AAo?$AAl?$AAo?$AAr?$AA?$AA@ 004319c4     MainWnd.obj
 0002:000049e0       ??_C@_1BC@JPKLBAF@?$AAs?$AAk?$AAi?$AAn?$AA_?$AAt?$AAa?$AAb?$AA?$AA@ 004319e0     MainWnd.obj
 0002:000049f8       ??_C@_1BG@HLMAOGCK@?$AAs?$AAk?$AAi?$AAn?$AA_?$AAi?$AAm?$AAa?$AAg?$AAe?$AA?$AA@ 004319f8     MainWnd.obj
 0002:00004a14       ??_C@_1BC@NAMDPNKE@?$AAs?$AAk?$AAi?$AAn?$AA?4?$AAx?$AAm?$AAl?$AA?$AA@ 00431a14     MainWnd.obj
 0002:00004a2c       ??_C@_0BE@NJOIAKFM@Failed?5to?5parse?5XML?$AA@ 00431a2c     MainWnd.obj
 0002:00004a44       ??_C@_1DO@ODIKFOCA@?$AAp?$AAR?$AAo?$AAo?$AAt?$AA?5?$AA?$CG?$AA?$CG?$AA?5?$AA?$CC?$AAF?$AAa?$AAi?$AAl?$AAe?$AAd?$AA?5?$AAt?$AAo?$AA?5?$AAp?$AAa?$AAr?$AAs?$AAe?$AA?5?$AAX?$AAM?$AAL?$AA?$CC?$AA?$AA@ 00431a44     MainWnd.obj
 0002:00004a90       ??_C@_1HI@BFCJGLNN@?$AAe?$AA?3?$AA?2?$AAw?$AAo?$AAr?$AAk?$AA?2?$AAd?$AAu?$AAi?$AAl?$AAi?$AAb?$AA_?$AAu?$AAl?$AAt?$AAi?$AAm?$AAa?$AAt?$AAe?$AA?9?$AAm?$AAa?$AAs?$AAt?$AAe?$AAr?$AA?9?$AA?9@ 00431a90     MainWnd.obj
 0002:00004b20       ??_C@_1NC@NHGKFGCM@?$AAC?$AA?3?$AA?2?$AAP?$AAr?$AAo?$AAg?$AAr?$AAa?$AAm?$AA?5?$AAF?$AAi?$AAl?$AAe?$AAs?$AA?5?$AA?$CI?$AAx?$AA8?$AA6?$AA?$CJ?$AA?2?$AAM?$AAi?$AAc?$AAr?$AAo?$AAs?$AAo?$AAf?$AAt@ 00431b20     MainWnd.obj
 0002:00004c1c       ??_C@_1DO@CFEEPGGJ@?$AAm?$AAa?$AAp?$AA?1?$AAs?$AAe?$AAt?$AA?5?$AAi?$AAt?$AAe?$AAr?$AAa?$AAt?$AAo?$AAr?$AAs?$AA?5?$AAi?$AAn?$AAc?$AAo?$AAm?$AAp?$AAa?$AAt?$AAi?$AAb?$AAl?$AAe?$AA?$AA@ 00431c1c     MainWnd.obj
 0002:00004c68       ??_C@_1BGI@PIPCLEFI@?$AAs?$AAt?$AAd?$AA?3?$AA?3?$AA_?$AAT?$AAr?$AAe?$AAe?$AA_?$AAc?$AAo?$AAn?$AAs?$AAt?$AA_?$AAi?$AAt?$AAe?$AAr?$AAa?$AAt?$AAo?$AAr?$AA?$DM?$AAc?$AAl?$AAa?$AAs?$AAs?$AA?5@ 00431c68     MainWnd.obj
 0002:00004e18       ??_C@_1EC@JLIDLCDH@?$AA?$CC?$AAm?$AAa?$AAp?$AA?1?$AAs?$AAe?$AAt?$AA?5?$AAi?$AAt?$AAe?$AAr?$AAa?$AAt?$AAo?$AAr?$AAs?$AA?5?$AAi?$AAn?$AAc?$AAo?$AAm?$AAp?$AAa?$AAt?$AAi?$AAb?$AAl?$AAe?$AA?$CC@ 00431e18     MainWnd.obj
 0002:00004e68       ??_C@_1EG@EHJFMBHJ@?$AAm?$AAa?$AAp?$AA?1?$AAs?$AAe?$AAt?$AA?5?$AAi?$AAt?$AAe?$AAr?$AAa?$AAt?$AAo?$AAr?$AA?5?$AAn?$AAo?$AAt?$AA?5?$AAi?$AAn?$AAc?$AAr?$AAe?$AAm?$AAe?$AAn?$AAt?$AAa?$AAb@ 00431e68     MainWnd.obj
 0002:00004ec0       ??_C@_1BGI@FIAPFNJN@?$AAs?$AAt?$AAd?$AA?3?$AA?3?$AA_?$AAT?$AAr?$AAe?$AAe?$AA_?$AAc?$AAo?$AAn?$AAs?$AAt?$AA_?$AAi?$AAt?$AAe?$AAr?$AAa?$AAt?$AAo?$AAr?$AA?$DM?$AAc?$AAl?$AAa?$AAs?$AAs?$AA?5@ 00431ec0     MainWnd.obj
 0002:00005070       ??_C@_1EK@BCPDGOMC@?$AA?$CC?$AAm?$AAa?$AAp?$AA?1?$AAs?$AAe?$AAt?$AA?5?$AAi?$AAt?$AAe?$AAr?$AAa?$AAt?$AAo?$AAr?$AA?5?$AAn?$AAo?$AAt?$AA?5?$AAi?$AAn?$AAc?$AAr?$AAe?$AAm?$AAe?$AAn?$AAt?$AAa@ 00432070     MainWnd.obj
 0002:000050c8       ??_C@_1BGI@PANAGLOC@?$AAs?$AAt?$AAd?$AA?3?$AA?3?$AA_?$AAT?$AAr?$AAe?$AAe?$AA_?$AAc?$AAo?$AAn?$AAs?$AAt?$AA_?$AAi?$AAt?$AAe?$AAr?$AAa?$AAt?$AAo?$AAr?$AA?$DM?$AAc?$AAl?$AAa?$AAs?$AAs?$AA?5@ 004320c8     MainWnd.obj
 0002:00005278       ??_C@_1BGI@FACNICCH@?$AAs?$AAt?$AAd?$AA?3?$AA?3?$AA_?$AAT?$AAr?$AAe?$AAe?$AA_?$AAc?$AAo?$AAn?$AAs?$AAt?$AA_?$AAi?$AAt?$AAe?$AAr?$AAa?$AAt?$AAo?$AAr?$AA?$DM?$AAc?$AAl?$AAa?$AAs?$AAs?$AA?5@ 00432278     MainWnd.obj
 0002:00005428       ??_C@_1EI@FHEHNNNM@?$AAm?$AAa?$AAp?$AA?1?$AAs?$AAe?$AAt?$AA?5?$AAi?$AAt?$AAe?$AAr?$AAa?$AAt?$AAo?$AAr?$AA?5?$AAn?$AAo?$AAt?$AA?5?$AAd?$AAe?$AAr?$AAe?$AAf?$AAe?$AAr?$AAe?$AAn?$AAc?$AAa@ 00432428     MainWnd.obj
 0002:00005480       ??_C@_1BGG@CAKGLJH@?$AAs?$AAt?$AAd?$AA?3?$AA?3?$AA_?$AAT?$AAr?$AAe?$AAe?$AA_?$AAc?$AAo?$AAn?$AAs?$AAt?$AA_?$AAi?$AAt?$AAe?$AAr?$AAa?$AAt?$AAo?$AAr?$AA?$DM?$AAc?$AAl?$AAa?$AAs?$AAs?$AA?5@ 00432480     MainWnd.obj
 0002:00005630       ??_C@_1EM@KEKCOCNI@?$AA?$CC?$AAm?$AAa?$AAp?$AA?1?$AAs?$AAe?$AAt?$AA?5?$AAi?$AAt?$AAe?$AAr?$AAa?$AAt?$AAo?$AAr?$AA?5?$AAn?$AAo?$AAt?$AA?5?$AAd?$AAe?$AAr?$AAe?$AAf?$AAe?$AAr?$AAe?$AAn?$AAc@ 00432630     MainWnd.obj
 0002:00005690       ??_C@_1BGG@DPGPHEDE@?$AAs?$AAt?$AAd?$AA?3?$AA?3?$AA_?$AAT?$AAr?$AAe?$AAe?$AA_?$AAc?$AAo?$AAn?$AAs?$AAt?$AA_?$AAi?$AAt?$AAe?$AAr?$AAa?$AAt?$AAo?$AAr?$AA?$DM?$AAc?$AAl?$AAa?$AAs?$AAs?$AA?5@ 00432690     MainWnd.obj
 0002:00005840       ??_C@_1EK@PPDBPCAN@?$AAm?$AAa?$AAp?$AA?1?$AAs?$AAe?$AAt?$AA?5?$AAe?$AAr?$AAa?$AAs?$AAe?$AA?5?$AAi?$AAt?$AAe?$AAr?$AAa?$AAt?$AAo?$AAr?$AA?5?$AAo?$AAu?$AAt?$AAs?$AAi?$AAd?$AAe?$AA?5?$AAr@ 00432840     MainWnd.obj
 0002:00005898       ??_C@_1BNC@CGEHHFDO@?$AAs?$AAt?$AAd?$AA?3?$AA?3?$AA_?$AAT?$AAr?$AAe?$AAe?$AA?$DM?$AAc?$AAl?$AAa?$AAs?$AAs?$AA?5?$AAs?$AAt?$AAd?$AA?3?$AA?3?$AA_?$AAT?$AAm?$AAa?$AAp?$AA_?$AAt?$AAr?$AAa?$AAi@ 00432898     MainWnd.obj
 0002:00005ac8       ??_C@_1EO@CEDAEPC@?$AA?$CC?$AAm?$AAa?$AAp?$AA?1?$AAs?$AAe?$AAt?$AA?5?$AAe?$AAr?$AAa?$AAs?$AAe?$AA?5?$AAi?$AAt?$AAe?$AAr?$AAa?$AAt?$AAo?$AAr?$AA?5?$AAo?$AAu?$AAt?$AAs?$AAi?$AAd?$AAe?$AA?5@ 00432ac8     MainWnd.obj
 0002:00005b28       ??_C@_1BNC@MLMNOOON@?$AAs?$AAt?$AAd?$AA?3?$AA?3?$AA_?$AAT?$AAr?$AAe?$AAe?$AA?$DM?$AAc?$AAl?$AAa?$AAs?$AAs?$AA?5?$AAs?$AAt?$AAd?$AA?3?$AA?3?$AA_?$AAT?$AAm?$AAa?$AAp?$AA_?$AAt?$AAr?$AAa?$AAi@ 00432b28     MainWnd.obj
 0002:00005d58       ??_C@_1MO@KLGPEPEL@?$AAC?$AA?3?$AA?2?$AAP?$AAr?$AAo?$AAg?$AAr?$AAa?$AAm?$AA?5?$AAF?$AAi?$AAl?$AAe?$AAs?$AA?5?$AA?$CI?$AAx?$AA8?$AA6?$AA?$CJ?$AA?2?$AAM?$AAi?$AAc?$AAr?$AAo?$AAs?$AAo?$AAf?$AAt@ 00432d58     MainWnd.obj
 0002:00005e50       ??_C@_1CG@LEJCKCBB@?$AAi?$AAn?$AAv?$AAa?$AAl?$AAi?$AAd?$AA?5?$AAc?$AAo?$AAm?$AAp?$AAa?$AAr?$AAa?$AAt?$AAo?$AAr?$AA?$AA@ 00432e50     MainWnd.obj
 0002:00005e80       ??_C@_1CI@JONCLBEJ@?$AAs?$AAt?$AAd?$AA?3?$AA?3?$AA_?$AAD?$AAe?$AAb?$AAu?$AAg?$AA_?$AAl?$AAt?$AA_?$AAp?$AAr?$AAe?$AAd?$AA?$AA@ 00432e80     MainWnd.obj
 0002:00005eb0       ??_C@_1CK@NDNHPKPI@?$AA?$CC?$AAi?$AAn?$AAv?$AAa?$AAl?$AAi?$AAd?$AA?5?$AAc?$AAo?$AAm?$AAp?$AAa?$AAr?$AAa?$AAt?$AAo?$AAr?$AA?$CC?$AA?$AA@ 00432eb0     MainWnd.obj
 0002:00005ee8       ??_C@_1EM@MHOKKPFH@?$AAm?$AAa?$AAp?$AA?1?$AAs?$AAe?$AAt?$AA?5?$AAi?$AAn?$AAs?$AAe?$AAr?$AAt?$AA?5?$AAi?$AAt?$AAe?$AAr?$AAa?$AAt?$AAo?$AAr?$AA?5?$AAo?$AAu?$AAt?$AAs?$AAi?$AAd?$AAe?$AA?5@ 00432ee8     MainWnd.obj
 0002:00005f48       ??_C@_1BOA@GBEJINGP@?$AAs?$AAt?$AAd?$AA?3?$AA?3?$AA_?$AAT?$AAr?$AAe?$AAe?$AA?$DM?$AAc?$AAl?$AAa?$AAs?$AAs?$AA?5?$AAs?$AAt?$AAd?$AA?3?$AA?3?$AA_?$AAT?$AAm?$AAa?$AAp?$AA_?$AAt?$AAr?$AAa?$AAi@ 00432f48     MainWnd.obj
 0002:00006188       ??_C@_1FA@HNFOKDLB@?$AA?$CC?$AAm?$AAa?$AAp?$AA?1?$AAs?$AAe?$AAt?$AA?5?$AAi?$AAn?$AAs?$AAe?$AAr?$AAt?$AA?5?$AAi?$AAt?$AAe?$AAr?$AAa?$AAt?$AAo?$AAr?$AA?5?$AAo?$AAu?$AAt?$AAs?$AAi?$AAd?$AAe@ 00433188     MainWnd.obj
 0002:000061e8       ??_C@_1BOA@CMKFNJIE@?$AAs?$AAt?$AAd?$AA?3?$AA?3?$AA_?$AAT?$AAr?$AAe?$AAe?$AA?$DM?$AAc?$AAl?$AAa?$AAs?$AAs?$AA?5?$AAs?$AAt?$AAd?$AA?3?$AA?3?$AA_?$AAT?$AAm?$AAa?$AAp?$AA_?$AAt?$AAr?$AAa?$AAi@ 004331e8     MainWnd.obj
 0002:00006428       ??_C@_1EG@OKCGOALM@?$AAm?$AAa?$AAp?$AA?1?$AAs?$AAe?$AAt?$AA?5?$AAi?$AAt?$AAe?$AAr?$AAa?$AAt?$AAo?$AAr?$AA?5?$AAn?$AAo?$AAt?$AA?5?$AAd?$AAe?$AAc?$AAr?$AAe?$AAm?$AAe?$AAn?$AAt?$AAa?$AAb@ 00433428     MainWnd.obj
 0002:00006480       ??_C@_1BGI@KLDNOBFM@?$AAs?$AAt?$AAd?$AA?3?$AA?3?$AA_?$AAT?$AAr?$AAe?$AAe?$AA_?$AAc?$AAo?$AAn?$AAs?$AAt?$AA_?$AAi?$AAt?$AAe?$AAr?$AAa?$AAt?$AAo?$AAr?$AA?$DM?$AAc?$AAl?$AAa?$AAs?$AAs?$AA?5@ 00433480     MainWnd.obj
 0002:00006630       ??_C@_1EK@OIBHPACE@?$AA?$CC?$AAm?$AAa?$AAp?$AA?1?$AAs?$AAe?$AAt?$AA?5?$AAi?$AAt?$AAe?$AAr?$AAa?$AAt?$AAo?$AAr?$AA?5?$AAn?$AAo?$AAt?$AA?5?$AAd?$AAe?$AAc?$AAr?$AAe?$AAm?$AAe?$AAn?$AAt?$AAa@ 00433630     MainWnd.obj
 0002:00006688       ??_C@_1BGI@KDBPDOOG@?$AAs?$AAt?$AAd?$AA?3?$AA?3?$AA_?$AAT?$AAr?$AAe?$AAe?$AA_?$AAc?$AAo?$AAn?$AAs?$AAt?$AA_?$AAi?$AAt?$AAe?$AAr?$AAa?$AAt?$AAo?$AAr?$AA?$DM?$AAc?$AAl?$AAa?$AAs?$AAs?$AA?5@ 00433688     MainWnd.obj
 0002:00006838       ??_C@_0BE@JONHPENG@map?1set?$DMT?$DO?5too?5long?$AA@ 00433838     MainWnd.obj
 0002:00006850       __real@4020000000000000    00433850     MainWnd.obj
 0002:00006860       __real@4026000000000000    00433860     MainWnd.obj
 0002:00006870       __real@4028000000000000    00433870     MainWnd.obj
 0002:00006880       __real@402a000000000000    00433880     MainWnd.obj
 0002:00006890       __real@402e000000000000    00433890     MainWnd.obj
 0002:000068a0       __real@4031000000000000    004338a0     MainWnd.obj
 0002:000068b0       __real@4040000000000000    004338b0     MainWnd.obj
 0002:000068c0       __real@4041800000000000    004338c0     MainWnd.obj
 0002:000068d0       __real@4043000000000000    004338d0     MainWnd.obj
 0002:000069ac       ?messageMap@CMsgWnd@@1UDUI_MSGMAP@DuiLib@@B 004339ac     MsgWnd.obj
 0002:000069bc       ??_7CMsgWnd@@6BCWindowWnd@DuiLib@@@ 004339bc     MsgWnd.obj
 0002:00006a64       ??_7CMsgWnd@@6BCNotifyPump@DuiLib@@@ 00433a64     MsgWnd.obj
 0002:00006a70       ??_7CMsgWnd@@6BINotifyUI@DuiLib@@@ 00433a70     MsgWnd.obj
 0002:00006a7c       ??_7CMsgWnd@@6BIMessageFilterUI@DuiLib@@@ 00433a7c     MsgWnd.obj
 0002:00006a88       ??_7CMsgWnd@@6BIDialogBuilderCallback@DuiLib@@@ 00433a88     MsgWnd.obj
 0002:00006a94       ??_7CMsgWnd@@6BIQueryControlText@DuiLib@@@ 00433a94     MsgWnd.obj
 0002:00006c68       ?messageMap@CPopWnd@@1UDUI_MSGMAP@DuiLib@@B 00433c68     PopWnd.obj
 0002:00006c78       ??_7CPopWnd@@6BCWindowWnd@DuiLib@@@ 00433c78     PopWnd.obj
 0002:00006d2c       ??_7CPopWnd@@6BCNotifyPump@DuiLib@@@ 00433d2c     PopWnd.obj
 0002:00006d38       ??_7CPopWnd@@6BINotifyUI@DuiLib@@@ 00433d38     PopWnd.obj
 0002:00006d44       ??_7CPopWnd@@6BIMessageFilterUI@DuiLib@@@ 00433d44     PopWnd.obj
 0002:00006d50       ??_7CPopWnd@@6BIDialogBuilderCallback@DuiLib@@@ 00433d50     PopWnd.obj
 0002:00006d5c       ??_7CPopWnd@@6BIQueryControlText@DuiLib@@@ 00433d5c     PopWnd.obj
 0002:00006d64       __GUID_df0b3d60_548f_101b_8e65_08002b2bd119 00433d64     comsuppwd:comsupp.obj
 0002:00006d78       ??_7_com_error@@6B@        00433d78     comsuppwd:comraise.obj
 0002:00006d7c       __GUID_00000000_0000_0000_0000_000000000000 00433d7c     comsuppwd:invkprxy.obj
 0002:00006d90       __GUID_00020400_0000_0000_c000_000000000046 00433d90     comsuppwd:invkerr.obj
 0002:00006da4       __GUID_1cf2b120_547d_101b_8e65_08002b2bd119 00433da4     comsuppwd:invkerr.obj
 0002:00006dbc       ??_7type_info@@6B@         00433dbc     MSVCRTD:std_type_info_static.obj
 0002:00006dd4       ??_7exception@std@@6B@     00433dd4     MSVCRTD:throw_bad_alloc.obj
 0002:00006de0       ??_C@_0BC@EOODALEL@Unknown?5exception?$AA@ 00433de0     MSVCRTD:throw_bad_alloc.obj
 0002:00006dfc       ??_7bad_alloc@std@@6B@     00433dfc     MSVCRTD:throw_bad_alloc.obj
 0002:00006e08       ??_C@_0P@GHFPNOJB@bad?5allocation?$AA@ 00433e08     MSVCRTD:throw_bad_alloc.obj
 0002:00006e20       ??_7bad_array_new_length@std@@6B@ 00433e20     MSVCRTD:throw_bad_alloc.obj
 0002:00006e2c       ??_C@_0BF@KINCDENJ@bad?5array?5new?5length?$AA@ 00433e2c     MSVCRTD:throw_bad_alloc.obj
 0002:00006f08       ??_C@_0NN@NGPKDKPD@The?5value?5of?5ESP?5was?5not?5properl@ 00433f08     MSVCRTD:_error_.obj
 0002:00007018       ??_C@_0BBN@GPMLNJCF@A?5cast?5to?5a?5smaller?5data?5type?5ha@ 00434018     MSVCRTD:_error_.obj
 0002:00007170       ??_C@_0BN@FFOINMNJ@Stack?5memory?5was?5corrupted?6?$AN?$AA@ 00434170     MSVCRTD:_error_.obj
 0002:00007194       ??_C@_0DG@HKJMLLLP@A?5local?5variable?5was?5used?5before@ 00434194     MSVCRTD:_error_.obj
 0002:000071d4       ??_C@_0CM@NGINOKPC@Stack?5memory?5around?5_alloca?5was?5@ 004341d4     MSVCRTD:_error_.obj
 0002:00007208       ??_C@_0BO@GNIAFIKK@Unknown?5Runtime?5Check?5Error?6?$AN?$AA@ 00434208     MSVCRTD:_error_.obj
 0002:00007230       ??_C@_1GM@OLMCBDMB@?$AAR?$AAu?$AAn?$AAt?$AAi?$AAm?$AAe?$AA?5?$AAC?$AAh?$AAe?$AAc?$AAk?$AA?5?$AAE?$AAr?$AAr?$AAo?$AAr?$AA?4?$AA?6?$AA?$AN?$AA?5?$AAU?$AAn?$AAa?$AAb?$AAl?$AAe?$AA?5?$AAt?$AAo@ 00434230     MSVCRTD:_error_.obj
 0002:000072b8       ??_C@_1EA@NFKNIFJP@?$AAR?$AAu?$AAn?$AA?9?$AAT?$AAi?$AAm?$AAe?$AA?5?$AAC?$AAh?$AAe?$AAc?$AAk?$AA?5?$AAF?$AAa?$AAi?$AAl?$AAu?$AAr?$AAe?$AA?5?$AA?$CD?$AA?$CF?$AAd?$AA?5?$AA?9?$AA?5?$AA?$CF?$AAs?$AA?$AA@ 004342b8     MSVCRTD:_error_.obj
 0002:00007304       ??_C@_0BB@PFFGGCJP@Unknown?5Filename?$AA@ 00434304     MSVCRTD:_error_.obj
 0002:00007318       ??_C@_0BE@GNBOBNCK@Unknown?5Module?5Name?$AA@ 00434318     MSVCRTD:_error_.obj
 0002:00007330       ??_C@_0CA@IODNCDPG@Run?9Time?5Check?5Failure?5?$CD?$CFd?5?9?5?$CFs?$AA@ 00434330     MSVCRTD:_error_.obj
 0002:00007358       ??_C@_0CG@IAFNJNEE@Stack?5corrupted?5near?5unknown?5var@ 00434358     MSVCRTD:_error_.obj
 0002:00007388       ??_C@_05MKKEDADM@?$CF?42X?5?$AA@ 00434388     MSVCRTD:_error_.obj
 0002:00007390       ??_C@_0EJ@LJKNEOLN@Stack?5area?5around?5_alloca?5memory@ 00434390     MSVCRTD:_error_.obj
 0002:000073e8       ??_C@_01EEMJAFIK@?6?$AA@   004343e8     MSVCRTD:_error_.obj
 0002:000073ec       ??_C@_02LLMPMKNF@?$DO?5?$AA@ 004343ec     MSVCRTD:_error_.obj
 0002:000073f0       ??_C@_08OMAHNMHJ@?6Data?3?5?$DM?$AA@ 004343f0     MSVCRTD:_error_.obj
 0002:000073fc       ??_C@_0CK@DKGBICFE@?6Allocation?5number?5within?5this?5f@ 004343fc     MSVCRTD:_error_.obj
 0002:00007430       ??_C@_07DFDJCKFN@?6Size?3?5?$AA@ 00434430     MSVCRTD:_error_.obj
 0002:0000743c       ??_C@_0N@MHFFIMFG@?6Address?3?50x?$AA@ 0043443c     MSVCRTD:_error_.obj
 0002:00007450       ??_C@_0EI@CLEPFNGI@Stack?5area?5around?5_alloca?5memory@ 00434450     MSVCRTD:_error_.obj
 0002:000074a8       ??_C@_0BK@ODNDAGKB@?$CFs?$CFs?$CFp?$CFs?$CFzd?$CFs?$CFd?$CFs?$CFs?$CFs?$CFs?$CFs?$AA@ 004344a8     MSVCRTD:_error_.obj
 0002:000074c8       ??_C@_0DE@OHJBPMBP@A?5variable?5is?5being?5used?5without@ 004344c8     MSVCRTD:_error_.obj
 0002:00007520       ??_C@_0BJ@HEGAHDFO@Stack?5pointer?5corruption?$AA@ 00434520     MSVCRTD:_userapi_.obj
 0002:00007540       ??_C@_0CK@FEGOIOPB@Cast?5to?5smaller?5type?5causing?5los@ 00434540     MSVCRTD:_userapi_.obj
 0002:00007574       ??_C@_0BI@CIGMDCBH@Stack?5memory?5corruption?$AA@ 00434574     MSVCRTD:_userapi_.obj
 0002:00007590       ??_C@_0CK@CNLNOEPB@Local?5variable?5used?5before?5initi@ 00434590     MSVCRTD:_userapi_.obj
 0002:000075c4       ??_C@_0BP@OGBCLIBO@Stack?5around?5_alloca?5corrupted?$AA@ 004345c4     MSVCRTD:_userapi_.obj
 0002:00007648       ??_C@_1EI@MLPKHBGE@?$AAa?$AAp?$AAi?$AA?9?$AAm?$AAs?$AA?9?$AAw?$AAi?$AAn?$AA?9?$AAc?$AAo?$AAr?$AAe?$AA?9?$AAr?$AAe?$AAg?$AAi?$AAs?$AAt?$AAr?$AAy?$AA?9?$AAl?$AA1?$AA?9?$AA1?$AA?9?$AA0?$AA?4@ 00434648     MSVCRTD:_pdblkup_.obj
 0002:000076a0       ??_C@_1BK@JHLNAEJL@?$AAa?$AAd?$AAv?$AAa?$AAp?$AAi?$AA3?$AA2?$AA?4?$AAd?$AAl?$AAl?$AA?$AA@ 004346a0     MSVCRTD:_pdblkup_.obj
 0002:000076c0       ??_C@_0O@COHOBMLB@RegOpenKeyExW?$AA@ 004346c0     MSVCRTD:_pdblkup_.obj
 0002:000076d0       ??_C@_0BB@GLNAEDBD@RegQueryValueExW?$AA@ 004346d0     MSVCRTD:_pdblkup_.obj
 0002:000076e4       ??_C@_0M@HLOHPNFA@RegCloseKey?$AA@ 004346e4     MSVCRTD:_pdblkup_.obj
 0002:000076f8       ??_C@_1HE@EBEAGLFB@?$AAS?$AAO?$AAF?$AAT?$AAW?$AAA?$AAR?$AAE?$AA?2?$AAW?$AAo?$AAw?$AA6?$AA4?$AA3?$AA2?$AAN?$AAo?$AAd?$AAe?$AA?2?$AAM?$AAi?$AAc?$AAr?$AAo?$AAs?$AAo?$AAf?$AAt?$AA?2?$AAV@ 004346f8     MSVCRTD:_pdblkup_.obj
 0002:00007784       ??_C@_1BG@EABPBLLF@?$AAP?$AAr?$AAo?$AAd?$AAu?$AAc?$AAt?$AAD?$AAi?$AAr?$AA?$AA@ 00434784     MSVCRTD:_pdblkup_.obj
 0002:000077c4       ??_C@_1BC@JINFINNJ@?$AAM?$AAS?$AAP?$AAD?$AAB?$AA1?$AA4?$AA0?$AA?$AA@ 004347c4     MSVCRTD:_pdblkup_.obj
 0002:000077dc       ??_C@_0BB@KCIACLNC@PDBOpenValidate5?$AA@ 004347dc     MSVCRTD:_pdblkup_.obj
 0002:000077f0       ??_C@_01KDCPPGHE@r?$AA@    004347f0     MSVCRTD:_pdblkup_.obj
 0002:00007838       __load_config_used         00434838     MSVCRTD:loadcfg.obj
 0002:00007aa0       ??_R4Brush@Gdiplus@@6B@    00434aa0     ControlEx.obj
 0002:00007ab8       ??_R3Brush@Gdiplus@@8      00434ab8     ControlEx.obj
 0002:00007acc       ??_R2Brush@Gdiplus@@8      00434acc     ControlEx.obj
 0002:00007ad8       ??_R1A@?0A@EA@Brush@Gdiplus@@8 00434ad8     ControlEx.obj
 0002:00007afc       ??_R13?0A@EA@GdiplusBase@Gdiplus@@8 00434afc     ControlEx.obj
 0002:00007b20       ??_R3GdiplusBase@Gdiplus@@8 00434b20     ControlEx.obj
 0002:00007b34       ??_R2GdiplusBase@Gdiplus@@8 00434b34     ControlEx.obj
 0002:00007b3c       ??_R1A@?0A@EA@GdiplusBase@Gdiplus@@8 00434b3c     ControlEx.obj
 0002:00007b60       ??_R4SolidBrush@Gdiplus@@6B@ 00434b60     ControlEx.obj
 0002:00007b78       ??_R3SolidBrush@Gdiplus@@8 00434b78     ControlEx.obj
 0002:00007b8c       ??_R2SolidBrush@Gdiplus@@8 00434b8c     ControlEx.obj
 0002:00007b9c       ??_R1A@?0A@EA@SolidBrush@Gdiplus@@8 00434b9c     ControlEx.obj
 0002:00007bc0       ??_R4CCircleProgressUI@@6B@ 00434bc0     ControlEx.obj
 0002:00007bd8       ??_R3CCircleProgressUI@@8  00434bd8     ControlEx.obj
 0002:00007bec       ??_R2CCircleProgressUI@@8  00434bec     ControlEx.obj
 0002:00007c00       ??_R1A@?0A@EA@CCircleProgressUI@@8 00434c00     ControlEx.obj
 0002:00007c24       ??_R1A@?0A@EA@CProgressUI@DuiLib@@8 00434c24     ControlEx.obj
 0002:00007c48       ??_R3CProgressUI@DuiLib@@8 00434c48     ControlEx.obj
 0002:00007c5c       ??_R2CProgressUI@DuiLib@@8 00434c5c     ControlEx.obj
 0002:00007c6c       ??_R1A@?0A@EA@CLabelUI@DuiLib@@8 00434c6c     ControlEx.obj
 0002:00007c90       ??_R3CLabelUI@DuiLib@@8    00434c90     ControlEx.obj
 0002:00007ca4       ??_R2CLabelUI@DuiLib@@8    00434ca4     ControlEx.obj
 0002:00007cb0       ??_R1A@?0A@EA@CControlUI@DuiLib@@8 00434cb0     ControlEx.obj
 0002:00007cd4       ??_R3CControlUI@DuiLib@@8  00434cd4     ControlEx.obj
 0002:00007ce8       ??_R2CControlUI@DuiLib@@8  00434ce8     ControlEx.obj
 0002:00007cf0       ??_R4CMyComboUI@@6BCControlUI@DuiLib@@@ 00434cf0     ControlEx.obj
 0002:00007d08       ??_R3CMyComboUI@@8         00434d08     ControlEx.obj
 0002:00007d1c       ??_R2CMyComboUI@@8         00434d1c     ControlEx.obj
 0002:00007d3c       ??_R1A@?0A@EA@CMyComboUI@@8 00434d3c     ControlEx.obj
 0002:00007d60       ??_R1A@?0A@EA@CComboUI@DuiLib@@8 00434d60     ControlEx.obj
 0002:00007d84       ??_R3CComboUI@DuiLib@@8    00434d84     ControlEx.obj
 0002:00007d98       ??_R2CComboUI@DuiLib@@8    00434d98     ControlEx.obj
 0002:00007db4       ??_R1A@?0A@EA@CContainerUI@DuiLib@@8 00434db4     ControlEx.obj
 0002:00007dd8       ??_R3CContainerUI@DuiLib@@8 00434dd8     ControlEx.obj
 0002:00007dec       ??_R2CContainerUI@DuiLib@@8 00434dec     ControlEx.obj
 0002:00007dfc       ??_R1FFA@?0A@EA@IContainerUI@DuiLib@@8 00434dfc     ControlEx.obj
 0002:00007e20       ??_R3IContainerUI@DuiLib@@8 00434e20     ControlEx.obj
 0002:00007e34       ??_R2IContainerUI@DuiLib@@8 00434e34     ControlEx.obj
 0002:00007e3c       ??_R1A@?0A@EA@IContainerUI@DuiLib@@8 00434e3c     ControlEx.obj
 0002:00007e60       ??_R1GJI@?0A@EA@IListOwnerUI@DuiLib@@8 00434e60     ControlEx.obj
 0002:00007e84       ??_R3IListOwnerUI@DuiLib@@8 00434e84     ControlEx.obj
 0002:00007e98       ??_R2IListOwnerUI@DuiLib@@8 00434e98     ControlEx.obj
 0002:00007ea0       ??_R1A@?0A@EA@IListOwnerUI@DuiLib@@8 00434ea0     ControlEx.obj
 0002:00007ec4       ??_R4CMyComboUI@@6BIContainerUI@DuiLib@@@ 00434ec4     ControlEx.obj
 0002:00007edc       ??_R4CMyComboUI@@6B@       00434edc     ControlEx.obj
 0002:00007ef4       ??_R4CChartViewUI@@6B@     00434ef4     ControlEx.obj
 0002:00007f0c       ??_R3CChartViewUI@@8       00434f0c     ControlEx.obj
 0002:00007f20       ??_R2CChartViewUI@@8       00434f20     ControlEx.obj
 0002:00007f2c       ??_R1A@?0A@EA@CChartViewUI@@8 00434f2c     ControlEx.obj
 0002:00007f50       ??_R4CWndUI@@6B@           00434f50     ControlEx.obj
 0002:00007f68       ??_R3CWndUI@@8             00434f68     ControlEx.obj
 0002:00007f7c       ??_R2CWndUI@@8             00434f7c     ControlEx.obj
 0002:00007f88       ??_R1A@?0A@EA@CWndUI@@8    00434f88     ControlEx.obj
 0002:00007fac       ??_R4INotifyUI@DuiLib@@6B@ 00434fac     MainWnd.obj
 0002:00007fc4       ??_R3INotifyUI@DuiLib@@8   00434fc4     MainWnd.obj
 0002:00007fd8       ??_R2INotifyUI@DuiLib@@8   00434fd8     MainWnd.obj
 0002:00007fe0       ??_R1A@?0A@EA@INotifyUI@DuiLib@@8 00434fe0     MainWnd.obj
 0002:00008004       ??_R3IMessageFilterUI@DuiLib@@8 00435004     MainWnd.obj
 0002:00008018       ??_R2IMessageFilterUI@DuiLib@@8 00435018     MainWnd.obj
 0002:00008020       ??_R1A@?0A@EA@IMessageFilterUI@DuiLib@@8 00435020     MainWnd.obj
 0002:00008044       ??_R3IDialogBuilderCallback@DuiLib@@8 00435044     MainWnd.obj
 0002:00008058       ??_R2IDialogBuilderCallback@DuiLib@@8 00435058     MainWnd.obj
 0002:00008060       ??_R1A@?0A@EA@IDialogBuilderCallback@DuiLib@@8 00435060     MainWnd.obj
 0002:00008084       ??_R4CWebBrowserEventHandler@DuiLib@@6B@ 00435084     MainWnd.obj
 0002:0000809c       ??_R3CWebBrowserEventHandler@DuiLib@@8 0043509c     MainWnd.obj
 0002:000080b0       ??_R2CWebBrowserEventHandler@DuiLib@@8 004350b0     MainWnd.obj
 0002:000080b8       ??_R1A@?0A@EA@CWebBrowserEventHandler@DuiLib@@8 004350b8     MainWnd.obj
 0002:000080dc       ??_R4CListLabelElementUI@DuiLib@@6BCControlUI@1@@ 004350dc     MainWnd.obj
 0002:000080f4       ??_R3CListLabelElementUI@DuiLib@@8 004350f4     MainWnd.obj
 0002:00008108       ??_R2CListLabelElementUI@DuiLib@@8 00435108     MainWnd.obj
 0002:0000811c       ??_R1A@?0A@EA@CListLabelElementUI@DuiLib@@8 0043511c     MainWnd.obj
 0002:00008140       ??_R1A@?0A@EA@CListElementUI@DuiLib@@8 00435140     MainWnd.obj
 0002:00008164       ??_R3CListElementUI@DuiLib@@8 00435164     MainWnd.obj
 0002:00008178       ??_R2CListElementUI@DuiLib@@8 00435178     MainWnd.obj
 0002:00008188       ??_R1FFA@?0A@EA@IListItemUI@DuiLib@@8 00435188     MainWnd.obj
 0002:000081ac       ??_R3IListItemUI@DuiLib@@8 004351ac     MainWnd.obj
 0002:000081c0       ??_R2IListItemUI@DuiLib@@8 004351c0     MainWnd.obj
 0002:000081c8       ??_R1A@?0A@EA@IListItemUI@DuiLib@@8 004351c8     MainWnd.obj
 0002:000081ec       ??_R4CListTextElementUI@DuiLib@@6BCControlUI@1@@ 004351ec     MainWnd.obj
 0002:00008204       ??_R3CListTextElementUI@DuiLib@@8 00435204     MainWnd.obj
 0002:00008218       ??_R2CListTextElementUI@DuiLib@@8 00435218     MainWnd.obj
 0002:00008234       ??_R1A@?0A@EA@CListTextElementUI@DuiLib@@8 00435234     MainWnd.obj
 0002:00008258       ??_R4CListContainerElementUI@DuiLib@@6BCControlUI@1@@ 00435258     MainWnd.obj
 0002:00008270       ??_R3CListContainerElementUI@DuiLib@@8 00435270     MainWnd.obj
 0002:00008284       ??_R2CListContainerElementUI@DuiLib@@8 00435284     MainWnd.obj
 0002:000082a4       ??_R1A@?0A@EA@CListContainerElementUI@DuiLib@@8 004352a4     MainWnd.obj
 0002:000082c8       ??_R1A@?0A@EA@CHorizontalLayoutUI@DuiLib@@8 004352c8     MainWnd.obj
 0002:000082ec       ??_R3CHorizontalLayoutUI@DuiLib@@8 004352ec     MainWnd.obj
 0002:00008300       ??_R2CHorizontalLayoutUI@DuiLib@@8 00435300     MainWnd.obj
 0002:00008314       ??_R1GMA@?0A@EA@IListItemUI@DuiLib@@8 00435314     MainWnd.obj
 0002:00008338       ??_R4CComboUI@DuiLib@@6BCControlUI@1@@ 00435338     MainWnd.obj
 0002:00008350       ??_R4COptionUI@DuiLib@@6B@ 00435350     MainWnd.obj
 0002:00008368       ??_R3COptionUI@DuiLib@@8   00435368     MainWnd.obj
 0002:0000837c       ??_R2COptionUI@DuiLib@@8   0043537c     MainWnd.obj
 0002:00008390       ??_R1A@?0A@EA@COptionUI@DuiLib@@8 00435390     MainWnd.obj
 0002:000083b4       ??_R1A@?0A@EA@CButtonUI@DuiLib@@8 004353b4     MainWnd.obj
 0002:000083d8       ??_R3CButtonUI@DuiLib@@8   004353d8     MainWnd.obj
 0002:000083ec       ??_R2CButtonUI@DuiLib@@8   004353ec     MainWnd.obj
 0002:000083fc       ??_R4CTreeNodeUI@DuiLib@@6BCControlUI@1@@ 004353fc     MainWnd.obj
 0002:00008414       ??_R3CTreeNodeUI@DuiLib@@8 00435414     MainWnd.obj
 0002:00008428       ??_R2CTreeNodeUI@DuiLib@@8 00435428     MainWnd.obj
 0002:0000844c       ??_R1A@?0A@EA@CTreeNodeUI@DuiLib@@8 0043544c     MainWnd.obj
 0002:00008470       ??_R4CButtonUI@DuiLib@@6B@ 00435470     MainWnd.obj
 0002:00008488       ??_R4CMenuElementUI@DuiLib@@6BCControlUI@1@@ 00435488     MainWnd.obj
 0002:000084a0       ??_R3CMenuElementUI@DuiLib@@8 004354a0     MainWnd.obj
 0002:000084b4       ??_R2CMenuElementUI@DuiLib@@8 004354b4     MainWnd.obj
 0002:000084d8       ??_R1A@?0A@EA@CMenuElementUI@DuiLib@@8 004354d8     MainWnd.obj
 0002:000084fc       ??_R4CListTextExtElementUI@DuiLib@@6BCControlUI@1@@ 004354fc     MainWnd.obj
 0002:00008514       ??_R3CListTextExtElementUI@DuiLib@@8 00435514     MainWnd.obj
 0002:00008528       ??_R2CListTextExtElementUI@DuiLib@@8 00435528     MainWnd.obj
 0002:00008544       ??_R1A@?0A@EA@CListTextExtElementUI@DuiLib@@8 00435544     MainWnd.obj
 0002:00008568       ??_R4?$ObserverImpl@HUSkinChangedParam@@@@6B@ 00435568     MainWnd.obj
 0002:00008580       ??_R3?$ObserverImpl@HUSkinChangedParam@@@@8 00435580     MainWnd.obj
 0002:00008594       ??_R2?$ObserverImpl@HUSkinChangedParam@@@@8 00435594     MainWnd.obj
 0002:000085a0       ??_R1A@?0A@EA@?$ObserverImpl@HUSkinChangedParam@@@@8 004355a0     MainWnd.obj
 0002:000085c4       ??_R1A@?0A@EA@?$ObserverImplBase@HUSkinChangedParam@@@@8 004355c4     MainWnd.obj
 0002:000085e8       ??_R3?$ObserverImplBase@HUSkinChangedParam@@@@8 004355e8     MainWnd.obj
 0002:000085fc       ??_R2?$ObserverImplBase@HUSkinChangedParam@@@@8 004355fc     MainWnd.obj
 0002:00008604       ??_R4?$ReceiverImpl@HUSkinChangedParam@@@@6B@ 00435604     MainWnd.obj
 0002:0000861c       ??_R3?$ReceiverImpl@HUSkinChangedParam@@@@8 0043561c     MainWnd.obj
 0002:00008630       ??_R2?$ReceiverImpl@HUSkinChangedParam@@@@8 00435630     MainWnd.obj
 0002:0000863c       ??_R1A@?0A@EA@?$ReceiverImpl@HUSkinChangedParam@@@@8 0043563c     MainWnd.obj
 0002:00008660       ??_R1A@?0A@EA@?$ReceiverImplBase@HUSkinChangedParam@@@@8 00435660     MainWnd.obj
 0002:00008684       ??_R3?$ReceiverImplBase@HUSkinChangedParam@@@@8 00435684     MainWnd.obj
 0002:00008698       ??_R2?$ReceiverImplBase@HUSkinChangedParam@@@@8 00435698     MainWnd.obj
 0002:000086a0       ??_R4?$ObserverImplBase@HUSkinChangedParam@@@@6B@ 004356a0     MainWnd.obj
 0002:000086b8       ??_R4?$ReceiverImplBase@HUSkinChangedParam@@@@6B@ 004356b8     MainWnd.obj
 0002:000086d0       ??_R4CMainPage@@6B@        004356d0     MainWnd.obj
 0002:000086e8       ??_R3CMainPage@@8          004356e8     MainWnd.obj
 0002:000086fc       ??_R2CMainPage@@8          004356fc     MainWnd.obj
 0002:00008708       ??_R1A@?0A@EA@CMainPage@@8 00435708     MainWnd.obj
 0002:0000872c       ??_R1A@?0A@EA@CNotifyPump@DuiLib@@8 0043572c     MainWnd.obj
 0002:00008750       ??_R3CNotifyPump@DuiLib@@8 00435750     MainWnd.obj
 0002:00008764       ??_R2CNotifyPump@DuiLib@@8 00435764     MainWnd.obj
 0002:0000876c       ??_R4CMainWnd@@6BCWindowWnd@DuiLib@@@ 0043576c     MainWnd.obj
 0002:00008784       ??_R3CMainWnd@@8           00435784     MainWnd.obj
 0002:00008798       ??_R2CMainWnd@@8           00435798     MainWnd.obj
 0002:000087d0       ??_R1A@?0A@EA@CMainWnd@@8  004357d0     MainWnd.obj
 0002:000087f4       ??_R1A@?0A@EA@WindowImplBase@DuiLib@@8 004357f4     MainWnd.obj
 0002:00008818       ??_R3WindowImplBase@DuiLib@@8 00435818     MainWnd.obj
 0002:0000882c       ??_R2WindowImplBase@DuiLib@@8 0043582c     MainWnd.obj
 0002:00008850       ??_R1A@?0A@EA@CWindowWnd@DuiLib@@8 00435850     MainWnd.obj
 0002:00008874       ??_R3CWindowWnd@DuiLib@@8  00435874     MainWnd.obj
 0002:00008888       ??_R2CWindowWnd@DuiLib@@8  00435888     MainWnd.obj
 0002:00008890       ??_R1BA@?0A@EA@CNotifyPump@DuiLib@@8 00435890     MainWnd.obj
 0002:000088b4       ??_R1CA@?0A@EA@INotifyUI@DuiLib@@8 004358b4     MainWnd.obj
 0002:000088d8       ??_R1CE@?0A@EA@IMessageFilterUI@DuiLib@@8 004358d8     MainWnd.obj
 0002:000088fc       ??_R1CI@?0A@EA@IDialogBuilderCallback@DuiLib@@8 004358fc     MainWnd.obj
 0002:00008920       ??_R1CM@?0A@EA@IQueryControlText@DuiLib@@8 00435920     MainWnd.obj
 0002:00008944       ??_R3IQueryControlText@DuiLib@@8 00435944     MainWnd.obj
 0002:00008958       ??_R2IQueryControlText@DuiLib@@8 00435958     MainWnd.obj
 0002:00008960       ??_R1A@?0A@EA@IQueryControlText@DuiLib@@8 00435960     MainWnd.obj
 0002:00008984       ??_R1EHM@?0A@EA@CWebBrowserEventHandler@DuiLib@@8 00435984     MainWnd.obj
 0002:000089a8       ??_R1EIA@?0A@EA@?$ReceiverImpl@HUSkinChangedParam@@@@8 004359a8     MainWnd.obj
 0002:000089cc       ??_R1EIA@?0A@EA@?$ReceiverImplBase@HUSkinChangedParam@@@@8 004359cc     MainWnd.obj
 0002:000089f0       ??_R4CMainWnd@@6BCNotifyPump@DuiLib@@@ 004359f0     MainWnd.obj
 0002:00008a08       ??_R4CMainWnd@@6BINotifyUI@DuiLib@@@ 00435a08     MainWnd.obj
 0002:00008a20       ??_R4CMainWnd@@6BIMessageFilterUI@DuiLib@@@ 00435a20     MainWnd.obj
 0002:00008a38       ??_R4CMainWnd@@6BIDialogBuilderCallback@DuiLib@@@ 00435a38     MainWnd.obj
 0002:00008a50       ??_R4CMainWnd@@6BIQueryControlText@DuiLib@@@ 00435a50     MainWnd.obj
 0002:00008a68       ??_R4CMainWnd@@6BCWebBrowserEventHandler@DuiLib@@@ 00435a68     MainWnd.obj
 0002:00008a80       ??_R4CMainWnd@@6B?$ReceiverImpl@HUSkinChangedParam@@@@@ 00435a80     MainWnd.obj
 0002:00008a98       ??_R4CSkinFrame@@6BCWindowWnd@DuiLib@@@ 00435a98     MainWnd.obj
 0002:00008ab0       ??_R3CSkinFrame@@8         00435ab0     MainWnd.obj
 0002:00008ac4       ??_R2CSkinFrame@@8         00435ac4     MainWnd.obj
 0002:00008ad4       ??_R1A@?0A@EA@CSkinFrame@@8 00435ad4     MainWnd.obj
 0002:00008af8       ??_R1BA@?0A@EA@INotifyUI@DuiLib@@8 00435af8     MainWnd.obj
 0002:00008b1c       ??_R4CSkinFrame@@6BINotifyUI@DuiLib@@@ 00435b1c     MainWnd.obj
 0002:00008b34       ??_R4CMsgWnd@@6BCWindowWnd@DuiLib@@@ 00435b34     MsgWnd.obj
 0002:00008b4c       ??_R3CMsgWnd@@8            00435b4c     MsgWnd.obj
 0002:00008b60       ??_R2CMsgWnd@@8            00435b60     MsgWnd.obj
 0002:00008b88       ??_R1A@?0A@EA@CMsgWnd@@8   00435b88     MsgWnd.obj
 0002:00008bac       ??_R4CMsgWnd@@6BCNotifyPump@DuiLib@@@ 00435bac     MsgWnd.obj
 0002:00008bc4       ??_R4CMsgWnd@@6BINotifyUI@DuiLib@@@ 00435bc4     MsgWnd.obj
 0002:00008bdc       ??_R4CMsgWnd@@6BIMessageFilterUI@DuiLib@@@ 00435bdc     MsgWnd.obj
 0002:00008bf4       ??_R4CMsgWnd@@6BIDialogBuilderCallback@DuiLib@@@ 00435bf4     MsgWnd.obj
 0002:00008c0c       ??_R4CMsgWnd@@6BIQueryControlText@DuiLib@@@ 00435c0c     MsgWnd.obj
 0002:00008c24       ??_R4CPopWnd@@6BCWindowWnd@DuiLib@@@ 00435c24     PopWnd.obj
 0002:00008c3c       ??_R3CPopWnd@@8            00435c3c     PopWnd.obj
 0002:00008c50       ??_R2CPopWnd@@8            00435c50     PopWnd.obj
 0002:00008c78       ??_R1A@?0A@EA@CPopWnd@@8   00435c78     PopWnd.obj
 0002:00008c9c       ??_R4CPopWnd@@6BCNotifyPump@DuiLib@@@ 00435c9c     PopWnd.obj
 0002:00008cb4       ??_R4CPopWnd@@6BINotifyUI@DuiLib@@@ 00435cb4     PopWnd.obj
 0002:00008ccc       ??_R4CPopWnd@@6BIMessageFilterUI@DuiLib@@@ 00435ccc     PopWnd.obj
 0002:00008ce4       ??_R4CPopWnd@@6BIDialogBuilderCallback@DuiLib@@@ 00435ce4     PopWnd.obj
 0002:00008cfc       ??_R4CPopWnd@@6BIQueryControlText@DuiLib@@@ 00435cfc     PopWnd.obj
 0002:00008d14       ??_R4type_info@@6B@        00435d14     MSVCRTD:std_type_info_static.obj
 0002:00008d2c       ??_R3type_info@@8          00435d2c     MSVCRTD:std_type_info_static.obj
 0002:00008d40       ??_R2type_info@@8          00435d40     MSVCRTD:std_type_info_static.obj
 0002:00008d48       ??_R1A@?0A@EA@type_info@@8 00435d48     MSVCRTD:std_type_info_static.obj
 0002:00008d6c       ??_R4exception@std@@6B@    00435d6c     MSVCRTD:throw_bad_alloc.obj
 0002:00008d84       ??_R3exception@std@@8      00435d84     MSVCRTD:throw_bad_alloc.obj
 0002:00008d98       ??_R2exception@std@@8      00435d98     MSVCRTD:throw_bad_alloc.obj
 0002:00008da0       ??_R1A@?0A@EA@exception@std@@8 00435da0     MSVCRTD:throw_bad_alloc.obj
 0002:00008dc4       ??_R4bad_alloc@std@@6B@    00435dc4     MSVCRTD:throw_bad_alloc.obj
 0002:00008ddc       ??_R3bad_alloc@std@@8      00435ddc     MSVCRTD:throw_bad_alloc.obj
 0002:00008df0       ??_R2bad_alloc@std@@8      00435df0     MSVCRTD:throw_bad_alloc.obj
 0002:00008dfc       ??_R1A@?0A@EA@bad_alloc@std@@8 00435dfc     MSVCRTD:throw_bad_alloc.obj
 0002:00008e20       ??_R4bad_array_new_length@std@@6B@ 00435e20     MSVCRTD:throw_bad_alloc.obj
 0002:00008e38       ??_R3bad_array_new_length@std@@8 00435e38     MSVCRTD:throw_bad_alloc.obj
 0002:00008e4c       ??_R2bad_array_new_length@std@@8 00435e4c     MSVCRTD:throw_bad_alloc.obj
 0002:00008e5c       ??_R1A@?0A@EA@bad_array_new_length@std@@8 00435e5c     MSVCRTD:throw_bad_alloc.obj
 0002:00009000       ___safe_se_handler_table   00436000     <linker-defined>
 0002:00009478       ___rtc_iaa                 00436478     MSVCRTD:_initsect_.obj
 0002:000096ac       ___rtc_izz                 004366ac     MSVCRTD:_initsect_.obj
 0002:000097b0       ___rtc_taa                 004367b0     MSVCRTD:_initsect_.obj
 0002:000099e4       ___rtc_tzz                 004369e4     MSVCRTD:_initsect_.obj
 0002:0000b508       __TI1?AV_com_error@@       00438508     comsuppwd:comraise.obj
 0002:0000b51c       __CTA1?AV_com_error@@      0043851c     comsuppwd:comraise.obj
 0002:0000b524       __CT??_R0?AV_com_error@@@8??0_com_error@@QAE@ABV0@@Z16 00438524     comsuppwd:comraise.obj
 0002:0000b5e8       __TI2?AVbad_alloc@std@@    004385e8     MSVCRTD:throw_bad_alloc.obj
 0002:0000b5fc       __CTA2?AVbad_alloc@std@@   004385fc     MSVCRTD:throw_bad_alloc.obj
 0002:0000b60c       __CT??_R0?AVbad_alloc@std@@@8??0bad_alloc@std@@QAE@ABV01@@Z12 0043860c     MSVCRTD:throw_bad_alloc.obj
 0002:0000b62c       __CT??_R0?AVexception@std@@@8??0exception@std@@QAE@ABV01@@Z12 0043862c     MSVCRTD:throw_bad_alloc.obj
 0002:0000b64c       __TI3?AVbad_array_new_length@std@@ 0043864c     MSVCRTD:throw_bad_alloc.obj
 0002:0000b660       __CTA3?AVbad_array_new_length@std@@ 00438660     MSVCRTD:throw_bad_alloc.obj
 0002:0000b674       __CT??_R0?AVbad_array_new_length@std@@@8??0bad_array_new_length@std@@QAE@ABV01@@Z12 00438674     MSVCRTD:throw_bad_alloc.obj
 0003:00000058       ?__errorPfn@@3P6GXJPAUIErrorInfo@@@ZA 00439058     comsuppwd:comsupp.obj
 0003:0000005c       ___security_cookie         0043905c     MSVCRTD:gs_cookie.obj
 0003:00000060       ___security_cookie_complement 00439060     MSVCRTD:gs_cookie.obj
 0003:00000068       __fltused                  00439068     MSVCRTD:fltused.obj
 0003:0000006c       ___scrt_native_dllmain_reason 0043906c     MSVCRTD:utility.obj
 0003:00000070       ?_RTC_ErrorLevels@@3PAHA   00439070     MSVCRTD:_error_.obj
 0003:00000088       ___isa_enabled             00439088     MSVCRTD:_cpu_disp_.obj
 0003:0000008c       ___scrt_default_matherr    0043908c     MSVCRTD:matherr.obj
 0003:00000090       ___scrt_ucrt_dll_is_in_use 00439090     MSVCRTD:ucrt_stubs.obj
 0003:0000019c       ??_R0?AVBrush@Gdiplus@@@8  0043919c     ControlEx.obj
 0003:000001c0       ??_R0?AVGdiplusBase@Gdiplus@@@8 004391c0     ControlEx.obj
 0003:000001e8       ??_R0?AVSolidBrush@Gdiplus@@@8 004391e8     ControlEx.obj
 0003:00000210       ??_R0?AVCCircleProgressUI@@@8 00439210     ControlEx.obj
 0003:00000238       ??_R0?AVCProgressUI@DuiLib@@@8 00439238     ControlEx.obj
 0003:00000260       ??_R0?AVCLabelUI@DuiLib@@@8 00439260     ControlEx.obj
 0003:00000284       ??_R0?AVCControlUI@DuiLib@@@8 00439284     ControlEx.obj
 0003:000002ac       ??_R0?AVCMyComboUI@@@8     004392ac     ControlEx.obj
 0003:000002cc       ??_R0?AVCComboUI@DuiLib@@@8 004392cc     ControlEx.obj
 0003:000002f0       ??_R0?AVCContainerUI@DuiLib@@@8 004392f0     ControlEx.obj
 0003:00000318       ??_R0?AVIContainerUI@DuiLib@@@8 00439318     ControlEx.obj
 0003:00000340       ??_R0?AVIListOwnerUI@DuiLib@@@8 00439340     ControlEx.obj
 0003:00000368       ??_R0?AVCChartViewUI@@@8   00439368     ControlEx.obj
 0003:00000388       ??_R0?AVCWndUI@@@8         00439388     ControlEx.obj
 0003:000003a4       ??_R0?AVINotifyUI@DuiLib@@@8 004393a4     MainWnd.obj
 0003:000003cc       ??_R0?AVIMessageFilterUI@DuiLib@@@8 004393cc     MainWnd.obj
 0003:000003fc       ??_R0?AVIDialogBuilderCallback@DuiLib@@@8 004393fc     MainWnd.obj
 0003:00000430       ??_R0?AVCWebBrowserEventHandler@DuiLib@@@8 00439430     MainWnd.obj
 0003:00000468       ??_R0?AVCListLabelElementUI@DuiLib@@@8 00439468     MainWnd.obj
 0003:0000049c       ??_R0?AVCListElementUI@DuiLib@@@8 0043949c     MainWnd.obj
 0003:000004c8       ??_R0?AVIListItemUI@DuiLib@@@8 004394c8     MainWnd.obj
 0003:000004f0       ??_R0?AVCListTextElementUI@DuiLib@@@8 004394f0     MainWnd.obj
 0003:00000520       ??_R0?AVCListContainerElementUI@DuiLib@@@8 00439520     MainWnd.obj
 0003:00000558       ??_R0?AVCHorizontalLayoutUI@DuiLib@@@8 00439558     MainWnd.obj
 0003:0000058c       ??_R0?AVCOptionUI@DuiLib@@@8 0043958c     MainWnd.obj
 0003:000005b4       ??_R0?AVCButtonUI@DuiLib@@@8 004395b4     MainWnd.obj
 0003:000005dc       ??_R0?AVCTreeNodeUI@DuiLib@@@8 004395dc     MainWnd.obj
 0003:00000604       ??_R0?AVCMenuElementUI@DuiLib@@@8 00439604     MainWnd.obj
 0003:00000630       ??_R0?AVCListTextExtElementUI@DuiLib@@@8 00439630     MainWnd.obj
 0003:00000664       ??_R0?AV?$ObserverImpl@HUSkinChangedParam@@@@@8 00439664     MainWnd.obj
 0003:000006a0       ??_R0?AV?$ObserverImplBase@HUSkinChangedParam@@@@@8 004396a0     MainWnd.obj
 0003:000006e0       ??_R0?AV?$ReceiverImpl@HUSkinChangedParam@@@@@8 004396e0     MainWnd.obj
 0003:0000071c       ??_R0?AV?$ReceiverImplBase@HUSkinChangedParam@@@@@8 0043971c     MainWnd.obj
 0003:0000075c       ??_R0?AVCMainPage@@@8      0043975c     MainWnd.obj
 0003:00000778       ??_R0?AVCNotifyPump@DuiLib@@@8 00439778     MainWnd.obj
 0003:000007a0       ??_R0?AVCMainWnd@@@8       004397a0     MainWnd.obj
 0003:000007bc       ??_R0?AVWindowImplBase@DuiLib@@@8 004397bc     MainWnd.obj
 0003:000007e8       ??_R0?AVCWindowWnd@DuiLib@@@8 004397e8     MainWnd.obj
 0003:00000810       ??_R0?AVIQueryControlText@DuiLib@@@8 00439810     MainWnd.obj
 0003:00000840       ??_R0?AVCSkinFrame@@@8     00439840     MainWnd.obj
 0003:00000860       ??_R0?AVCMsgWnd@@@8        00439860     MsgWnd.obj
 0003:0000087c       ??_R0?AVCPopWnd@@@8        0043987c     PopWnd.obj
 0003:00000898       ??_R0?AV_com_error@@@8     00439898     comsuppwd:comraise.obj
 0003:000008b8       ??_R0?AVtype_info@@@8      004398b8     MSVCRTD:std_type_info_static.obj
 0003:000008d4       ??_R0?AVbad_alloc@std@@@8  004398d4     MSVCRTD:throw_bad_alloc.obj
 0003:000008f8       ??_R0?AVexception@std@@@8  004398f8     MSVCRTD:throw_bad_alloc.obj
 0003:0000091c       ??_R0?AVbad_array_new_length@std@@@8 0043991c     MSVCRTD:throw_bad_alloc.obj
 0003:00000a70       ?_messageEntries@CMainPage@@0QBUDUI_MSGMAP_ENTRY@DuiLib@@B 00439a70     MainWnd.obj
 0003:00000fd8       ?_messageEntries@CMainWnd@@0QBUDUI_MSGMAP_ENTRY@DuiLib@@B 00439fd8     MainWnd.obj
 0003:00001138       ?_messageEntries@CMsgWnd@@0QBUDUI_MSGMAP_ENTRY@DuiLib@@B 0043a138     MsgWnd.obj
 0003:000013f0       ?_messageEntries@CPopWnd@@0QBUDUI_MSGMAP_ENTRY@DuiLib@@B 0043a3f0     PopWnd.obj
 0003:00001958       ?m_pSkinManager@CSkinManager@@0PAV1@A 0043a958     SkinManager.obj
 0003:0000195c       ___@@_PchSym_@00@UdlipUwfroryPfogrnzgvRnzhgviRRRUgvnkUwfrwvnlUwvyftUhgwzucOlyq@4B2008FD98C1DD4 0043a95c     StdAfx.obj
 0003:00001980       ___scrt_current_native_startup_state 0043a980     MSVCRTD:utility.obj
 0003:00001984       ___scrt_native_startup_lock 0043a984     MSVCRTD:utility.obj
 0003:00001d50       ?_OptionsStorage@?1??__local_stdio_printf_options@@9@4_KA 0043ad50     MSVCRTD:_error_.obj
 0003:00001d68       ___isa_available           0043ad68     MSVCRTD:_cpu_disp_.obj
 0003:00001d6c       ___favor                   0043ad6c     MSVCRTD:_cpu_disp_.obj
 0003:00001d74       ___scrt_debugger_hook_flag 0043ad74     MSVCRTD:utility_desktop.obj
 0003:00001d78       ?__type_info_root_node@@3U__type_info_node@@A 0043ad78     MSVCRTD:tncleanup.obj
 0003:00001d88       ?_OptionsStorage@?1??__local_stdio_scanf_options@@9@4_KA 0043ad88     MSVCRTD:default_local_stdio_options.obj
 0003:00001d9c       ___dyn_tls_dtor_callback   0043ad9c     <common>
 0003:00001da8       ___dyn_tls_init_callback   0043ada8     <common>
 0004:00000000       __imp_??BCWindowWnd@DuiLib@@QBEPAUHWND__@@XZ 0043b000     DuiLib_d:DuiLib_d.dll
 0004:00000004       __imp_?messageMap@CNotifyPump@DuiLib@@1UDUI_MSGMAP@2@B 0043b004     DuiLib_d:DuiLib_d.dll
 0004:00000008       __imp_?SetVisible@CListElementUI@DuiLib@@UAEX_N@Z 0043b008     DuiLib_d:DuiLib_d.dll
 0004:0000000c       __imp_?SetVisible@CListContainerElementUI@DuiLib@@UAEX_N@Z 0043b00c     DuiLib_d:DuiLib_d.dll
 0004:00000010       __imp_?SetStateImage@CButtonUI@DuiLib@@UAEXPB_W@Z 0043b010     DuiLib_d:DuiLib_d.dll
 0004:00000014       __imp_?SetSelectedStateImage@COptionUI@DuiLib@@UAEXPB_W@Z 0043b014     DuiLib_d:DuiLib_d.dll
 0004:00000018       __imp_?SetPushedImage@CButtonUI@DuiLib@@UAEXPB_W@Z 0043b018     DuiLib_d:DuiLib_d.dll
 0004:0000001c       __imp_?SetPos@CListContainerElementUI@DuiLib@@UAEXUtagRECT@@_N@Z 0043b01c     DuiLib_d:DuiLib_d.dll
 0004:00000020       __imp_?SetNormalImage@CButtonUI@DuiLib@@UAEXPB_W@Z 0043b020     DuiLib_d:DuiLib_d.dll
 0004:00000024       __imp_?SetManager@COptionUI@DuiLib@@UAEXPAVCPaintManagerUI@2@PAVCControlUI@2@_N@Z 0043b024     DuiLib_d:DuiLib_d.dll
 0004:00000028       __imp_?SetHotImage@CButtonUI@DuiLib@@UAEXPB_W@Z 0043b028     DuiLib_d:DuiLib_d.dll
 0004:0000002c       __imp_?SetHotForeImage@CButtonUI@DuiLib@@UAEXPB_W@Z 0043b02c     DuiLib_d:DuiLib_d.dll
 0004:00000030       __imp_?SetFocusedImage@CButtonUI@DuiLib@@UAEXPB_W@Z 0043b030     DuiLib_d:DuiLib_d.dll
 0004:00000034       __imp_?SetEnabled@COptionUI@DuiLib@@UAEX_N@Z 0043b034     DuiLib_d:DuiLib_d.dll
 0004:00000038       __imp_?SetEnabled@CListElementUI@DuiLib@@UAEX_N@Z 0043b038     DuiLib_d:DuiLib_d.dll
 0004:0000003c       __imp_?SetEnabled@CListContainerElementUI@DuiLib@@UAEX_N@Z 0043b03c     DuiLib_d:DuiLib_d.dll
 0004:00000040       __imp_?SetEnabled@CButtonUI@DuiLib@@UAEX_N@Z 0043b040     DuiLib_d:DuiLib_d.dll
 0004:00000044       __imp_?SetDisabledImage@CButtonUI@DuiLib@@UAEXPB_W@Z 0043b044     DuiLib_d:DuiLib_d.dll
 0004:00000048       __imp_?SetAttribute@CTreeNodeUI@DuiLib@@UAEXPB_W0@Z 0043b048     DuiLib_d:DuiLib_d.dll
 0004:0000004c       __imp_?SetAttribute@COptionUI@DuiLib@@UAEXPB_W0@Z 0043b04c     DuiLib_d:DuiLib_d.dll
 0004:00000050       __imp_?SetAttribute@CMenuElementUI@DuiLib@@UAEXPB_W0@Z 0043b050     DuiLib_d:DuiLib_d.dll
 0004:00000054       __imp_?SetAttribute@CListTextExtElementUI@DuiLib@@UAEXPB_W0@Z 0043b054     DuiLib_d:DuiLib_d.dll
 0004:00000058       __imp_?SetAttribute@CListElementUI@DuiLib@@UAEXPB_W0@Z 0043b058     DuiLib_d:DuiLib_d.dll
 0004:0000005c       __imp_?SetAttribute@CListContainerElementUI@DuiLib@@UAEXPB_W0@Z 0043b05c     DuiLib_d:DuiLib_d.dll
 0004:00000060       __imp_?SetAttribute@CButtonUI@DuiLib@@UAEXPB_W0@Z 0043b060     DuiLib_d:DuiLib_d.dll
 0004:00000064       __imp_?Selected@COptionUI@DuiLib@@UAEX_N@Z 0043b064     DuiLib_d:DuiLib_d.dll
 0004:00000068       __imp_?ResponseDefaultKeyEvent@WindowImplBase@DuiLib@@MAEJI@Z 0043b068     DuiLib_d:DuiLib_d.dll
 0004:0000006c       __imp_?PaintText@COptionUI@DuiLib@@UAEXPAUHDC__@@@Z 0043b06c     DuiLib_d:DuiLib_d.dll
 0004:00000070       __imp_?PaintText@CButtonUI@DuiLib@@UAEXPAUHDC__@@@Z 0043b070     DuiLib_d:DuiLib_d.dll
 0004:00000074       __imp_?PaintStatusImage@COptionUI@DuiLib@@UAEXPAUHDC__@@@Z 0043b074     DuiLib_d:DuiLib_d.dll
 0004:00000078       __imp_?PaintStatusImage@CListTextExtElementUI@DuiLib@@UAEXPAUHDC__@@@Z 0043b078     DuiLib_d:DuiLib_d.dll
 0004:0000007c       __imp_?PaintStatusImage@CButtonUI@DuiLib@@UAEXPAUHDC__@@@Z 0043b07c     DuiLib_d:DuiLib_d.dll
 0004:00000080       __imp_?QueryControlText@WindowImplBase@DuiLib@@UAEPB_WPB_W0@Z 0043b080     DuiLib_d:DuiLib_d.dll
 0004:00000084       __imp_?OnGetMinMaxInfo@WindowImplBase@DuiLib@@UAEJIIJAAH@Z 0043b084     DuiLib_d:DuiLib_d.dll
 0004:00000088       __imp_?OnDestroy@WindowImplBase@DuiLib@@UAEJIIJAAH@Z 0043b088     DuiLib_d:DuiLib_d.dll
 0004:0000008c       __imp_?GetClassStyle@WindowImplBase@DuiLib@@UBEIXZ 0043b08c     DuiLib_d:DuiLib_d.dll
 0004:00000090       __imp_?CreateControl@WindowImplBase@DuiLib@@UAEPAVCControlUI@2@PB_W@Z 0043b090     DuiLib_d:DuiLib_d.dll
 0004:00000094       __imp_?MakeLower@CDuiString@DuiLib@@QAEXXZ 0043b094     DuiLib_d:DuiLib_d.dll
 0004:00000098       __imp_??0CDuiString@DuiLib@@QAE@XZ 0043b098     DuiLib_d:DuiLib_d.dll
 0004:0000009c       __imp_??0CDuiString@DuiLib@@QAE@ABV01@@Z 0043b09c     DuiLib_d:DuiLib_d.dll
 0004:000000a0       __imp_??0CDuiString@DuiLib@@QAE@PB_WH@Z 0043b0a0     DuiLib_d:DuiLib_d.dll
 0004:000000a4       __imp_??1CDuiString@DuiLib@@QAE@XZ 0043b0a4     DuiLib_d:DuiLib_d.dll
 0004:000000a8       __imp_?Empty@CDuiString@DuiLib@@QAEXXZ 0043b0a8     DuiLib_d:DuiLib_d.dll
 0004:000000ac       __imp_?IsEmpty@CDuiString@DuiLib@@QBE_NXZ 0043b0ac     DuiLib_d:DuiLib_d.dll
 0004:000000b0       __imp_??BCDuiString@DuiLib@@QBEPB_WXZ 0043b0b0     DuiLib_d:DuiLib_d.dll
 0004:000000b4       __imp_??4CDuiString@DuiLib@@QAEABV01@ABV01@@Z 0043b0b4     DuiLib_d:DuiLib_d.dll
 0004:000000b8       __imp_??4CDuiString@DuiLib@@QAEABV01@PB_W@Z 0043b0b8     DuiLib_d:DuiLib_d.dll
 0004:000000bc       __imp_?GetPaintWindow@CPaintManagerUI@DuiLib@@QBEPAUHWND__@@XZ 0043b0bc     DuiLib_d:DuiLib_d.dll
 0004:000000c0       __imp_??0CControlUI@DuiLib@@QAE@XZ 0043b0c0     DuiLib_d:DuiLib_d.dll
 0004:000000c4       __imp_??1CControlUI@DuiLib@@UAE@XZ 0043b0c4     DuiLib_d:DuiLib_d.dll
 0004:000000c8       __imp_?SetPos@CControlUI@DuiLib@@UAEXUtagRECT@@_N@Z 0043b0c8     DuiLib_d:DuiLib_d.dll
 0004:000000cc       __imp_?SetVisible@CControlUI@DuiLib@@UAEX_N@Z 0043b0cc     DuiLib_d:DuiLib_d.dll
 0004:000000d0       __imp_?SetInternVisible@CControlUI@DuiLib@@UAEX_N@Z 0043b0d0     DuiLib_d:DuiLib_d.dll
 0004:000000d4       __imp_?SetAttribute@CControlUI@DuiLib@@UAEXPB_W0@Z 0043b0d4     DuiLib_d:DuiLib_d.dll
 0004:000000d8       __imp_?DoPaint@CControlUI@DuiLib@@UAEXPAUHDC__@@ABUtagRECT@@@Z 0043b0d8     DuiLib_d:DuiLib_d.dll
 0004:000000dc       __imp_?DrawImageString@CRenderEngine@DuiLib@@SA_NPAUHDC__@@PAVCPaintManagerUI@2@ABUtagRECT@@2PB_W3PAUHINSTANCE__@@@Z 0043b0dc     DuiLib_d:DuiLib_d.dll
 0004:000000e0       __imp_?DrawTextW@CRenderEngine@DuiLib@@SAXPAUHDC__@@PAVCPaintManagerUI@2@AAUtagRECT@@PB_WKHI@Z 0043b0e0     DuiLib_d:DuiLib_d.dll
 0004:000000e4       __imp_?DrawHtmlText@CRenderEngine@DuiLib@@SAXPAUHDC__@@PAVCPaintManagerUI@2@AAUtagRECT@@PB_WKPAU5@PAVCDuiString@2@AAHI@Z 0043b0e4     DuiLib_d:DuiLib_d.dll
 0004:000000e8       __imp_??0CComboUI@DuiLib@@QAE@XZ 0043b0e8     DuiLib_d:DuiLib_d.dll
 0004:000000ec       __imp_?DoEvent@CComboUI@DuiLib@@UAEXAAUtagTEventUI@2@@Z 0043b0ec     DuiLib_d:DuiLib_d.dll
 0004:000000f0       __imp_??1CComboUI@DuiLib@@UAE@XZ 0043b0f0     DuiLib_d:DuiLib_d.dll
 0004:000000f4       __imp_??0CProgressUI@DuiLib@@QAE@XZ 0043b0f4     DuiLib_d:DuiLib_d.dll
 0004:000000f8       __imp_??1CProgressUI@DuiLib@@UAE@XZ 0043b0f8     DuiLib_d:DuiLib_d.dll
 0004:000000fc       __imp_?Activate@CComboUI@DuiLib@@UAE_NXZ 0043b0fc     DuiLib_d:DuiLib_d.dll
 0004:00000100       __imp_?Activate@CControlUI@DuiLib@@UAE_NXZ 0043b100     DuiLib_d:DuiLib_d.dll
 0004:00000104       __imp_?Add@CComboUI@DuiLib@@UAE_NPAVCControlUI@2@@Z 0043b104     DuiLib_d:DuiLib_d.dll
 0004:00000108       __imp_?AddAt@CComboUI@DuiLib@@UAE_NPAVCControlUI@2@H@Z 0043b108     DuiLib_d:DuiLib_d.dll
 0004:0000010c       __imp_?DoEvent@CControlUI@DuiLib@@UAEXAAUtagTEventUI@2@@Z 0043b10c     DuiLib_d:DuiLib_d.dll
 0004:00000110       __imp_?DoEvent@CLabelUI@DuiLib@@UAEXAAUtagTEventUI@2@@Z 0043b110     DuiLib_d:DuiLib_d.dll
 0004:00000114       __imp_?DoInit@CComboUI@DuiLib@@UAEXXZ 0043b114     DuiLib_d:DuiLib_d.dll
 0004:00000118       __imp_?DoInit@CControlUI@DuiLib@@UAEXXZ 0043b118     DuiLib_d:DuiLib_d.dll
 0004:0000011c       __imp_?DoPaint@CComboUI@DuiLib@@UAEXPAUHDC__@@ABUtagRECT@@@Z 0043b11c     DuiLib_d:DuiLib_d.dll
 0004:00000120       __imp_?DoPostPaint@CControlUI@DuiLib@@UAEXPAUHDC__@@ABUtagRECT@@@Z 0043b120     DuiLib_d:DuiLib_d.dll
 0004:00000124       __imp_?EnableScrollBar@CContainerUI@DuiLib@@UAEX_N0@Z 0043b124     DuiLib_d:DuiLib_d.dll
 0004:00000128       __imp_?EndDown@CContainerUI@DuiLib@@UAEXXZ 0043b128     DuiLib_d:DuiLib_d.dll
 0004:0000012c       __imp_?EndRight@CContainerUI@DuiLib@@UAEXXZ 0043b12c     DuiLib_d:DuiLib_d.dll
 0004:00000130       __imp_?EstimateSize@CComboUI@DuiLib@@UAE?AUtagSIZE@@U3@@Z 0043b130     DuiLib_d:DuiLib_d.dll
 0004:00000134       __imp_?EstimateSize@CControlUI@DuiLib@@UAE?AUtagSIZE@@U3@@Z 0043b134     DuiLib_d:DuiLib_d.dll
 0004:00000138       __imp_?EstimateSize@CLabelUI@DuiLib@@UAE?AUtagSIZE@@U3@@Z 0043b138     DuiLib_d:DuiLib_d.dll
 0004:0000013c       __imp_?Event@CControlUI@DuiLib@@UAEXAAUtagTEventUI@2@@Z 0043b13c     DuiLib_d:DuiLib_d.dll
 0004:00000140       __imp_?FindControl@CContainerUI@DuiLib@@UAEPAVCControlUI@2@P6GPAV32@PAV32@PAX@Z1I@Z 0043b140     DuiLib_d:DuiLib_d.dll
 0004:00000144       __imp_?FindControl@CControlUI@DuiLib@@UAEPAV12@P6GPAV12@PAV12@PAX@Z1I@Z 0043b144     DuiLib_d:DuiLib_d.dll
 0004:00000148       __imp_?FindSelectable@CContainerUI@DuiLib@@UBEHH_N@Z 0043b148     DuiLib_d:DuiLib_d.dll
 0004:0000014c       __imp_?GetAutoCalcWidth@CLabelUI@DuiLib@@UBE_NXZ 0043b14c     DuiLib_d:DuiLib_d.dll
 0004:00000150       __imp_?GetChildAlign@CContainerUI@DuiLib@@UBEIXZ 0043b150     DuiLib_d:DuiLib_d.dll
 0004:00000154       __imp_?GetChildPadding@CContainerUI@DuiLib@@UBEHXZ 0043b154     DuiLib_d:DuiLib_d.dll
 0004:00000158       __imp_?GetChildVAlign@CContainerUI@DuiLib@@UBEIXZ 0043b158     DuiLib_d:DuiLib_d.dll
 0004:0000015c       __imp_?GetClass@CControlUI@DuiLib@@UBEPB_WXZ 0043b15c     DuiLib_d:DuiLib_d.dll
 0004:00000160       __imp_?GetClientPos@CContainerUI@DuiLib@@UBE?AUtagRECT@@XZ 0043b160     DuiLib_d:DuiLib_d.dll
 0004:00000164       __imp_?GetClientPos@CControlUI@DuiLib@@UBE?AUtagRECT@@XZ 0043b164     DuiLib_d:DuiLib_d.dll
 0004:00000168       __imp_?GetControlFlags@CComboUI@DuiLib@@UBEIXZ 0043b168     DuiLib_d:DuiLib_d.dll
 0004:0000016c       __imp_?GetControlFlags@CControlUI@DuiLib@@UBEIXZ 0043b16c     DuiLib_d:DuiLib_d.dll
 0004:00000170       __imp_?GetControlFlags@CLabelUI@DuiLib@@UBEIXZ 0043b170     DuiLib_d:DuiLib_d.dll
 0004:00000174       __imp_?GetCount@CContainerUI@DuiLib@@UBEHXZ 0043b174     DuiLib_d:DuiLib_d.dll
 0004:00000178       __imp_?GetCurSel@CComboUI@DuiLib@@UBEHXZ 0043b178     DuiLib_d:DuiLib_d.dll
 0004:0000017c       __imp_?GetCursor@CControlUI@DuiLib@@UAEGXZ 0043b17c     DuiLib_d:DuiLib_d.dll
 0004:00000180       __imp_?GetFixedHeight@CControlUI@DuiLib@@UBEHXZ 0043b180     DuiLib_d:DuiLib_d.dll
 0004:00000184       __imp_?GetFixedWidth@CControlUI@DuiLib@@UBEHXZ 0043b184     DuiLib_d:DuiLib_d.dll
 0004:00000188       __imp_?GetFixedXY@CControlUI@DuiLib@@UBE?AUtagSIZE@@XZ 0043b188     DuiLib_d:DuiLib_d.dll
 0004:0000018c       __imp_?GetFloatAlign@CControlUI@DuiLib@@UBEIXZ 0043b18c     DuiLib_d:DuiLib_d.dll
 0004:00000190       __imp_?GetFloatPercent@CControlUI@DuiLib@@UBE?AUtagTPercentInfo@2@XZ 0043b190     DuiLib_d:DuiLib_d.dll
 0004:00000194       __imp_?GetHeight@CControlUI@DuiLib@@UBEHXZ 0043b194     DuiLib_d:DuiLib_d.dll
 0004:00000198       __imp_?GetHorizontalScrollBar@CContainerUI@DuiLib@@UBEPAVCScrollBarUI@2@XZ 0043b198     DuiLib_d:DuiLib_d.dll
 0004:0000019c       __imp_?GetInset@CContainerUI@DuiLib@@UBE?AUtagRECT@@XZ 0043b19c     DuiLib_d:DuiLib_d.dll
 0004:000001a0       __imp_?GetInterface@CComboUI@DuiLib@@UAEPAXPB_W@Z 0043b1a0     DuiLib_d:DuiLib_d.dll
 0004:000001a4       __imp_?GetInterface@CControlUI@DuiLib@@UAEPAXPB_W@Z 0043b1a4     DuiLib_d:DuiLib_d.dll
 0004:000001a8       __imp_?GetInterface@CProgressUI@DuiLib@@UAEPAXPB_W@Z 0043b1a8     DuiLib_d:DuiLib_d.dll
 0004:000001ac       __imp_?GetItemAt@CContainerUI@DuiLib@@UBEPAVCControlUI@2@H@Z 0043b1ac     DuiLib_d:DuiLib_d.dll
 0004:000001b0       __imp_?GetItemIndex@CContainerUI@DuiLib@@UBEHPAVCControlUI@2@@Z 0043b1b0     DuiLib_d:DuiLib_d.dll
 0004:000001b4       __imp_?GetListInfo@CComboUI@DuiLib@@UAEPAUtagTListInfoUI@2@XZ 0043b1b4     DuiLib_d:DuiLib_d.dll
 0004:000001b8       __imp_?GetListType@CComboUI@DuiLib@@UAEIXZ 0043b1b8     DuiLib_d:DuiLib_d.dll
 0004:000001bc       __imp_?GetManager@CControlUI@DuiLib@@UBEPAVCPaintManagerUI@2@XZ 0043b1bc     DuiLib_d:DuiLib_d.dll
 0004:000001c0       __imp_?GetMaxHeight@CControlUI@DuiLib@@UBEHXZ 0043b1c0     DuiLib_d:DuiLib_d.dll
 0004:000001c4       __imp_?GetMaxWidth@CControlUI@DuiLib@@UBEHXZ 0043b1c4     DuiLib_d:DuiLib_d.dll
 0004:000001c8       __imp_?GetMinHeight@CControlUI@DuiLib@@UBEHXZ 0043b1c8     DuiLib_d:DuiLib_d.dll
 0004:000001cc       __imp_?GetMinWidth@CControlUI@DuiLib@@UBEHXZ 0043b1cc     DuiLib_d:DuiLib_d.dll
 0004:000001d0       __imp_?GetName@CControlUI@DuiLib@@UBE?AVCDuiString@2@XZ 0043b1d0     DuiLib_d:DuiLib_d.dll
 0004:000001d4       __imp_?GetPadding@CControlUI@DuiLib@@UBE?AUtagRECT@@XZ 0043b1d4     DuiLib_d:DuiLib_d.dll
 0004:000001d8       __imp_?GetParent@CControlUI@DuiLib@@UBEPAV12@XZ 0043b1d8     DuiLib_d:DuiLib_d.dll
 0004:000001dc       __imp_?GetPos@CControlUI@DuiLib@@UBEABUtagRECT@@XZ 0043b1dc     DuiLib_d:DuiLib_d.dll
 0004:000001e0       __imp_?GetRelativePos@CControlUI@DuiLib@@UBE?AUtagRECT@@XZ 0043b1e0     DuiLib_d:DuiLib_d.dll
 0004:000001e4       __imp_?GetScrollPos@CContainerUI@DuiLib@@UBE?AUtagSIZE@@XZ 0043b1e4     DuiLib_d:DuiLib_d.dll
 0004:000001e8       __imp_?GetScrollRange@CContainerUI@DuiLib@@UBE?AUtagSIZE@@XZ 0043b1e8     DuiLib_d:DuiLib_d.dll
 0004:000001ec       __imp_?GetScrollStepSize@CContainerUI@DuiLib@@UBEHXZ 0043b1ec     DuiLib_d:DuiLib_d.dll
 0004:000001f0       __imp_?GetShortcut@CControlUI@DuiLib@@UBE_WXZ 0043b1f0     DuiLib_d:DuiLib_d.dll
 0004:000001f4       __imp_?GetTag@CControlUI@DuiLib@@UBEIXZ 0043b1f4     DuiLib_d:DuiLib_d.dll
 0004:000001f8       __imp_?GetText@CComboUI@DuiLib@@UBE?AVCDuiString@2@XZ 0043b1f8     DuiLib_d:DuiLib_d.dll
 0004:000001fc       __imp_?GetText@CControlUI@DuiLib@@UBE?AVCDuiString@2@XZ 0043b1fc     DuiLib_d:DuiLib_d.dll
 0004:00000200       __imp_?GetToolTip@CControlUI@DuiLib@@UBE?AVCDuiString@2@XZ 0043b200     DuiLib_d:DuiLib_d.dll
 0004:00000204       __imp_?GetToolTipWidth@CControlUI@DuiLib@@UAEHXZ 0043b204     DuiLib_d:DuiLib_d.dll
 0004:00000208       __imp_?GetUserData@CControlUI@DuiLib@@UAEABVCDuiString@2@XZ 0043b208     DuiLib_d:DuiLib_d.dll
 0004:0000020c       __imp_?GetVerticalScrollBar@CContainerUI@DuiLib@@UBEPAVCScrollBarUI@2@XZ 0043b20c     DuiLib_d:DuiLib_d.dll
 0004:00000210       __imp_?GetWidth@CControlUI@DuiLib@@UBEHXZ 0043b210     DuiLib_d:DuiLib_d.dll
 0004:00000214       __imp_?GetX@CControlUI@DuiLib@@UBEHXZ 0043b214     DuiLib_d:DuiLib_d.dll
 0004:00000218       __imp_?GetY@CControlUI@DuiLib@@UBEHXZ 0043b218     DuiLib_d:DuiLib_d.dll
 0004:0000021c       __imp_?HomeLeft@CContainerUI@DuiLib@@UAEXXZ 0043b21c     DuiLib_d:DuiLib_d.dll
 0004:00000220       __imp_?HomeUp@CContainerUI@DuiLib@@UAEXXZ 0043b220     DuiLib_d:DuiLib_d.dll
 0004:00000224       __imp_?Init@CControlUI@DuiLib@@UAEXXZ 0043b224     DuiLib_d:DuiLib_d.dll
 0004:00000228       __imp_?IsAutoDestroy@CContainerUI@DuiLib@@UBE_NXZ 0043b228     DuiLib_d:DuiLib_d.dll
 0004:0000022c       __imp_?IsContextMenuUsed@CControlUI@DuiLib@@UBE_NXZ 0043b22c     DuiLib_d:DuiLib_d.dll
 0004:00000230       __imp_?IsDelayedDestroy@CContainerUI@DuiLib@@UBE_NXZ 0043b230     DuiLib_d:DuiLib_d.dll
 0004:00000234       __imp_?IsDragEnabled@CControlUI@DuiLib@@UBE_NXZ 0043b234     DuiLib_d:DuiLib_d.dll
 0004:00000238       __imp_?IsDropEnabled@CControlUI@DuiLib@@UBE_NXZ 0043b238     DuiLib_d:DuiLib_d.dll
 0004:0000023c       __imp_?IsEnabled@CControlUI@DuiLib@@UBE_NXZ 0043b23c     DuiLib_d:DuiLib_d.dll
 0004:00000240       __imp_?IsFloat@CControlUI@DuiLib@@UBE_NXZ 0043b240     DuiLib_d:DuiLib_d.dll
 0004:00000244       __imp_?IsFocused@CControlUI@DuiLib@@UBE_NXZ 0043b244     DuiLib_d:DuiLib_d.dll
 0004:00000248       __imp_?IsKeyboardEnabled@CControlUI@DuiLib@@UBE_NXZ 0043b248     DuiLib_d:DuiLib_d.dll
 0004:0000024c       __imp_?IsMouseChildEnabled@CContainerUI@DuiLib@@UBE_NXZ 0043b24c     DuiLib_d:DuiLib_d.dll
 0004:00000250       __imp_?IsMouseEnabled@CControlUI@DuiLib@@UBE_NXZ 0043b250     DuiLib_d:DuiLib_d.dll
 0004:00000254       __imp_?IsResourceText@CControlUI@DuiLib@@UBE_NXZ 0043b254     DuiLib_d:DuiLib_d.dll
 0004:00000258       __imp_?IsVisible@CControlUI@DuiLib@@UBE_NXZ 0043b258     DuiLib_d:DuiLib_d.dll
 0004:0000025c       __imp_?LineDown@CContainerUI@DuiLib@@UAEXXZ 0043b25c     DuiLib_d:DuiLib_d.dll
 0004:00000260       __imp_?LineLeft@CContainerUI@DuiLib@@UAEXXZ 0043b260     DuiLib_d:DuiLib_d.dll
 0004:00000264       __imp_?LineRight@CContainerUI@DuiLib@@UAEXXZ 0043b264     DuiLib_d:DuiLib_d.dll
 0004:00000268       __imp_?LineUp@CContainerUI@DuiLib@@UAEXXZ 0043b268     DuiLib_d:DuiLib_d.dll
 0004:0000026c       __imp_?Move@CComboUI@DuiLib@@UAEXUtagSIZE@@_N@Z 0043b26c     DuiLib_d:DuiLib_d.dll
 0004:00000270       __imp_?Move@CControlUI@DuiLib@@UAEXUtagSIZE@@_N@Z 0043b270     DuiLib_d:DuiLib_d.dll
 0004:00000274       __imp_?PageDown@CContainerUI@DuiLib@@UAEXXZ 0043b274     DuiLib_d:DuiLib_d.dll
 0004:00000278       __imp_?PageLeft@CContainerUI@DuiLib@@UAEXXZ 0043b278     DuiLib_d:DuiLib_d.dll
 0004:0000027c       __imp_?PageRight@CContainerUI@DuiLib@@UAEXXZ 0043b27c     DuiLib_d:DuiLib_d.dll
 0004:00000280       __imp_?PageUp@CContainerUI@DuiLib@@UAEXXZ 0043b280     DuiLib_d:DuiLib_d.dll
 0004:00000284       __imp_?PaintBkColor@CControlUI@DuiLib@@UAEXPAUHDC__@@@Z 0043b284     DuiLib_d:DuiLib_d.dll
 0004:00000288       __imp_?PaintBkImage@CControlUI@DuiLib@@UAEXPAUHDC__@@@Z 0043b288     DuiLib_d:DuiLib_d.dll
 0004:0000028c       __imp_?PaintBorder@CControlUI@DuiLib@@UAEXPAUHDC__@@@Z 0043b28c     DuiLib_d:DuiLib_d.dll
 0004:00000290       __imp_?PaintForeColor@CControlUI@DuiLib@@UAEXPAUHDC__@@@Z 0043b290     DuiLib_d:DuiLib_d.dll
 0004:00000294       __imp_?PaintForeImage@CControlUI@DuiLib@@UAEXPAUHDC__@@@Z 0043b294     DuiLib_d:DuiLib_d.dll
 0004:00000298       __imp_?PaintStatusImage@CComboUI@DuiLib@@UAEXPAUHDC__@@@Z 0043b298     DuiLib_d:DuiLib_d.dll
 0004:0000029c       __imp_?PaintStatusImage@CControlUI@DuiLib@@UAEXPAUHDC__@@@Z 0043b29c     DuiLib_d:DuiLib_d.dll
 0004:000002a0       __imp_?PaintText@CComboUI@DuiLib@@UAEXPAUHDC__@@@Z 0043b2a0     DuiLib_d:DuiLib_d.dll
 0004:000002a4       __imp_?PaintText@CControlUI@DuiLib@@UAEXPAUHDC__@@@Z 0043b2a4     DuiLib_d:DuiLib_d.dll
 0004:000002a8       __imp_?PaintText@CLabelUI@DuiLib@@UAEXPAUHDC__@@@Z 0043b2a8     DuiLib_d:DuiLib_d.dll
 0004:000002ac       __imp_?ProcessScrollBar@CContainerUI@DuiLib@@MAEXUtagRECT@@HH@Z 0043b2ac     DuiLib_d:DuiLib_d.dll
 0004:000002b0       __imp_?Remove@CComboUI@DuiLib@@UAE_NPAVCControlUI@2@@Z 0043b2b0     DuiLib_d:DuiLib_d.dll
 0004:000002b4       __imp_?RemoveAll@CComboUI@DuiLib@@UAEXXZ 0043b2b4     DuiLib_d:DuiLib_d.dll
 0004:000002b8       __imp_?RemoveAt@CComboUI@DuiLib@@UAE_NH@Z 0043b2b8     DuiLib_d:DuiLib_d.dll
 0004:000002bc       __imp_?SelectItem@CComboUI@DuiLib@@UAE_NH_N@Z 0043b2bc     DuiLib_d:DuiLib_d.dll
 0004:000002c0       __imp_?SelectMultiItem@CComboUI@DuiLib@@UAE_NH_N@Z 0043b2c0     DuiLib_d:DuiLib_d.dll
 0004:000002c4       __imp_?SetAttribute@CComboUI@DuiLib@@UAEXPB_W0@Z 0043b2c4     DuiLib_d:DuiLib_d.dll
 0004:000002c8       __imp_?SetAttribute@CProgressUI@DuiLib@@UAEXPB_W0@Z 0043b2c8     DuiLib_d:DuiLib_d.dll
 0004:000002cc       __imp_?SetAutoCalcWidth@CLabelUI@DuiLib@@UAEX_N@Z 0043b2cc     DuiLib_d:DuiLib_d.dll
 0004:000002d0       __imp_?SetAutoDestroy@CContainerUI@DuiLib@@UAEX_N@Z 0043b2d0     DuiLib_d:DuiLib_d.dll
 0004:000002d4       __imp_?SetChildAlign@CContainerUI@DuiLib@@UAEXI@Z 0043b2d4     DuiLib_d:DuiLib_d.dll
 0004:000002d8       __imp_?SetChildPadding@CContainerUI@DuiLib@@UAEXH@Z 0043b2d8     DuiLib_d:DuiLib_d.dll
 0004:000002dc       __imp_?SetChildVAlign@CContainerUI@DuiLib@@UAEXI@Z 0043b2dc     DuiLib_d:DuiLib_d.dll
 0004:000002e0       __imp_?SetContextMenuUsed@CControlUI@DuiLib@@UAEX_N@Z 0043b2e0     DuiLib_d:DuiLib_d.dll
 0004:000002e4       __imp_?SetCursor@CControlUI@DuiLib@@UAEXG@Z 0043b2e4     DuiLib_d:DuiLib_d.dll
 0004:000002e8       __imp_?SetDelayedDestroy@CContainerUI@DuiLib@@UAEX_N@Z 0043b2e8     DuiLib_d:DuiLib_d.dll
 0004:000002ec       __imp_?SetDragEnable@CControlUI@DuiLib@@UAEX_N@Z 0043b2ec     DuiLib_d:DuiLib_d.dll
 0004:000002f0       __imp_?SetDropEnable@CControlUI@DuiLib@@UAEX_N@Z 0043b2f0     DuiLib_d:DuiLib_d.dll
 0004:000002f4       __imp_?SetEnabled@CComboUI@DuiLib@@UAEX_N@Z 0043b2f4     DuiLib_d:DuiLib_d.dll
 0004:000002f8       __imp_?SetEnabled@CControlUI@DuiLib@@UAEX_N@Z 0043b2f8     DuiLib_d:DuiLib_d.dll
 0004:000002fc       __imp_?SetFixedHeight@CControlUI@DuiLib@@UAEXH@Z 0043b2fc     DuiLib_d:DuiLib_d.dll
 0004:00000300       __imp_?SetFixedWidth@CControlUI@DuiLib@@UAEXH@Z 0043b300     DuiLib_d:DuiLib_d.dll
 0004:00000304       __imp_?SetFixedXY@CControlUI@DuiLib@@UAEXUtagSIZE@@@Z 0043b304     DuiLib_d:DuiLib_d.dll
 0004:00000308       __imp_?SetFloat@CControlUI@DuiLib@@UAEX_N@Z 0043b308     DuiLib_d:DuiLib_d.dll
 0004:0000030c       __imp_?SetFloatAlign@CControlUI@DuiLib@@UAEXI@Z 0043b30c     DuiLib_d:DuiLib_d.dll
 0004:00000310       __imp_?SetFloatPercent@CControlUI@DuiLib@@UAEXUtagTPercentInfo@2@@Z 0043b310     DuiLib_d:DuiLib_d.dll
 0004:00000314       __imp_?SetFloatPos@CContainerUI@DuiLib@@MAEXH@Z 0043b314     DuiLib_d:DuiLib_d.dll
 0004:00000318       __imp_?SetFocus@CControlUI@DuiLib@@UAEXXZ 0043b318     DuiLib_d:DuiLib_d.dll
 0004:0000031c       __imp_?SetInset@CContainerUI@DuiLib@@UAEXUtagRECT@@@Z 0043b31c     DuiLib_d:DuiLib_d.dll
 0004:00000320       __imp_?SetInternVisible@CContainerUI@DuiLib@@UAEX_N@Z 0043b320     DuiLib_d:DuiLib_d.dll
 0004:00000324       __imp_?SetItemIndex@CComboUI@DuiLib@@UAE_NPAVCControlUI@2@H@Z 0043b324     DuiLib_d:DuiLib_d.dll
 0004:00000328       __imp_?SetKeyboardEnabled@CControlUI@DuiLib@@UAEX_N@Z 0043b328     DuiLib_d:DuiLib_d.dll
 0004:0000032c       __imp_?SetManager@CContainerUI@DuiLib@@UAEXPAVCPaintManagerUI@2@PAVCControlUI@2@_N@Z 0043b32c     DuiLib_d:DuiLib_d.dll
 0004:00000330       __imp_?SetManager@CControlUI@DuiLib@@UAEXPAVCPaintManagerUI@2@PAV12@_N@Z 0043b330     DuiLib_d:DuiLib_d.dll
 0004:00000334       __imp_?SetMaxHeight@CControlUI@DuiLib@@UAEXH@Z 0043b334     DuiLib_d:DuiLib_d.dll
 0004:00000338       __imp_?SetMaxWidth@CControlUI@DuiLib@@UAEXH@Z 0043b338     DuiLib_d:DuiLib_d.dll
 0004:0000033c       __imp_?SetMinHeight@CControlUI@DuiLib@@UAEXH@Z 0043b33c     DuiLib_d:DuiLib_d.dll
 0004:00000340       __imp_?SetMinWidth@CControlUI@DuiLib@@UAEXH@Z 0043b340     DuiLib_d:DuiLib_d.dll
 0004:00000344       __imp_?SetMouseChildEnabled@CContainerUI@DuiLib@@UAEX_N@Z 0043b344     DuiLib_d:DuiLib_d.dll
 0004:00000348       __imp_?SetMouseEnabled@CContainerUI@DuiLib@@UAEX_N@Z 0043b348     DuiLib_d:DuiLib_d.dll
 0004:0000034c       __imp_?SetMouseEnabled@CControlUI@DuiLib@@UAEX_N@Z 0043b34c     DuiLib_d:DuiLib_d.dll
 0004:00000350       __imp_?SetName@CControlUI@DuiLib@@UAEXPB_W@Z 0043b350     DuiLib_d:DuiLib_d.dll
 0004:00000354       __imp_?SetPadding@CControlUI@DuiLib@@UAEXUtagRECT@@@Z 0043b354     DuiLib_d:DuiLib_d.dll
 0004:00000358       __imp_?SetPos@CComboUI@DuiLib@@UAEXUtagRECT@@_N@Z 0043b358     DuiLib_d:DuiLib_d.dll
 0004:0000035c       __imp_?SetResourceText@CControlUI@DuiLib@@UAEX_N@Z 0043b35c     DuiLib_d:DuiLib_d.dll
 0004:00000360       __imp_?SetScrollPos@CContainerUI@DuiLib@@UAEXUtagSIZE@@_N@Z 0043b360     DuiLib_d:DuiLib_d.dll
 0004:00000364       __imp_?SetScrollStepSize@CContainerUI@DuiLib@@UAEXH@Z 0043b364     DuiLib_d:DuiLib_d.dll
 0004:00000368       __imp_?SetShortcut@CControlUI@DuiLib@@UAEX_W@Z 0043b368     DuiLib_d:DuiLib_d.dll
 0004:0000036c       __imp_?SetTag@CControlUI@DuiLib@@UAEXI@Z 0043b36c     DuiLib_d:DuiLib_d.dll
 0004:00000370       __imp_?SetText@CControlUI@DuiLib@@UAEXPB_W@Z 0043b370     DuiLib_d:DuiLib_d.dll
 0004:00000374       __imp_?SetText@CLabelUI@DuiLib@@UAEXPB_W@Z 0043b374     DuiLib_d:DuiLib_d.dll
 0004:00000378       __imp_?SetToolTip@CControlUI@DuiLib@@UAEXPB_W@Z 0043b378     DuiLib_d:DuiLib_d.dll
 0004:0000037c       __imp_?SetToolTipWidth@CControlUI@DuiLib@@UAEXH@Z 0043b37c     DuiLib_d:DuiLib_d.dll
 0004:00000380       __imp_?SetUserData@CControlUI@DuiLib@@UAEXPB_W@Z 0043b380     DuiLib_d:DuiLib_d.dll
 0004:00000384       __imp_?SetVisible@CContainerUI@DuiLib@@UAEX_N@Z 0043b384     DuiLib_d:DuiLib_d.dll
 0004:00000388       __imp_?UnSelectItem@CComboUI@DuiLib@@UAE_NH_N@Z 0043b388     DuiLib_d:DuiLib_d.dll
 0004:0000038c       __imp_?UpdateText@CProgressUI@DuiLib@@UAEXXZ 0043b38c     DuiLib_d:DuiLib_d.dll
 0004:00000390       __imp_??0STRINGorID@DuiLib@@QAE@PB_W@Z 0043b390     DuiLib_d:DuiLib_d.dll
 0004:00000394       __imp_?GetData@CDuiString@DuiLib@@QBEPB_WXZ 0043b394     DuiLib_d:DuiLib_d.dll
 0004:00000398       __imp_??YCDuiString@DuiLib@@QAEABV01@PB_W@Z 0043b398     DuiLib_d:DuiLib_d.dll
 0004:0000039c       __imp_?GetInstance@CResourceManager@DuiLib@@SAPAV12@XZ 0043b39c     DuiLib_d:DuiLib_d.dll
 0004:000003a0       __imp_?Release@CResourceManager@DuiLib@@QAEXXZ 0043b3a0     DuiLib_d:DuiLib_d.dll
 0004:000003a4       __imp_?LoadResource@CResourceManager@DuiLib@@QAEHVSTRINGorID@2@PB_W@Z 0043b3a4     DuiLib_d:DuiLib_d.dll
 0004:000003a8       __imp_?GetInstancePath@CPaintManagerUI@DuiLib@@SA?AVCDuiString@2@XZ 0043b3a8     DuiLib_d:DuiLib_d.dll
 0004:000003ac       __imp_?GetResourceDll@CPaintManagerUI@DuiLib@@SAPAUHINSTANCE__@@XZ 0043b3ac     DuiLib_d:DuiLib_d.dll
 0004:000003b0       __imp_?SetInstance@CPaintManagerUI@DuiLib@@SAXPAUHINSTANCE__@@@Z 0043b3b0     DuiLib_d:DuiLib_d.dll
 0004:000003b4       __imp_?SetResourcePath@CPaintManagerUI@DuiLib@@SAXPB_W@Z 0043b3b4     DuiLib_d:DuiLib_d.dll
 0004:000003b8       __imp_?SetResourceZip@CPaintManagerUI@DuiLib@@SAXPAXIPB_W@Z 0043b3b8     DuiLib_d:DuiLib_d.dll
 0004:000003bc       __imp_?SetResourceZip@CPaintManagerUI@DuiLib@@SAXPB_W_N0@Z 0043b3bc     DuiLib_d:DuiLib_d.dll
 0004:000003c0       __imp_?SetResourceType@CPaintManagerUI@DuiLib@@SAXH@Z 0043b3c0     DuiLib_d:DuiLib_d.dll
 0004:000003c4       __imp_?GetResourceType@CPaintManagerUI@DuiLib@@SAHXZ 0043b3c4     DuiLib_d:DuiLib_d.dll
 0004:000003c8       __imp_?MessageLoop@CPaintManagerUI@DuiLib@@SAXXZ 0043b3c8     DuiLib_d:DuiLib_d.dll
 0004:000003cc       __imp_?Create@CWindowWnd@DuiLib@@QAEPAUHWND__@@PAU3@PB_WKKHHHHPAUHMENU__@@@Z 0043b3cc     DuiLib_d:DuiLib_d.dll
 0004:000003d0       __imp_?CenterWindow@CWindowWnd@DuiLib@@QAEXXZ 0043b3d0     DuiLib_d:DuiLib_d.dll
 0004:000003d4       __imp_?RegistControl@CControlFactory@DuiLib@@QAEXVCDuiString@2@P6APAVCControlUI@2@XZ@Z 0043b3d4     DuiLib_d:DuiLib_d.dll
 0004:000003d8       __imp_?GetInstance@CControlFactory@DuiLib@@SAPAV12@XZ 0043b3d8     DuiLib_d:DuiLib_d.dll
 0004:000003dc       __imp_??0CDuiPoint@DuiLib@@QAE@XZ 0043b3dc     DuiLib_d:DuiLib_d.dll
 0004:000003e0       __imp_??0CDuiSize@DuiLib@@QAE@HH@Z 0043b3e0     DuiLib_d:DuiLib_d.dll
 0004:000003e4       __imp_??HCDuiString@DuiLib@@QBE?AV01@PB_W@Z 0043b3e4     DuiLib_d:DuiLib_d.dll
 0004:000003e8       __imp_??8CDuiString@DuiLib@@QBE_NPB_W@Z 0043b3e8     DuiLib_d:DuiLib_d.dll
 0004:000003ec       __imp_?CompareNoCase@CDuiString@DuiLib@@QBEHPB_W@Z 0043b3ec     DuiLib_d:DuiLib_d.dll
 0004:000003f0       __imp_?Format@CDuiString@DuiLib@@QAAHPB_WZZ 0043b3f0     DuiLib_d:DuiLib_d.dll
 0004:000003f4       __imp_??0CStdStringPtrMap@DuiLib@@QAE@H@Z 0043b3f4     DuiLib_d:DuiLib_d.dll
 0004:000003f8       __imp_??1CStdStringPtrMap@DuiLib@@QAE@XZ 0043b3f8     DuiLib_d:DuiLib_d.dll
 0004:000003fc       __imp_??0CTrayIcon@DuiLib@@QAE@XZ 0043b3fc     DuiLib_d:DuiLib_d.dll
 0004:00000400       __imp_??1CTrayIcon@DuiLib@@QAE@XZ 0043b400     DuiLib_d:DuiLib_d.dll
 0004:00000404       __imp_?CreateTrayIcon@CTrayIcon@DuiLib@@QAEXPAUHWND__@@IPB_WI@Z 0043b404     DuiLib_d:DuiLib_d.dll
 0004:00000408       __imp_?DeleteTrayIcon@CTrayIcon@DuiLib@@QAEXXZ 0043b408     DuiLib_d:DuiLib_d.dll
 0004:0000040c       __imp_?SetLanguage@CResourceManager@DuiLib@@QAEXPB_W@Z 0043b40c     DuiLib_d:DuiLib_d.dll
 0004:00000410       __imp_?GetLanguage@CResourceManager@DuiLib@@QAEPB_WXZ 0043b410     DuiLib_d:DuiLib_d.dll
 0004:00000414       __imp_?LoadLanguage@CResourceManager@DuiLib@@QAEHPB_W@Z 0043b414     DuiLib_d:DuiLib_d.dll
 0004:00000418       __imp_?SetTextQueryInterface@CResourceManager@DuiLib@@QAEXPAVIQueryControlText@2@@Z 0043b418     DuiLib_d:DuiLib_d.dll
 0004:0000041c       __imp_?ReloadText@CResourceManager@DuiLib@@QAEXXZ 0043b41c     DuiLib_d:DuiLib_d.dll
 0004:00000420       __imp_??0CPaintManagerUI@DuiLib@@QAE@XZ 0043b420     DuiLib_d:DuiLib_d.dll
 0004:00000424       __imp_??1CPaintManagerUI@DuiLib@@UAE@XZ 0043b424     DuiLib_d:DuiLib_d.dll
 0004:00000428       __imp_?Init@CPaintManagerUI@DuiLib@@QAEXPAUHWND__@@PB_W@Z 0043b428     DuiLib_d:DuiLib_d.dll
 0004:0000042c       __imp_?NeedUpdate@CPaintManagerUI@DuiLib@@QAEXXZ 0043b42c     DuiLib_d:DuiLib_d.dll
 0004:00000430       __imp_?GetInitSize@CPaintManagerUI@DuiLib@@QAE?AUtagSIZE@@XZ 0043b430     DuiLib_d:DuiLib_d.dll
 0004:00000434       __imp_?DeletePtr@CPaintManagerUI@DuiLib@@QAEXPAX@Z 0043b434     DuiLib_d:DuiLib_d.dll
 0004:00000438       __imp_?GetStyle@CPaintManagerUI@DuiLib@@QBEPB_WPB_W@Z 0043b438     DuiLib_d:DuiLib_d.dll
 0004:0000043c       __imp_?AttachDialog@CPaintManagerUI@DuiLib@@QAE_NPAVCControlUI@2@@Z 0043b43c     DuiLib_d:DuiLib_d.dll
 0004:00000440       __imp_?AddNotifier@CPaintManagerUI@DuiLib@@QAE_NPAVINotifyUI@2@@Z 0043b440     DuiLib_d:DuiLib_d.dll
 0004:00000444       __imp_?GetRoot@CPaintManagerUI@DuiLib@@QBEPAVCControlUI@2@XZ 0043b444     DuiLib_d:DuiLib_d.dll
 0004:00000448       __imp_?FindControl@CPaintManagerUI@DuiLib@@QBEPAVCControlUI@2@PB_W@Z 0043b448     DuiLib_d:DuiLib_d.dll
 0004:0000044c       __imp_?ResetDPIAssets@CPaintManagerUI@DuiLib@@QAEXXZ 0043b44c     DuiLib_d:DuiLib_d.dll
 0004:00000450       __imp_?SetDPI@CPaintManagerUI@DuiLib@@QAEXH@Z 0043b450     DuiLib_d:DuiLib_d.dll
 0004:00000454       __imp_?MessageHandler@CPaintManagerUI@DuiLib@@QAE_NIIJAAJ@Z 0043b454     DuiLib_d:DuiLib_d.dll
 0004:00000458       __imp_?AddVirtualWnd@CNotifyPump@DuiLib@@QAE_NVCDuiString@2@PAV12@@Z 0043b458     DuiLib_d:DuiLib_d.dll
 0004:0000045c       __imp_?RemoveVirtualWnd@CNotifyPump@DuiLib@@QAE_NVCDuiString@2@@Z 0043b45c     DuiLib_d:DuiLib_d.dll
 0004:00000460       __imp_??0CNotifyPump@DuiLib@@QAE@XZ 0043b460     DuiLib_d:DuiLib_d.dll
 0004:00000464       __imp_??1CNotifyPump@DuiLib@@QAE@XZ 0043b464     DuiLib_d:DuiLib_d.dll
 0004:00000468       __imp_??0CWindowWnd@DuiLib@@QAE@XZ 0043b468     DuiLib_d:DuiLib_d.dll
 0004:0000046c       __imp_?PaintForeImage@COptionUI@DuiLib@@UAEXPAUHDC__@@@Z 0043b46c     DuiLib_d:DuiLib_d.dll
 0004:00000470       __imp_?ShowModal@CWindowWnd@DuiLib@@QAEIXZ 0043b470     DuiLib_d:DuiLib_d.dll
 0004:00000474       __imp_?Close@CWindowWnd@DuiLib@@QAEXI@Z 0043b474     DuiLib_d:DuiLib_d.dll
 0004:00000478       __imp_?SetIcon@CWindowWnd@DuiLib@@QAEXI@Z 0043b478     DuiLib_d:DuiLib_d.dll
 0004:0000047c       __imp_?SendMessageW@CWindowWnd@DuiLib@@QAEJIIJ@Z 0043b47c     DuiLib_d:DuiLib_d.dll
 0004:00000480       __imp_?HandleMessage@CWindowWnd@DuiLib@@MAEJIIJ@Z 0043b480     DuiLib_d:DuiLib_d.dll
 0004:00000484       __imp_?GetBkColor@CControlUI@DuiLib@@QBEKXZ 0043b484     DuiLib_d:DuiLib_d.dll
 0004:00000488       __imp_?SetBkColor@CControlUI@DuiLib@@QAEXK@Z 0043b488     DuiLib_d:DuiLib_d.dll
 0004:0000048c       __imp_?SetBkImage@CControlUI@DuiLib@@QAEXPB_W@Z 0043b48c     DuiLib_d:DuiLib_d.dll
 0004:00000490       __imp_?NeedUpdate@CControlUI@DuiLib@@QAEXXZ 0043b490     DuiLib_d:DuiLib_d.dll
 0004:00000494       __imp_?NeedParentUpdate@CControlUI@DuiLib@@QAEXXZ 0043b494     DuiLib_d:DuiLib_d.dll
 0004:00000498       __imp_?ApplyAttributeList@CControlUI@DuiLib@@QAEPAV12@PB_W@Z 0043b498     DuiLib_d:DuiLib_d.dll
 0004:0000049c       __imp_??0CDialogBuilder@DuiLib@@QAE@XZ 0043b49c     DuiLib_d:DuiLib_d.dll
 0004:000004a0       __imp_?Create@CDialogBuilder@DuiLib@@QAEPAVCControlUI@2@VSTRINGorID@2@PB_WPAVIDialogBuilderCallback@2@PAVCPaintManagerUI@2@PAV32@@Z 0043b4a0     DuiLib_d:DuiLib_d.dll
 0004:000004a4       __imp_??1CDialogBuilder@DuiLib@@QAE@XZ 0043b4a4     DuiLib_d:DuiLib_d.dll
 0004:000004a8       __imp_??0WindowImplBase@DuiLib@@QAE@XZ 0043b4a8     DuiLib_d:DuiLib_d.dll
 0004:000004ac       __imp_??1WindowImplBase@DuiLib@@UAE@XZ 0043b4ac     DuiLib_d:DuiLib_d.dll
 0004:000004b0       __imp_?OnFinalMessage@WindowImplBase@DuiLib@@UAEXPAUHWND__@@@Z 0043b4b0     DuiLib_d:DuiLib_d.dll
 0004:000004b4       __imp_?Notify@WindowImplBase@DuiLib@@UAEXAAUtagTNotifyUI@2@@Z 0043b4b4     DuiLib_d:DuiLib_d.dll
 0004:000004b8       __imp_??0CListLabelElementUI@DuiLib@@QAE@XZ 0043b4b8     DuiLib_d:DuiLib_d.dll
 0004:000004bc       __imp_??1CListLabelElementUI@DuiLib@@UAE@XZ 0043b4bc     DuiLib_d:DuiLib_d.dll
 0004:000004c0       __imp_??0CListTextElementUI@DuiLib@@QAE@XZ 0043b4c0     DuiLib_d:DuiLib_d.dll
 0004:000004c4       __imp_??1CListTextElementUI@DuiLib@@UAE@XZ 0043b4c4     DuiLib_d:DuiLib_d.dll
 0004:000004c8       __imp_?SetText@CListTextElementUI@DuiLib@@QAEXHPB_W@Z 0043b4c8     DuiLib_d:DuiLib_d.dll
 0004:000004cc       __imp_??0CListContainerElementUI@DuiLib@@QAE@XZ 0043b4cc     DuiLib_d:DuiLib_d.dll
 0004:000004d0       __imp_??1CListContainerElementUI@DuiLib@@UAE@XZ 0043b4d0     DuiLib_d:DuiLib_d.dll
 0004:000004d4       __imp_?SetItemFont@CComboUI@DuiLib@@QAEXH@Z 0043b4d4     DuiLib_d:DuiLib_d.dll
 0004:000004d8       __imp_??0CTreeNodeUI@DuiLib@@QAE@PAV01@@Z 0043b4d8     DuiLib_d:DuiLib_d.dll
 0004:000004dc       __imp_??1CTreeNodeUI@DuiLib@@UAE@XZ 0043b4dc     DuiLib_d:DuiLib_d.dll
 0004:000004e0       __imp_?SetItemText@CTreeNodeUI@DuiLib@@QAEXPB_W@Z 0043b4e0     DuiLib_d:DuiLib_d.dll
 0004:000004e4       __imp_??0CButtonUI@DuiLib@@QAE@XZ 0043b4e4     DuiLib_d:DuiLib_d.dll
 0004:000004e8       __imp_??1CButtonUI@DuiLib@@UAE@XZ 0043b4e8     DuiLib_d:DuiLib_d.dll
 0004:000004ec       __imp_??0COptionUI@DuiLib@@QAE@XZ 0043b4ec     DuiLib_d:DuiLib_d.dll
 0004:000004f0       __imp_??1COptionUI@DuiLib@@UAE@XZ 0043b4f0     DuiLib_d:DuiLib_d.dll
 0004:000004f4       __imp_?GetValue@CProgressUI@DuiLib@@QBEHXZ 0043b4f4     DuiLib_d:DuiLib_d.dll
 0004:000004f8       __imp_?SetValue@CProgressUI@DuiLib@@QAEXH@Z 0043b4f8     DuiLib_d:DuiLib_d.dll
 0004:000004fc       __imp_?GetControl@CActiveXUI@DuiLib@@QAEJU_GUID@@PAPAX@Z 0043b4fc     DuiLib_d:DuiLib_d.dll
 0004:00000500       __imp_?SetWebBrowserEventHandler@CWebBrowserUI@DuiLib@@QAEXPAVCWebBrowserEventHandler@2@@Z 0043b500     DuiLib_d:DuiLib_d.dll
 0004:00000504       __imp_?NavigateUrl@CWebBrowserUI@DuiLib@@QAEXPB_W@Z 0043b504     DuiLib_d:DuiLib_d.dll
 0004:00000508       __imp_?GetGlobalContextMenuObserver@CMenuWnd@DuiLib@@SAAAVMenuObserverImpl@2@XZ 0043b508     DuiLib_d:DuiLib_d.dll
 0004:0000050c       __imp_?DestroyMenu@CMenuWnd@DuiLib@@SAXXZ 0043b50c     DuiLib_d:DuiLib_d.dll
 0004:00000510       __imp_?SetMenuItemInfoW@CMenuWnd@DuiLib@@SAPAUMenuItemInfo@2@PB_W_N@Z 0043b510     DuiLib_d:DuiLib_d.dll
 0004:00000514       __imp_??0CMenuWnd@DuiLib@@QAE@XZ 0043b514     DuiLib_d:DuiLib_d.dll
 0004:00000518       __imp_??1CMenuWnd@DuiLib@@QAE@XZ 0043b518     DuiLib_d:DuiLib_d.dll
 0004:0000051c       __imp_?Init@CMenuWnd@DuiLib@@QAEXPAVCMenuElementUI@2@VSTRINGorID@2@UtagPOINT@@PAVCPaintManagerUI@2@PAVCStdStringPtrMap@2@K@Z 0043b51c     DuiLib_d:DuiLib_d.dll
 0004:00000520       __imp_?GetMenuUI@CMenuWnd@DuiLib@@QAEPAVCMenuUI@2@XZ 0043b520     DuiLib_d:DuiLib_d.dll
 0004:00000524       __imp_?ResizeMenu@CMenuWnd@DuiLib@@QAEXXZ 0043b524     DuiLib_d:DuiLib_d.dll
 0004:00000528       __imp_??0CMenuElementUI@DuiLib@@QAE@XZ 0043b528     DuiLib_d:DuiLib_d.dll
 0004:0000052c       __imp_??1CMenuElementUI@DuiLib@@UAE@XZ 0043b52c     DuiLib_d:DuiLib_d.dll
 0004:00000530       __imp_?SetIcon@CMenuElementUI@DuiLib@@QAEXPB_W@Z 0043b530     DuiLib_d:DuiLib_d.dll
 0004:00000534       __imp_?SetIconSize@CMenuElementUI@DuiLib@@QAEXJJ@Z 0043b534     DuiLib_d:DuiLib_d.dll
 0004:00000538       __imp_?SetShowExplandIcon@CMenuElementUI@DuiLib@@QAEX_N@Z 0043b538     DuiLib_d:DuiLib_d.dll
 0004:0000053c       __imp_?BeginRoll@CRollTextUI@DuiLib@@QAEXHJJ@Z 0043b53c     DuiLib_d:DuiLib_d.dll
 0004:00000540       __imp_?GetSelectColor@CColorPaletteUI@DuiLib@@QAEKXZ 0043b540     DuiLib_d:DuiLib_d.dll
 0004:00000544       __imp_?SetSelectColor@CColorPaletteUI@DuiLib@@QAEXK@Z 0043b544     DuiLib_d:DuiLib_d.dll
 0004:00000548       __imp_?InitListCtrl@CListExUI@DuiLib@@QAEXXZ 0043b548     DuiLib_d:DuiLib_d.dll
 0004:0000054c       __imp_??0CListTextExtElementUI@DuiLib@@QAE@XZ 0043b54c     DuiLib_d:DuiLib_d.dll
 0004:00000550       __imp_??1CListTextExtElementUI@DuiLib@@UAE@XZ 0043b550     DuiLib_d:DuiLib_d.dll
 0004:00000554       __imp_?SetText@CListTextExtElementUI@DuiLib@@QAEXHPB_W@Z 0043b554     DuiLib_d:DuiLib_d.dll
 0004:00000558       __imp_?Activate@CButtonUI@DuiLib@@UAE_NXZ 0043b558     DuiLib_d:DuiLib_d.dll
 0004:0000055c       __imp_?Activate@CListContainerElementUI@DuiLib@@UAE_NXZ 0043b55c     DuiLib_d:DuiLib_d.dll
 0004:00000560       __imp_?Activate@CListElementUI@DuiLib@@UAE_NXZ 0043b560     DuiLib_d:DuiLib_d.dll
 0004:00000564       __imp_?Activate@COptionUI@DuiLib@@UAE_NXZ 0043b564     DuiLib_d:DuiLib_d.dll
 0004:00000568       __imp_?DoEvent@CButtonUI@DuiLib@@UAEXAAUtagTEventUI@2@@Z 0043b568     DuiLib_d:DuiLib_d.dll
 0004:0000056c       __imp_?DoEvent@CListContainerElementUI@DuiLib@@UAEXAAUtagTEventUI@2@@Z 0043b56c     DuiLib_d:DuiLib_d.dll
 0004:00000570       __imp_?DoEvent@CListLabelElementUI@DuiLib@@UAEXAAUtagTEventUI@2@@Z 0043b570     DuiLib_d:DuiLib_d.dll
 0004:00000574       __imp_?DoEvent@CListTextElementUI@DuiLib@@UAEXAAUtagTEventUI@2@@Z 0043b574     DuiLib_d:DuiLib_d.dll
 0004:00000578       __imp_?DoEvent@CListTextExtElementUI@DuiLib@@UAEXAAUtagTEventUI@2@@Z 0043b578     DuiLib_d:DuiLib_d.dll
 0004:0000057c       __imp_?DoEvent@CMenuElementUI@DuiLib@@UAEXAAUtagTEventUI@2@@Z 0043b57c     DuiLib_d:DuiLib_d.dll
 0004:00000580       __imp_?DoEvent@CTreeNodeUI@DuiLib@@UAEXAAUtagTEventUI@2@@Z 0043b580     DuiLib_d:DuiLib_d.dll
 0004:00000584       __imp_?DoPaint@CListContainerElementUI@DuiLib@@UAEXPAUHDC__@@ABUtagRECT@@@Z 0043b584     DuiLib_d:DuiLib_d.dll
 0004:00000588       __imp_?DoPaint@CListLabelElementUI@DuiLib@@UAEXPAUHDC__@@ABUtagRECT@@@Z 0043b588     DuiLib_d:DuiLib_d.dll
 0004:0000058c       __imp_?DoPaint@CListTextExtElementUI@DuiLib@@UAEXPAUHDC__@@ABUtagRECT@@@Z 0043b58c     DuiLib_d:DuiLib_d.dll
 0004:00000590       __imp_?DoPaint@CMenuElementUI@DuiLib@@UAEXPAUHDC__@@ABUtagRECT@@@Z 0043b590     DuiLib_d:DuiLib_d.dll
 0004:00000594       __imp_?DoPostPaint@CHorizontalLayoutUI@DuiLib@@UAEXPAUHDC__@@ABUtagRECT@@@Z 0043b594     DuiLib_d:DuiLib_d.dll
 0004:00000598       __imp_?DrawItemBk@CListContainerElementUI@DuiLib@@UAEXPAUHDC__@@ABUtagRECT@@@Z 0043b598     DuiLib_d:DuiLib_d.dll
 0004:0000059c       __imp_?EstimateSize@CListLabelElementUI@DuiLib@@UAE?AUtagSIZE@@U3@@Z 0043b59c     DuiLib_d:DuiLib_d.dll
 0004:000005a0       __imp_?EstimateSize@CListTextElementUI@DuiLib@@UAE?AUtagSIZE@@U3@@Z 0043b5a0     DuiLib_d:DuiLib_d.dll
 0004:000005a4       __imp_?EstimateSize@CListTextExtElementUI@DuiLib@@UAE?AUtagSIZE@@U3@@Z 0043b5a4     DuiLib_d:DuiLib_d.dll
 0004:000005a8       __imp_?EstimateSize@CMenuElementUI@DuiLib@@UAE?AUtagSIZE@@U3@@Z 0043b5a8     DuiLib_d:DuiLib_d.dll
 0004:000005ac       __imp_?GetClass@CButtonUI@DuiLib@@UBEPB_WXZ 0043b5ac     DuiLib_d:DuiLib_d.dll
 0004:000005b0       __imp_?GetClass@CComboUI@DuiLib@@UBEPB_WXZ 0043b5b0     DuiLib_d:DuiLib_d.dll
 0004:000005b4       __imp_?GetClass@CListContainerElementUI@DuiLib@@UBEPB_WXZ 0043b5b4     DuiLib_d:DuiLib_d.dll
 0004:000005b8       __imp_?GetClass@CListLabelElementUI@DuiLib@@UBEPB_WXZ 0043b5b8     DuiLib_d:DuiLib_d.dll
 0004:000005bc       __imp_?GetClass@CListTextElementUI@DuiLib@@UBEPB_WXZ 0043b5bc     DuiLib_d:DuiLib_d.dll
 0004:000005c0       __imp_?GetClass@CListTextExtElementUI@DuiLib@@UBEPB_WXZ 0043b5c0     DuiLib_d:DuiLib_d.dll
 0004:000005c4       __imp_?GetClass@CMenuElementUI@DuiLib@@UBEPB_WXZ 0043b5c4     DuiLib_d:DuiLib_d.dll
 0004:000005c8       __imp_?GetClass@COptionUI@DuiLib@@UBEPB_WXZ 0043b5c8     DuiLib_d:DuiLib_d.dll
 0004:000005cc       __imp_?GetClass@CTreeNodeUI@DuiLib@@UBEPB_WXZ 0043b5cc     DuiLib_d:DuiLib_d.dll
 0004:000005d0       __imp_?GetControlFlags@CButtonUI@DuiLib@@UBEIXZ 0043b5d0     DuiLib_d:DuiLib_d.dll
 0004:000005d4       __imp_?GetControlFlags@CListContainerElementUI@DuiLib@@UBEIXZ 0043b5d4     DuiLib_d:DuiLib_d.dll
 0004:000005d8       __imp_?GetControlFlags@CListElementUI@DuiLib@@UBEIXZ 0043b5d8     DuiLib_d:DuiLib_d.dll
 0004:000005dc       __imp_?GetControlFlags@CListTextElementUI@DuiLib@@UBEIXZ 0043b5dc     DuiLib_d:DuiLib_d.dll
 0004:000005e0       __imp_?GetControlFlags@CListTextExtElementUI@DuiLib@@UBEIXZ 0043b5e0     DuiLib_d:DuiLib_d.dll
 0004:000005e4       __imp_?GetDisabledImage@CButtonUI@DuiLib@@UAEPB_WXZ 0043b5e4     DuiLib_d:DuiLib_d.dll
 0004:000005e8       __imp_?GetFocusedImage@CButtonUI@DuiLib@@UAEPB_WXZ 0043b5e8     DuiLib_d:DuiLib_d.dll
 0004:000005ec       __imp_?GetHotForeImage@CButtonUI@DuiLib@@UAEPB_WXZ 0043b5ec     DuiLib_d:DuiLib_d.dll
 0004:000005f0       __imp_?GetHotImage@CButtonUI@DuiLib@@UAEPB_WXZ 0043b5f0     DuiLib_d:DuiLib_d.dll
 0004:000005f4       __imp_?GetInterface@CButtonUI@DuiLib@@UAEPAXPB_W@Z 0043b5f4     DuiLib_d:DuiLib_d.dll
 0004:000005f8       __imp_?GetInterface@CListContainerElementUI@DuiLib@@UAEPAXPB_W@Z 0043b5f8     DuiLib_d:DuiLib_d.dll
 0004:000005fc       __imp_?GetInterface@CListLabelElementUI@DuiLib@@UAEPAXPB_W@Z 0043b5fc     DuiLib_d:DuiLib_d.dll
 0004:00000600       __imp_?GetInterface@CListTextElementUI@DuiLib@@UAEPAXPB_W@Z 0043b600     DuiLib_d:DuiLib_d.dll
 0004:00000604       __imp_?GetInterface@CListTextExtElementUI@DuiLib@@UAEPAXPB_W@Z 0043b604     DuiLib_d:DuiLib_d.dll
 0004:00000608       __imp_?GetInterface@CMenuElementUI@DuiLib@@UAEPAXPB_W@Z 0043b608     DuiLib_d:DuiLib_d.dll
 0004:0000060c       __imp_?GetInterface@COptionUI@DuiLib@@UAEPAXPB_W@Z 0043b60c     DuiLib_d:DuiLib_d.dll
 0004:00000610       __imp_?GetInterface@CTreeNodeUI@DuiLib@@UAEPAXPB_W@Z 0043b610     DuiLib_d:DuiLib_d.dll
 0004:00000614       __imp_?GetManagerName@WindowImplBase@DuiLib@@MAEPB_WXZ 0043b614     DuiLib_d:DuiLib_d.dll
 0004:00000618       __imp_?GetNormalImage@CButtonUI@DuiLib@@UAEPB_WXZ 0043b618     DuiLib_d:DuiLib_d.dll
 0004:0000061c       __imp_?GetPushedImage@CButtonUI@DuiLib@@UAEPB_WXZ 0043b61c     DuiLib_d:DuiLib_d.dll
 0004:00000620       __imp_?GetSelectedStateImage@COptionUI@DuiLib@@UAEPB_WXZ 0043b620     DuiLib_d:DuiLib_d.dll
 0004:00000624       __imp_?GetSkinType@WindowImplBase@DuiLib@@MAE?AVCDuiString@2@XZ 0043b624     DuiLib_d:DuiLib_d.dll
 0004:00000628       __imp_?GetStateImage@CButtonUI@DuiLib@@UAEPB_WXZ 0043b628     DuiLib_d:DuiLib_d.dll
 0004:0000062c       __imp_?GetStyle@WindowImplBase@DuiLib@@UAEJXZ 0043b62c     DuiLib_d:DuiLib_d.dll
 0004:00000630       __imp_?GetSuperClassName@CWindowWnd@DuiLib@@MBEPB_WXZ 0043b630     DuiLib_d:DuiLib_d.dll
 0004:00000634       __imp_?HandleMessage@WindowImplBase@DuiLib@@UAEJIIJ@Z 0043b634     DuiLib_d:DuiLib_d.dll
 0004:00000638       __imp_?InitResource@WindowImplBase@DuiLib@@UAEXXZ 0043b638     DuiLib_d:DuiLib_d.dll
 0004:0000063c       __imp_?MessageHandler@WindowImplBase@DuiLib@@UAEJIIJAA_N@Z 0043b63c     DuiLib_d:DuiLib_d.dll
 0004:00000640       __imp_?Move@CContainerUI@DuiLib@@UAEXUtagSIZE@@_N@Z 0043b640     DuiLib_d:DuiLib_d.dll
 0004:00000644       __imp_?OnChar@WindowImplBase@DuiLib@@UAEJIIJAAH@Z 0043b644     DuiLib_d:DuiLib_d.dll
 0004:00000648       __imp_?OnClick@WindowImplBase@DuiLib@@MAEXAAUtagTNotifyUI@2@@Z 0043b648     DuiLib_d:DuiLib_d.dll
 0004:0000064c       __imp_?OnClose@WindowImplBase@DuiLib@@UAEJIIJAAH@Z 0043b64c     DuiLib_d:DuiLib_d.dll
 0004:00000650       __imp_?OnCreate@WindowImplBase@DuiLib@@UAEJIIJAAH@Z 0043b650     DuiLib_d:DuiLib_d.dll
 0004:00000654       __imp_?OnKeyDown@WindowImplBase@DuiLib@@UAEJIIJAAH@Z 0043b654     DuiLib_d:DuiLib_d.dll
 0004:00000658       __imp_?OnKillFocus@WindowImplBase@DuiLib@@UAEJIIJAAH@Z 0043b658     DuiLib_d:DuiLib_d.dll
 0004:0000065c       __imp_?OnLButtonDown@WindowImplBase@DuiLib@@UAEJIIJAAH@Z 0043b65c     DuiLib_d:DuiLib_d.dll
 0004:00000660       __imp_?OnLButtonUp@WindowImplBase@DuiLib@@UAEJIIJAAH@Z 0043b660     DuiLib_d:DuiLib_d.dll
 0004:00000664       __imp_?OnMouseHover@WindowImplBase@DuiLib@@UAEJIIJAAH@Z 0043b664     DuiLib_d:DuiLib_d.dll
 0004:00000668       __imp_?OnMouseMove@WindowImplBase@DuiLib@@UAEJIIJAAH@Z 0043b668     DuiLib_d:DuiLib_d.dll
 0004:0000066c       __imp_?OnMouseWheel@WindowImplBase@DuiLib@@UAEJIIJAAH@Z 0043b66c     DuiLib_d:DuiLib_d.dll
 0004:00000670       __imp_?OnNcActivate@WindowImplBase@DuiLib@@UAEJIIJAAH@Z 0043b670     DuiLib_d:DuiLib_d.dll
 0004:00000674       __imp_?OnNcCalcSize@WindowImplBase@DuiLib@@UAEJIIJAAH@Z 0043b674     DuiLib_d:DuiLib_d.dll
 0004:00000678       __imp_?OnNcHitTest@WindowImplBase@DuiLib@@UAEJIIJAAH@Z 0043b678     DuiLib_d:DuiLib_d.dll
 0004:0000067c       __imp_?OnNcPaint@WindowImplBase@DuiLib@@UAEJIIJAAH@Z 0043b67c     DuiLib_d:DuiLib_d.dll
 0004:00000680       __imp_?OnSetFocus@WindowImplBase@DuiLib@@UAEJIIJAAH@Z 0043b680     DuiLib_d:DuiLib_d.dll
 0004:00000684       __imp_?OnSize@WindowImplBase@DuiLib@@UAEJIIJAAH@Z 0043b684     DuiLib_d:DuiLib_d.dll
 0004:00000688       __imp_?OnSysCommand@WindowImplBase@DuiLib@@UAEJIIJAAH@Z 0043b688     DuiLib_d:DuiLib_d.dll
 0004:0000068c       __imp_?PaintBkColor@CButtonUI@DuiLib@@UAEXPAUHDC__@@@Z 0043b68c     DuiLib_d:DuiLib_d.dll
 0004:00000690       __imp_?PaintBkColor@COptionUI@DuiLib@@UAEXPAUHDC__@@@Z 0043b690     DuiLib_d:DuiLib_d.dll
 0004:00000694       __imp_?PaintForeImage@CButtonUI@DuiLib@@UAEXPAUHDC__@@@Z 0043b694     DuiLib_d:DuiLib_d.dll
 0004:00000698       __imp_?messageMap@WindowImplBase@DuiLib@@1UDUI_MSGMAP@2@B 0043b698     DuiLib_d:DuiLib_d.dll
 0004:0000069c       \177DuiLib_d_NULL_THUNK_DATA 0043b69c     DuiLib_d:DuiLib_d.dll
 0004:00000818       __imp__LocalFree@4         0043b818     kernel32:KERNEL32.dll
 0004:0000081c       __imp__GetLastError@0      0043b81c     kernel32:KERNEL32.dll
 0004:00000820       __imp__UnhandledExceptionFilter@4 0043b820     kernel32:KERNEL32.dll
 0004:00000824       __imp__SetUnhandledExceptionFilter@4 0043b824     kernel32:KERNEL32.dll
 0004:00000828       __imp__GetCurrentProcess@0 0043b828     kernel32:KERNEL32.dll
 0004:0000082c       __imp__TerminateProcess@8  0043b82c     kernel32:KERNEL32.dll
 0004:00000830       __imp__IsProcessorFeaturePresent@4 0043b830     kernel32:KERNEL32.dll
 0004:00000834       __imp__IsDebuggerPresent@0 0043b834     kernel32:KERNEL32.dll
 0004:00000838       __imp__RaiseException@16   0043b838     kernel32:KERNEL32.dll
 0004:0000083c       __imp__MultiByteToWideChar@24 0043b83c     kernel32:KERNEL32.dll
 0004:00000840       __imp__WideCharToMultiByte@32 0043b840     kernel32:KERNEL32.dll
 0004:00000844       __imp__GetStartupInfoW@4   0043b844     kernel32:KERNEL32.dll
 0004:00000848       __imp__GetModuleHandleW@4  0043b848     kernel32:KERNEL32.dll
 0004:0000084c       __imp__QueryPerformanceCounter@4 0043b84c     kernel32:KERNEL32.dll
 0004:00000850       __imp__GetCurrentProcessId@0 0043b850     kernel32:KERNEL32.dll
 0004:00000854       __imp__GetCurrentThreadId@0 0043b854     kernel32:KERNEL32.dll
 0004:00000858       __imp__GetSystemTimeAsFileTime@4 0043b858     kernel32:KERNEL32.dll
 0004:0000085c       __imp__InitializeSListHead@4 0043b85c     kernel32:KERNEL32.dll
 0004:00000860       __imp__HeapAlloc@12        0043b860     kernel32:KERNEL32.dll
 0004:00000864       __imp__HeapFree@12         0043b864     kernel32:KERNEL32.dll
 0004:00000868       __imp__GetProcessHeap@0    0043b868     kernel32:KERNEL32.dll
 0004:0000086c       __imp__VirtualQuery@12     0043b86c     kernel32:KERNEL32.dll
 0004:00000870       __imp__FreeLibrary@4       0043b870     kernel32:KERNEL32.dll
 0004:00000874       __imp__GetProcAddress@8    0043b874     kernel32:KERNEL32.dll
 0004:00000878       __imp__lstrlenW@4          0043b878     kernel32:KERNEL32.dll
 0004:0000087c       __imp__lstrcmpiW@8         0043b87c     kernel32:KERNEL32.dll
 0004:00000880       __imp__FindResourceW@12    0043b880     kernel32:KERNEL32.dll
 0004:00000884       __imp__SizeofResource@8    0043b884     kernel32:KERNEL32.dll
 0004:00000888       __imp__LockResource@4      0043b888     kernel32:KERNEL32.dll
 0004:0000088c       __imp__LoadResource@8      0043b88c     kernel32:KERNEL32.dll
 0004:00000890       __imp__FreeResource@4      0043b890     kernel32:KERNEL32.dll
 0004:00000894       \177KERNEL32_NULL_THUNK_DATA 0043b894     kernel32:KERNEL32.dll
 0004:000008d8       __imp_?_Xlength_error@std@@YAXPBD@Z 0043b8d8     msvcprtd:MSVCP140D.dll
 0004:000008dc       __imp_?_Xbad_alloc@std@@YAXXZ 0043b8dc     msvcprtd:MSVCP140D.dll
 0004:000008e0       __imp_?_Debug_message@std@@YAXPB_W0I@Z 0043b8e0     msvcprtd:MSVCP140D.dll
 0004:000008e4       __imp_??1_Lockit@std@@QAE@XZ 0043b8e4     msvcprtd:MSVCP140D.dll
 0004:000008e8       __imp_??0_Lockit@std@@QAE@H@Z 0043b8e8     msvcprtd:MSVCP140D.dll
 0004:000008ec       \177MSVCP140D_NULL_THUNK_DATA 0043b8ec     msvcprtd:MSVCP140D.dll
 0004:0000091c       __imp__VariantChangeType@16 0043b91c     oleaut32:OLEAUT32.dll
 0004:00000920       __imp__SetErrorInfo@8      0043b920     oleaut32:OLEAUT32.dll
 0004:00000924       __imp__SysAllocString@4    0043b924     oleaut32:OLEAUT32.dll
 0004:00000928       __imp__SysFreeString@4     0043b928     oleaut32:OLEAUT32.dll
 0004:0000092c       __imp__VariantClear@4      0043b92c     oleaut32:OLEAUT32.dll
 0004:00000930       __imp__VariantInit@4       0043b930     oleaut32:OLEAUT32.dll
 0004:00000934       __imp__GetErrorInfo@8      0043b934     oleaut32:OLEAUT32.dll
 0004:00000938       __imp__CreateErrorInfo@4   0043b938     oleaut32:OLEAUT32.dll
 0004:0000093c       \177OLEAUT32_NULL_THUNK_DATA 0043b93c     oleaut32:OLEAUT32.dll
 0004:0000096c       __imp__ShellExecuteW@24    0043b96c     shell32:SHELL32.dll
 0004:00000970       __imp__SHGetFolderPathW@20 0043b970     shell32:SHELL32.dll
 0004:00000974       \177SHELL32_NULL_THUNK_DATA 0043b974     shell32:SHELL32.dll
 0004:000009a0       __imp__IsZoomed@4          0043b9a0     user32:USER32.dll
 0004:000009a4       __imp__GetWindowLongW@8    0043b9a4     user32:USER32.dll
 0004:000009a8       __imp__ClientToScreen@8    0043b9a8     user32:USER32.dll
 0004:000009ac       __imp__GetCursorPos@4      0043b9ac     user32:USER32.dll
 0004:000009b0       __imp__MessageBoxW@16      0043b9b0     user32:USER32.dll
 0004:000009b4       __imp__InvalidateRect@12   0043b9b4     user32:USER32.dll
 0004:000009b8       __imp__IsIconic@4          0043b9b8     user32:USER32.dll
 0004:000009bc       __imp__IsWindowVisible@4   0043b9bc     user32:USER32.dll
 0004:000009c0       __imp__DestroyWindow@4     0043b9c0     user32:USER32.dll
 0004:000009c4       __imp__PostQuitMessage@4   0043b9c4     user32:USER32.dll
 0004:000009c8       __imp__OffsetRect@12       0043b9c8     user32:USER32.dll
 0004:000009cc       __imp__IntersectRect@12    0043b9cc     user32:USER32.dll
 0004:000009d0       __imp__GetWindowRect@8     0043b9d0     user32:USER32.dll
 0004:000009d4       __imp__SetWindowPos@28     0043b9d4     user32:USER32.dll
 0004:000009d8       __imp__ShowWindow@8        0043b9d8     user32:USER32.dll
 0004:000009dc       __imp__IsChild@8           0043b9dc     user32:USER32.dll
 0004:000009e0       __imp__IsWindow@4          0043b9e0     user32:USER32.dll
 0004:000009e4       __imp__SetWindowLongW@12   0043b9e4     user32:USER32.dll
 0004:000009e8       \177USER32_NULL_THUNK_DATA 0043b9e8     user32:USER32.dll
 0004:00000a20       __imp___CxxThrowException@8 0043ba20     vcruntimed:VCRUNTIME140D.dll
 0004:00000a24       __imp____vcrt_LoadLibraryExW 0043ba24     vcruntimed:VCRUNTIME140D.dll
 0004:00000a28       __imp____CxxFrameHandler3  0043ba28     vcruntimed:VCRUNTIME140D.dll
 0004:00000a2c       __imp___purecall           0043ba2c     vcruntimed:VCRUNTIME140D.dll
 0004:00000a30       __imp____vcrt_GetModuleHandleW 0043ba30     vcruntimed:VCRUNTIME140D.dll
 0004:00000a34       __imp____vcrt_GetModuleFileNameW 0043ba34     vcruntimed:VCRUNTIME140D.dll
 0004:00000a38       __imp____std_type_info_destroy_list 0043ba38     vcruntimed:VCRUNTIME140D.dll
 0004:00000a3c       __imp____std_exception_destroy 0043ba3c     vcruntimed:VCRUNTIME140D.dll
 0004:00000a40       __imp____std_exception_copy 0043ba40     vcruntimed:VCRUNTIME140D.dll
 0004:00000a44       __imp___except_handler4_common 0043ba44     vcruntimed:VCRUNTIME140D.dll
 0004:00000a48       __imp__memset              0043ba48     vcruntimed:VCRUNTIME140D.dll
 0004:00000a4c       \177VCRUNTIME140D_NULL_THUNK_DATA 0043ba4c     vcruntimed:VCRUNTIME140D.dll
 0004:00000a80       __imp__GdipAlloc@4         0043ba80     GdiPlus:gdiplus.dll
 0004:00000a84       __imp__GdipCreateSolidFill@8 0043ba84     GdiPlus:gdiplus.dll
 0004:00000a88       __imp__GdipCreateFromHDC@8 0043ba88     GdiPlus:gdiplus.dll
 0004:00000a8c       __imp__GdipFillPieI@32     0043ba8c     GdiPlus:gdiplus.dll
 0004:00000a90       __imp__GdipFillEllipseI@24 0043ba90     GdiPlus:gdiplus.dll
 0004:00000a94       __imp__GdipCloneBrush@8    0043ba94     GdiPlus:gdiplus.dll
 0004:00000a98       __imp__GdipFillRectangleI@24 0043ba98     GdiPlus:gdiplus.dll
 0004:00000a9c       __imp__GdipSetSmoothingMode@8 0043ba9c     GdiPlus:gdiplus.dll
 0004:00000aa0       __imp__GdipReleaseDC@8     0043baa0     GdiPlus:gdiplus.dll
 0004:00000aa4       __imp__GdipFree@4          0043baa4     GdiPlus:gdiplus.dll
 0004:00000aa8       __imp__GdipDeleteGraphics@4 0043baa8     GdiPlus:gdiplus.dll
 0004:00000aac       __imp__GdipDeleteBrush@4   0043baac     GdiPlus:gdiplus.dll
 0004:00000ab0       \177gdiplus_NULL_THUNK_DATA 0043bab0     GdiPlus:gdiplus.dll
 0004:00000ae4       __imp__CoUninitialize@0    0043bae4     ole32:ole32.dll
 0004:00000ae8       __imp__CoInitialize@4      0043bae8     ole32:ole32.dll
 0004:00000aec       __imp__OleUninitialize@0   0043baec     ole32:ole32.dll
 0004:00000af0       __imp__OleInitialize@4     0043baf0     ole32:ole32.dll
 0004:00000af4       \177ole32_NULL_THUNK_DATA  0043baf4     ole32:ole32.dll
 0004:00000b20       __imp___c_exit             0043bb20     ucrtd:ucrtbased.dll
 0004:00000b24       __imp___register_thread_local_exe_atexit_callback 0043bb24     ucrtd:ucrtbased.dll
 0004:00000b28       __imp___configthreadlocale 0043bb28     ucrtd:ucrtbased.dll
 0004:00000b2c       __imp___set_new_mode       0043bb2c     ucrtd:ucrtbased.dll
 0004:00000b30       __imp____p__commode        0043bb30     ucrtd:ucrtbased.dll
 0004:00000b34       __imp__strcpy_s            0043bb34     ucrtd:ucrtbased.dll
 0004:00000b38       __imp__strcat_s            0043bb38     ucrtd:ucrtbased.dll
 0004:00000b3c       __imp____stdio_common_vsprintf_s 0043bb3c     ucrtd:ucrtbased.dll
 0004:00000b40       __imp___controlfp_s        0043bb40     ucrtd:ucrtbased.dll
 0004:00000b44       __imp___wmakepath_s        0043bb44     ucrtd:ucrtbased.dll
 0004:00000b48       __imp___wsplitpath_s       0043bb48     ucrtd:ucrtbased.dll
 0004:00000b4c       __imp__wcscpy_s            0043bb4c     ucrtd:ucrtbased.dll
 0004:00000b50       __imp___set_fmode          0043bb50     ucrtd:ucrtbased.dll
 0004:00000b54       __imp___exit               0043bb54     ucrtd:ucrtbased.dll
 0004:00000b58       __imp__exit                0043bb58     ucrtd:ucrtbased.dll
 0004:00000b5c       __imp___initterm_e         0043bb5c     ucrtd:ucrtbased.dll
 0004:00000b60       __imp___initterm           0043bb60     ucrtd:ucrtbased.dll
 0004:00000b64       __imp____setusermatherr    0043bb64     ucrtd:ucrtbased.dll
 0004:00000b68       __imp___set_app_type       0043bb68     ucrtd:ucrtbased.dll
 0004:00000b6c       __imp___seh_filter_exe     0043bb6c     ucrtd:ucrtbased.dll
 0004:00000b70       __imp___cexit              0043bb70     ucrtd:ucrtbased.dll
 0004:00000b74       __imp___crt_at_quick_exit  0043bb74     ucrtd:ucrtbased.dll
 0004:00000b78       __imp___crt_atexit         0043bb78     ucrtd:ucrtbased.dll
 0004:00000b7c       __imp___register_onexit_function 0043bb7c     ucrtd:ucrtbased.dll
 0004:00000b80       __imp___initialize_onexit_table 0043bb80     ucrtd:ucrtbased.dll
 0004:00000b84       __imp___initialize_narrow_environment 0043bb84     ucrtd:ucrtbased.dll
 0004:00000b88       __imp___configure_narrow_argv 0043bb88     ucrtd:ucrtbased.dll
 0004:00000b8c       __imp___seh_filter_dll     0043bb8c     ucrtd:ucrtbased.dll
 0004:00000b90       __imp__terminate           0043bb90     ucrtd:ucrtbased.dll
 0004:00000b94       __imp___CrtDbgReport       0043bb94     ucrtd:ucrtbased.dll
 0004:00000b98       __imp___free_dbg           0043bb98     ucrtd:ucrtbased.dll
 0004:00000b9c       __imp__malloc              0043bb9c     ucrtd:ucrtbased.dll
 0004:00000ba0       __imp___callnewh           0043bba0     ucrtd:ucrtbased.dll
 0004:00000ba4       __imp__wcslen              0043bba4     ucrtd:ucrtbased.dll
 0004:00000ba8       __imp___wtoi               0043bba8     ucrtd:ucrtbased.dll
 0004:00000bac       __imp___wtof               0043bbac     ucrtd:ucrtbased.dll
 0004:00000bb0       __imp___CrtDbgReportW      0043bbb0     ucrtd:ucrtbased.dll
 0004:00000bb4       __imp__wcstol              0043bbb4     ucrtd:ucrtbased.dll
 0004:00000bb8       __imp__wcscmp              0043bbb8     ucrtd:ucrtbased.dll
 0004:00000bbc       __imp___invalid_parameter  0043bbbc     ucrtd:ucrtbased.dll
 0004:00000bc0       __imp___get_narrow_winmain_command_line 0043bbc0     ucrtd:ucrtbased.dll
 0004:00000bc4       __imp___execute_onexit_table 0043bbc4     ucrtd:ucrtbased.dll
 0004:00000bc8       \177ucrtbased_NULL_THUNK_DATA 0043bbc8     ucrtd:ucrtbased.dll
 0004:00000c14       __IMPORT_DESCRIPTOR_KERNEL32 0043bc14     kernel32:KERNEL32.dll
 0004:00000c28       __IMPORT_DESCRIPTOR_USER32 0043bc28     user32:USER32.dll
 0004:00000c3c       __IMPORT_DESCRIPTOR_SHELL32 0043bc3c     shell32:SHELL32.dll
 0004:00000c50       __IMPORT_DESCRIPTOR_ole32  0043bc50     ole32:ole32.dll
 0004:00000c64       __IMPORT_DESCRIPTOR_OLEAUT32 0043bc64     oleaut32:OLEAUT32.dll
 0004:00000c78       __IMPORT_DESCRIPTOR_DuiLib_d 0043bc78     DuiLib_d:DuiLib_d.dll
 0004:00000c8c       __IMPORT_DESCRIPTOR_MSVCP140D 0043bc8c     msvcprtd:MSVCP140D.dll
 0004:00000ca0       __IMPORT_DESCRIPTOR_gdiplus 0043bca0     GdiPlus:gdiplus.dll
 0004:00000cb4       __IMPORT_DESCRIPTOR_VCRUNTIME140D 0043bcb4     vcruntimed:VCRUNTIME140D.dll
 0004:00000cc8       __IMPORT_DESCRIPTOR_ucrtbased 0043bcc8     ucrtd:ucrtbased.dll
 0004:00000cdc       __NULL_IMPORT_DESCRIPTOR   0043bcdc     kernel32:KERNEL32.dll
 0005:00000000       ___guard_check_icall_fptr  00443000     MSVCRTD:guard_support.obj
