 WkeBrowser_d

 Timestamp is 5a2a0ae9 (Fri Dec  8 11:45:45 2017)

 Preferred load address is 00400000

 Start         Length     Name                   Class
 0001:00000000 000036e0H .text$di                CODE
 0001:000036e0 000180b0H .text$mn                CODE
 0001:0001b790 00002420H .text$x                 CODE
 0001:0001dbb0 000010b1H .text$yd                CODE
 0002:00000000 00000104H .CRT$XCA                DATA
 0002:00000104 00000104H .CRT$XCAA               DATA
 0002:00000208 00000114H .CRT$XCU                DATA
 0002:0000031c 00000104H .CRT$XCZ                DATA
 0002:00000420 00000104H .CRT$XIA                DATA
 0002:00000524 00000104H .CRT$XIAA               DATA
 0002:00000628 00000104H .CRT$XIAC               DATA
 0002:0000072c 00000104H .CRT$XIC                DATA
 0002:00000830 00000104H .CRT$XIZ                DATA
 0002:00000934 00000004H .CRT$XLA                DATA
 0002:00000938 00000004H .CRT$XLZ                DATA
 0002:0000093c 00000104H .CRT$XPA                DATA
 0002:00000a40 00000104H .CRT$XPZ                DATA
 0002:00000b44 00000104H .CRT$XTA                DATA
 0002:00000c48 00000108H .CRT$XTZ                DATA
 0002:00000d50 00003b20H .rdata                  DATA
 0002:00004870 0000011cH .rdata$T                DATA
 0002:0000498c 00000984H .rdata$r                DATA
 0002:00005310 0000027cH .rdata$sxdata           DATA
 0002:0000558c 00000178H .rdata$zzzdbg           DATA
 0002:00005704 00000104H .rtc$IAA                DATA
 0002:00005808 00000118H .rtc$IMZ                DATA
 0002:00005920 00000104H .rtc$IZZ                DATA
 0002:00005a24 00000104H .rtc$TAA                DATA
 0002:00005b28 00000118H .rtc$TMZ                DATA
 0002:00005c40 00000108H .rtc$TZZ                DATA
 0002:00005d48 000014f9H .xdata$x                DATA
 0002:00007241 00000000H .edata                  DATA
 0003:00000000 0000014cH .data                   DATA
 0003:0000014c 00000414H .data$r                 DATA
 0003:00000560 0000105cH .bss                    DATA
 0004:00000000 0000087cH .idata$5                DATA
 0004:0000087c 000000dcH .idata$2                DATA
 0004:00000958 00000014H .idata$3                DATA
 0004:0000096c 0000087cH .idata$4                DATA
 0004:000011e8 000036abH .idata$6                DATA
 0005:00000000 00000104H .tls                    DATA
 0005:00000104 00000104H .tls$                   DATA
 0005:00000208 00000101H .tls$ZZZ                DATA
 0006:00000000 00000104H .00cfg                  DATA
 0007:00000000 00000470H .rsrc$01                DATA
 0007:00000470 000b7fb3H .rsrc$02                DATA

  Address         Publics by Value              Rva+Base       Lib:Object

 0000:00000000       ___hybrid_code_map_count   00000000     <absolute>
 0000:00000000       ___guard_iat_table         00000000     <absolute>
 0000:00000000       ___guard_iat_count         00000000     <absolute>
 0000:00000000       ___guard_fids_count        00000000     <absolute>
 0000:00000000       ___dynamic_value_reloc_table 00000000     <absolute>
 0000:00000000       ___enclave_config          00000000     <absolute>
 0000:00000000       ___hybrid_code_map         00000000     <absolute>
 0000:00000000       ___hybrid_auxiliary_iat    00000000     <absolute>
 0000:00000000       ___guard_longjmp_table     00000000     <absolute>
 0000:00000000       ___guard_fids_table        00000000     <absolute>
 0000:00000000       ___guard_longjmp_count     00000000     <absolute>
 0000:0000002c       __tls_array                0000002c     <absolute>
 0000:0000004f       ___safe_se_handler_count   0000004f     <absolute>
 0000:00000100       ___guard_flags             00000100     <absolute>
 0000:00000000       ___ImageBase               00400000     <linker-defined>
 0001:000036e0       ??0CMainWnd@@QAE@XZ        004046e0 f   MainWnd.obj
 0001:00003780       ??1CMainWnd@@UAE@XZ        00404780 f   MainWnd.obj
 0001:00003810       ?InitWindow@CMainWnd@@UAEXXZ 00404810 f   MainWnd.obj
 0001:00003990       ?OnFinalMessage@CMainWnd@@UAEXPAUHWND__@@@Z 00404990 f   MainWnd.obj
 0001:00003a10       ?GetSkinFile@CMainWnd@@UAE?AVCDuiString@DuiLib@@XZ 00404a10 f   MainWnd.obj
 0001:00003a70       ?GetWindowClassName@CMainWnd@@UBEPB_WXZ 00404a70 f   MainWnd.obj
 0001:00003a90       ?_GetBaseMessageMap@CMainWnd@@KGPBUDUI_MSGMAP@DuiLib@@XZ 00404a90 f   MainWnd.obj
 0001:00003aa0       ?GetMessageMap@CMainWnd@@MBEPBUDUI_MSGMAP@DuiLib@@XZ 00404aa0 f   MainWnd.obj
 0001:00003ac0       ?OnClick@CMainWnd@@MAEXAAUtagTNotifyUI@DuiLib@@@Z 00404ac0 f   MainWnd.obj
 0001:00003e90       ?OnSelectChanged@CMainWnd@@MAEXAAUtagTNotifyUI@DuiLib@@@Z 00404e90 f   MainWnd.obj
 0001:00004180       ?OnTabIndexChanged@CMainWnd@@MAEXAAUtagTNotifyUI@DuiLib@@@Z 00405180 f   MainWnd.obj
 0001:00004410       ?OnTabClosed@CMainWnd@@MAEXAAUtagTNotifyUI@DuiLib@@@Z 00405410 f   MainWnd.obj
 0001:000047b0       ?OnReturn@CMainWnd@@MAEXAAUtagTNotifyUI@DuiLib@@@Z 004057b0 f   MainWnd.obj
 0001:00004900       ?OnSysCommand@CMainWnd@@MAEJIIJAAH@Z 00405900 f   MainWnd.obj
 0001:00004ad0       ?HandleCustomMessage@CMainWnd@@MAEJIIJAAH@Z 00405ad0 f   MainWnd.obj
 0001:00004b80       ?CreateNewTab@CMainWnd@@QAEHHPB_W@Z 00405b80 f   MainWnd.obj
 0001:00004ed0       ?CreateNewTabAndGo@CMainWnd@@QAEHPB_W@Z 00405ed0 f   MainWnd.obj
 0001:00004f70       ?GetCurWeb@CMainWnd@@QAEPAVCWkeWebkitUI@@XZ 00405f70 f   MainWnd.obj
 0001:00004ff0       ?AddressGo@CMainWnd@@QAEXXZ 00405ff0 f   MainWnd.obj
 0001:00005110       ?SearchGo@CMainWnd@@QAEXXZ 00406110 f   MainWnd.obj
 0001:000052b0       ?Back@CMainWnd@@QAEXXZ     004062b0 f   MainWnd.obj
 0001:000052f0       ?Forward@CMainWnd@@QAEXXZ  004062f0 f   MainWnd.obj
 0001:00005330       ?Home@CMainWnd@@QAEXXZ     00406330 f   MainWnd.obj
 0001:00005370       ?Refresh@CMainWnd@@QAEXXZ  00406370 f   MainWnd.obj
 0001:000053b0       ?OnWkeTitleChanged@CMainWnd@@UAEXPAVCWkeWebkitUI@@PB_W@Z 004063b0 f   MainWnd.obj
 0001:00005550       ?OnWkeURLChanged@CMainWnd@@UAEXPAVCWkeWebkitUI@@PB_W@Z 00406550 f   MainWnd.obj
 0001:00005700       ?OnWkeAlertBox@CMainWnd@@UAEXPAVCWkeWebkitUI@@PB_W@Z 00406700 f   MainWnd.obj
 0001:00005720       ?OnWkeNavigation@CMainWnd@@UAE_NPAVCWkeWebkitUI@@W4wkeNavigationType@@PB_W@Z 00406720 f   MainWnd.obj
 0001:00005740       ?OnWkeCreateView@CMainWnd@@UAEPAVCWebView@wke@@PAVCWkeWebkitUI@@PBUwkeNewViewInfo@@@Z 00406740 f   MainWnd.obj
 0001:00005830       ?OnWkeDocumentReady@CMainWnd@@UAEXPAVCWkeWebkitUI@@PBUwkeDocumentReadyInfo@@@Z 00406830 f   MainWnd.obj
 0001:00005850       ?OnWkeLoadingFinish@CMainWnd@@UAEXPAVCWkeWebkitUI@@QB_WW4wkeLoadingResult@@PB_W@Z 00406850 f   MainWnd.obj
 0001:00005870       ?OnJS2Native@CMainWnd@@UAEPB_WPAVCWkeWebkitUI@@PB_W1PAX@Z 00406870 f   MainWnd.obj
 0001:00006100       ??$?0$$V@?$_Compressed_pair@V?$allocator@PAU_tagTabInfo@@@std@@V?$_Vector_val@U?$_Simple_types@PAU_tagTabInfo@@@std@@@2@$00@std@@QAE@U_Zero_then_variadic_args_t@1@@Z 00407100 f i MainWnd.obj
 0001:00006140       ??$?0PAU_tagTabInfo@@@?$allocator@U_Container_proxy@std@@@std@@QAE@ABV?$allocator@PAU_tagTabInfo@@@1@@Z 00407140 f i MainWnd.obj
 0001:00006160       ??$_Copy_memmove@PAPAU_tagTabInfo@@PAPAU1@@std@@YAPAPAU_tagTabInfo@@PAPAU1@00@Z 00407160 f i MainWnd.obj
 0001:000061d0       ??$_Deallocate_plain@V?$allocator@U_Container_proxy@std@@@std@@$0A@@std@@YAXAAV?$allocator@U_Container_proxy@std@@@0@QAU_Container_proxy@0@@Z 004071d0 f i MainWnd.obj
 0001:00006200       ??$_Debug_range2@V?$_Vector_iterator@V?$_Vector_val@U?$_Simple_types@PAU_tagTabInfo@@@std@@@std@@@std@@@std@@YAXV?$_Vector_iterator@V?$_Vector_val@U?$_Simple_types@PAU_tagTabInfo@@@std@@@std@@@0@0PB_WIUrandom_access_iterator_tag@0@@Z 00407200 f i MainWnd.obj
 0001:000062e0       ??$_Debug_range@V?$_Vector_iterator@V?$_Vector_val@U?$_Simple_types@PAU_tagTabInfo@@@std@@@std@@@std@@@std@@YAXV?$_Vector_iterator@V?$_Vector_val@U?$_Simple_types@PAU_tagTabInfo@@@std@@@std@@@0@0PB_WI@Z 004072e0 f i MainWnd.obj
 0001:000063c0       ??$_Destroy_range1@V?$allocator@PAU_tagTabInfo@@@std@@@std@@YAXPAPAU_tagTabInfo@@0AAV?$allocator@PAU_tagTabInfo@@@0@U?$integral_constant@_N$00@0@@Z 004073c0 f i MainWnd.obj
 0001:000063d0       ??$_Destroy_range@V?$allocator@PAU_tagTabInfo@@@std@@@std@@YAXPAPAU_tagTabInfo@@0AAV?$allocator@PAU_tagTabInfo@@@0@@Z 004073d0 f i MainWnd.obj
 0001:00006410       ??$_Emplace_back_with_unused_capacity@ABQAU_tagTabInfo@@@?$vector@PAU_tagTabInfo@@V?$allocator@PAU_tagTabInfo@@@std@@@std@@AAEXABQAU_tagTabInfo@@@Z 00407410 f i MainWnd.obj
 0001:000064d0       ??$_Find_if_unchecked@PAPAU_tagTabInfo@@Vtab_finder@@@std@@YAPAPAU_tagTabInfo@@PAPAU1@0AAVtab_finder@@@Z 004074d0 f i MainWnd.obj
 0001:00006520       ??$_Find_if_unchecked@PAPAU_tagTabInfo@@Vweb_finder@@@std@@YAPAPAU_tagTabInfo@@PAPAU1@0AAVweb_finder@@@Z 00407520 f i MainWnd.obj
 0001:00006570       ??$_Min_value@I@std@@YAABIABI0@Z 00407570 f i MainWnd.obj
 0001:000065c0       ??$_Move_unchecked1@PAPAU_tagTabInfo@@PAPAU1@@std@@YAPAPAU_tagTabInfo@@PAPAU1@00U_Trivially_copyable_ptr_iterator_tag@0@@Z 004075c0 f i MainWnd.obj
 0001:000065f0       ??$_Move_unchecked@PAPAU_tagTabInfo@@PAPAU1@@std@@YAPAPAU_tagTabInfo@@PAPAU1@00@Z 004075f0 f i MainWnd.obj
 0001:00006650       ??$_Ptr_move_cat@PAU_tagTabInfo@@PAU1@@std@@YA?AU_Really_trivial_ptr_iterator_tag@0@ABQAPAU_tagTabInfo@@0@Z 00407650 f i MainWnd.obj
 0001:00006660       ??$_Rechecked@PAPAU_tagTabInfo@@PAPAU1@@std@@YAAAPAPAU_tagTabInfo@@AAPAPAU1@PAPAU1@@Z 00407660 f i MainWnd.obj
 0001:00006680       ??$_Rechecked@V?$_Vector_val@U?$_Simple_types@PAU_tagTabInfo@@@std@@@std@@@std@@YAAAV?$_Vector_iterator@V?$_Vector_val@U?$_Simple_types@PAU_tagTabInfo@@@std@@@std@@@0@AAV10@QAPAU_tagTabInfo@@@Z 00407680 f i MainWnd.obj
 0001:000066a0       ??$_Unchecked@PAPAU_tagTabInfo@@@std@@YAPAPAU_tagTabInfo@@PAPAU1@@Z 004076a0 f i MainWnd.obj
 0001:000066b0       ??$_Unchecked@V?$_Vector_val@U?$_Simple_types@PAU_tagTabInfo@@@std@@@std@@@std@@YAPAPAU_tagTabInfo@@ABV?$_Vector_iterator@V?$_Vector_val@U?$_Simple_types@PAU_tagTabInfo@@@std@@@std@@@0@@Z 004076b0 f i MainWnd.obj
 0001:000066c0       ??$_Unfancy@PAU_tagTabInfo@@@std@@YAPAPAU_tagTabInfo@@PAPAU1@@Z 004076c0 f i MainWnd.obj
 0001:000066d0       ??$_Unfancy@U_Container_proxy@std@@@std@@YAPAU_Container_proxy@0@PAU10@@Z 004076d0 f i MainWnd.obj
 0001:000066e0       ??$_Uninitialized_move@PAPAU_tagTabInfo@@PAPAU1@V?$allocator@PAU_tagTabInfo@@@std@@@std@@YAPAPAU_tagTabInfo@@PAPAU1@00AAV?$allocator@PAU_tagTabInfo@@@0@@Z 004076e0 f i MainWnd.obj
 0001:00006800       ??$_Uninitialized_move_al_unchecked@PAU_tagTabInfo@@PAU1@V?$allocator@PAU_tagTabInfo@@@std@@@std@@YAPAPAU_tagTabInfo@@PAPAU1@00AAV?$allocator@PAU_tagTabInfo@@@0@U_Really_trivial_ptr_iterator_tag@0@U?$integral_constant@_N$00@0@@Z 00407800 f i MainWnd.obj
 0001:00006830       ??$addressof@V?$_Vector_val@U?$_Simple_types@PAU_tagTabInfo@@@std@@@std@@@std@@YAPAV?$_Vector_val@U?$_Simple_types@PAU_tagTabInfo@@@std@@@0@AAV10@@Z 00407830 f i MainWnd.obj
 0001:00006840       ??$construct@PAU_tagTabInfo@@ABQAU1@@?$_Default_allocator_traits@V?$allocator@PAU_tagTabInfo@@@std@@@std@@SAXAAV?$allocator@PAU_tagTabInfo@@@1@QAPAU_tagTabInfo@@ABQAU3@@Z 00407840 f i MainWnd.obj
 0001:00006890       ??$construct@U_Container_proxy@std@@U12@@?$_Default_allocator_traits@V?$allocator@U_Container_proxy@std@@@std@@@std@@SAXAAV?$allocator@U_Container_proxy@std@@@1@QAU_Container_proxy@1@$$QAU31@@Z 00407890 f i MainWnd.obj
 0001:000068f0       ??$destroy@PAU_tagTabInfo@@@?$_Default_allocator_traits@V?$allocator@PAU_tagTabInfo@@@std@@@std@@SAXAAV?$allocator@PAU_tagTabInfo@@@1@QAPAU_tagTabInfo@@@Z 004078f0 f i MainWnd.obj
 0001:00006900       ??$destroy@U_Container_proxy@std@@@?$_Default_allocator_traits@V?$allocator@U_Container_proxy@std@@@std@@@std@@SAXAAV?$allocator@U_Container_proxy@std@@@1@QAU_Container_proxy@1@@Z 00407900 f i MainWnd.obj
 0001:00006910       ??$emplace_back@ABQAU_tagTabInfo@@@?$vector@PAU_tagTabInfo@@V?$allocator@PAU_tagTabInfo@@@std@@@std@@QAEXABQAU_tagTabInfo@@@Z 00407910 f i MainWnd.obj
 0001:00006b40       ??$find_if@V?$_Vector_iterator@V?$_Vector_val@U?$_Simple_types@PAU_tagTabInfo@@@std@@@std@@@std@@Vtab_finder@@@std@@YA?AV?$_Vector_iterator@V?$_Vector_val@U?$_Simple_types@PAU_tagTabInfo@@@std@@@std@@@0@V10@0Vtab_finder@@@Z 00407b40 f i MainWnd.obj
 0001:00006c80       ??$find_if@V?$_Vector_iterator@V?$_Vector_val@U?$_Simple_types@PAU_tagTabInfo@@@std@@@std@@@std@@Vweb_finder@@@std@@YA?AV?$_Vector_iterator@V?$_Vector_val@U?$_Simple_types@PAU_tagTabInfo@@@std@@@std@@@0@V10@0Vweb_finder@@@Z 00407c80 f i MainWnd.obj
 0001:00006dc0       ??$forward@ABQAU_tagTabInfo@@@std@@YAABQAU_tagTabInfo@@ABQAU1@@Z 00407dc0 f i MainWnd.obj
 0001:00006dd0       ??$forward@U_Container_proxy@std@@@std@@YA$$QAU_Container_proxy@0@AAU10@@Z 00407dd0 f i MainWnd.obj
 0001:00006de0       ??0?$_Vector_alloc@U?$_Vec_base_types@PAU_tagTabInfo@@V?$allocator@PAU_tagTabInfo@@@std@@@std@@@std@@QAE@XZ 00407de0 f i MainWnd.obj
 0001:00006e80       ??0?$_Vector_const_iterator@V?$_Vector_val@U?$_Simple_types@PAU_tagTabInfo@@@std@@@std@@@std@@QAE@ABV01@@Z 00407e80 f i MainWnd.obj
 0001:00006ed0       ??0?$_Vector_const_iterator@V?$_Vector_val@U?$_Simple_types@PAU_tagTabInfo@@@std@@@std@@@std@@QAE@PAPAU_tagTabInfo@@PBU_Container_base12@1@@Z 00407ed0 f i MainWnd.obj
 0001:00006f20       ??0?$_Vector_iterator@V?$_Vector_val@U?$_Simple_types@PAU_tagTabInfo@@@std@@@std@@@std@@QAE@ABV01@@Z 00407f20 f i MainWnd.obj
 0001:00006f60       ??0?$_Vector_iterator@V?$_Vector_val@U?$_Simple_types@PAU_tagTabInfo@@@std@@@std@@@std@@QAE@PAPAU_tagTabInfo@@PBU_Container_base12@1@@Z 00407f60 f i MainWnd.obj
 0001:00006fa0       ??0?$_Vector_val@U?$_Simple_types@PAU_tagTabInfo@@@std@@@std@@QAE@XZ 00407fa0 f i MainWnd.obj
 0001:00007000       ??0?$allocator@PAU_tagTabInfo@@@std@@QAE@XZ 00408000 f i MainWnd.obj
 0001:00007020       ??0?$vector@PAU_tagTabInfo@@V?$allocator@PAU_tagTabInfo@@@std@@@std@@QAE@XZ 00408020 f i MainWnd.obj
 0001:00007090       ??0IWkeCallback@@QAE@XZ    00408090 f i MainWnd.obj
 0001:000070c0       ??0_Container_base12@std@@QAE@XZ 004080c0 f i MainWnd.obj
 0001:000070f0       ??0_Container_proxy@std@@QAE@XZ 004080f0 f i MainWnd.obj
 0001:00007130       ??0_Iterator_base12@std@@QAE@ABU01@@Z 00408130 f i MainWnd.obj
 0001:00007180       ??0_Iterator_base12@std@@QAE@XZ 00408180 f i MainWnd.obj
 0001:000071c0       ??0tab_finder@@QAE@PAVCBrowserTab@@@Z 004081c0 f i MainWnd.obj
 0001:000071f0       ??0web_finder@@QAE@PAVCWkeWebkitUI@@@Z 004081f0 f i MainWnd.obj
 0001:00007220       ??1?$_Compressed_pair@V?$allocator@PAU_tagTabInfo@@@std@@V?$_Vector_val@U?$_Simple_types@PAU_tagTabInfo@@@std@@@2@$00@std@@QAE@XZ 00408220 f i MainWnd.obj
 0001:00007250       ??1?$_Vector_alloc@U?$_Vec_base_types@PAU_tagTabInfo@@V?$allocator@PAU_tagTabInfo@@@std@@@std@@@std@@QAE@XZ 00408250 f i MainWnd.obj
 0001:000072c0       ??1?$_Vector_const_iterator@V?$_Vector_val@U?$_Simple_types@PAU_tagTabInfo@@@std@@@std@@@std@@QAE@XZ 004082c0 f i MainWnd.obj
 0001:000072f0       ??1?$_Vector_iterator@V?$_Vector_val@U?$_Simple_types@PAU_tagTabInfo@@@std@@@std@@@std@@QAE@XZ 004082f0 f i MainWnd.obj
 0001:00007320       ??1?$_Vector_val@U?$_Simple_types@PAU_tagTabInfo@@@std@@@std@@QAE@XZ 00408320 f i MainWnd.obj
 0001:00007350       ??1?$vector@PAU_tagTabInfo@@V?$allocator@PAU_tagTabInfo@@@std@@@std@@QAE@XZ 00408350 f i MainWnd.obj
 0001:000073c0       ??1DUI_MSGMAP_ENTRY@DuiLib@@QAE@XZ 004083c0 f i MainWnd.obj
 0001:00007420       ??1_Container_base12@std@@QAE@XZ 00408420 f i MainWnd.obj
 0001:00007450       ??1_Iterator_base12@std@@QAE@XZ 00408450 f i MainWnd.obj
 0001:00007530       ??2@YAPAXIPAX@Z            00408530 f i MainWnd.obj
 0001:00007540       ??4_Iterator_base12@std@@QAEAAU01@ABU01@@Z 00408540 f i MainWnd.obj
 0001:00007650       ??8?$_Vector_const_iterator@V?$_Vector_val@U?$_Simple_types@PAU_tagTabInfo@@@std@@@std@@@std@@QBE_NABV01@@Z 00408650 f i MainWnd.obj
 0001:000076c0       ??9?$_Vector_const_iterator@V?$_Vector_val@U?$_Simple_types@PAU_tagTabInfo@@@std@@@std@@@std@@QBE_NABV01@@Z 004086c0 f i MainWnd.obj
 0001:00007720       ??D?$_Vector_const_iterator@V?$_Vector_val@U?$_Simple_types@PAU_tagTabInfo@@@std@@@std@@@std@@QBEABQAU_tagTabInfo@@XZ 00408720 f i MainWnd.obj
 0001:000077f0       ??D?$_Vector_iterator@V?$_Vector_val@U?$_Simple_types@PAU_tagTabInfo@@@std@@@std@@@std@@QBEAAPAU_tagTabInfo@@XZ 004087f0 f i MainWnd.obj
 0001:00007820       ??M?$_Vector_const_iterator@V?$_Vector_val@U?$_Simple_types@PAU_tagTabInfo@@@std@@@std@@@std@@QBE_NABV01@@Z 00408820 f i MainWnd.obj
 0001:00007890       ??Rtab_finder@@QAE_NAAPAU_tagTabInfo@@@Z 00408890 f i MainWnd.obj
 0001:000078f0       ??Rweb_finder@@QAE_NAAPAU_tagTabInfo@@@Z 004088f0 f i MainWnd.obj
 0001:00007942       ??_9CMainWnd@@$BCA@AE      00408942 f i MainWnd.obj
 0001:00007947       ??_9CMainWnd@@$BII@AE      00408947 f i MainWnd.obj
 0001:00007951       ??_9CMainWnd@@$BIM@AE      00408951 f i MainWnd.obj
 0001:0000795b       ??_9CMainWnd@@$BJA@AE      0040895b f i MainWnd.obj
 0001:00007965       ??_9CMainWnd@@$BJE@AE      00408965 f i MainWnd.obj
 0001:00007970       ??_GCBrowserTab@@UAEPAXI@Z 00408970 f i MainWnd.obj
 0001:00007970       ??_ECBrowserTab@@UAEPAXI@Z 00408970 f i MainWnd.obj
 0001:000079e0       ??_GCMainWnd@@UAEPAXI@Z    004089e0 f i MainWnd.obj
 0001:000079e0       ??_ECMainWnd@@UAEPAXI@Z    004089e0 f i MainWnd.obj
 0001:00007a40       ?OnJS2Native@IWkeCallback@@UAEPB_WPAVCWkeWebkitUI@@PB_W1PAX@Z 00408a40 f i MainWnd.obj
 0001:00007a60       ?OnWkeAlertBox@IWkeCallback@@UAEXPAVCWkeWebkitUI@@PB_W@Z 00408a60 f i MainWnd.obj
 0001:00007a80       ?OnWkeCreateView@IWkeCallback@@UAEPAVCWebView@wke@@PAVCWkeWebkitUI@@PBUwkeNewViewInfo@@@Z 00408a80 f i MainWnd.obj
 0001:00007aa0       ?OnWkeDocumentReady@IWkeCallback@@UAEXPAVCWkeWebkitUI@@PBUwkeDocumentReadyInfo@@@Z 00408aa0 f i MainWnd.obj
 0001:00007ac0       ?OnWkeLoadingFinish@IWkeCallback@@UAEXPAVCWkeWebkitUI@@QB_WW4wkeLoadingResult@@PB_W@Z 00408ac0 f i MainWnd.obj
 0001:00007ae0       ?OnWkeNavigation@IWkeCallback@@UAE_NPAVCWkeWebkitUI@@W4wkeNavigationType@@PB_W@Z 00408ae0 f i MainWnd.obj
 0001:00007b00       ?OnWkeTitleChanged@IWkeCallback@@UAEXPAVCWkeWebkitUI@@PB_W@Z 00408b00 f i MainWnd.obj
 0001:00007b20       ?OnWkeURLChanged@IWkeCallback@@UAEXPAVCWkeWebkitUI@@PB_W@Z 00408b20 f i MainWnd.obj
 0001:00007b40       ?_Adopt@_Iterator_base12@std@@QAEXPBU_Container_base12@2@@Z 00408b40 f i MainWnd.obj
 0001:00007cd0       ?_Alloc_proxy@?$_Vector_alloc@U?$_Vec_base_types@PAU_tagTabInfo@@V?$allocator@PAU_tagTabInfo@@@std@@@std@@@std@@QAEXXZ 00408cd0 f i MainWnd.obj
 0001:00007de0       ?_Allocate@std@@YAPAXII_N@Z 00408de0 f i MainWnd.obj
 0001:00007ff0       ?_Calculate_growth@?$vector@PAU_tagTabInfo@@V?$allocator@PAU_tagTabInfo@@@std@@@std@@ABEII@Z 00408ff0 f i MainWnd.obj
 0001:00008080       ?_Change_array@?$vector@PAU_tagTabInfo@@V?$allocator@PAU_tagTabInfo@@@std@@@std@@AAEXQAPAU_tagTabInfo@@II@Z 00409080 f i MainWnd.obj
 0001:00008160       ?_Clrcont@_Iterator_base12@std@@QAEXXZ 00409160 f i MainWnd.obj
 0001:00008190       ?_Compat@?$_Vector_const_iterator@V?$_Vector_val@U?$_Simple_types@PAU_tagTabInfo@@@std@@@std@@@std@@QBEXABV12@@Z 00409190 f i MainWnd.obj
 0001:00008230       ?_Deallocate@std@@YAXPAXII@Z 00409230 f i MainWnd.obj
 0001:00008360       ?_Destroy@?$vector@PAU_tagTabInfo@@V?$allocator@PAU_tagTabInfo@@@std@@@std@@AAEXPAPAU_tagTabInfo@@0@Z 00409360 f i MainWnd.obj
 0001:000083b0       ?_Free_proxy@?$_Vector_alloc@U?$_Vec_base_types@PAU_tagTabInfo@@V?$allocator@PAU_tagTabInfo@@@std@@@std@@@std@@QAEXXZ 004093b0 f i MainWnd.obj
 0001:000084a0       ?_Get_data@?$_Vector_alloc@U?$_Vec_base_types@PAU_tagTabInfo@@V?$allocator@PAU_tagTabInfo@@@std@@@std@@@std@@QAEAAV?$_Vector_val@U?$_Simple_types@PAU_tagTabInfo@@@std@@@2@XZ 004094a0 f i MainWnd.obj
 0001:000084d0       ?_Get_data@?$_Vector_alloc@U?$_Vec_base_types@PAU_tagTabInfo@@V?$allocator@PAU_tagTabInfo@@@std@@@std@@@std@@QBEABV?$_Vector_val@U?$_Simple_types@PAU_tagTabInfo@@@std@@@2@XZ 004094d0 f i MainWnd.obj
 0001:00008500       ?_Get_first@?$_Compressed_pair@V?$allocator@PAU_tagTabInfo@@@std@@V?$_Vector_val@U?$_Simple_types@PAU_tagTabInfo@@@std@@@2@$00@std@@QAEAAV?$allocator@PAU_tagTabInfo@@@2@XZ 00409500 f i MainWnd.obj
 0001:00008520       ?_Get_first@?$_Compressed_pair@V?$allocator@PAU_tagTabInfo@@@std@@V?$_Vector_val@U?$_Simple_types@PAU_tagTabInfo@@@std@@@2@$00@std@@QBEABV?$allocator@PAU_tagTabInfo@@@2@XZ 00409520 f i MainWnd.obj
 0001:00008540       ?_Get_second@?$_Compressed_pair@V?$allocator@PAU_tagTabInfo@@@std@@V?$_Vector_val@U?$_Simple_types@PAU_tagTabInfo@@@std@@@2@$00@std@@QAEAAV?$_Vector_val@U?$_Simple_types@PAU_tagTabInfo@@@std@@@2@XZ 00409540 f i MainWnd.obj
 0001:00008560       ?_Get_second@?$_Compressed_pair@V?$allocator@PAU_tagTabInfo@@@std@@V?$_Vector_val@U?$_Simple_types@PAU_tagTabInfo@@@std@@@2@$00@std@@QBEABV?$_Vector_val@U?$_Simple_types@PAU_tagTabInfo@@@std@@@2@XZ 00409560 f i MainWnd.obj
 0001:00008580       ?_Getal@?$_Vector_alloc@U?$_Vec_base_types@PAU_tagTabInfo@@V?$allocator@PAU_tagTabInfo@@@std@@@std@@@std@@QAEAAV?$allocator@PAU_tagTabInfo@@@2@XZ 00409580 f i MainWnd.obj
 0001:000085b0       ?_Getal@?$_Vector_alloc@U?$_Vec_base_types@PAU_tagTabInfo@@V?$allocator@PAU_tagTabInfo@@@std@@@std@@@std@@QBEABV?$allocator@PAU_tagTabInfo@@@2@XZ 004095b0 f i MainWnd.obj
 0001:000085e0       ?_Getcont@_Iterator_base12@std@@QBEPBU_Container_base12@2@XZ 004095e0 f i MainWnd.obj
 0001:00008630       ?_Getpfirst@?$_Vector_alloc@U?$_Vec_base_types@PAU_tagTabInfo@@V?$allocator@PAU_tagTabInfo@@@std@@@std@@@std@@QBEPAPAU_Iterator_base12@2@XZ 00409630 f i MainWnd.obj
 0001:00008670       ?_Getpfirst@_Container_base12@std@@QBEPAPAU_Iterator_base12@2@XZ 00409670 f i MainWnd.obj
 0001:000086c0       ?_Getpnext@_Iterator_base12@std@@QAEPAPAU12@XZ 004096c0 f i MainWnd.obj
 0001:000086e0       ?_Has_unused_capacity@?$vector@PAU_tagTabInfo@@V?$allocator@PAU_tagTabInfo@@@std@@@std@@ABE_NXZ 004096e0 f i MainWnd.obj
 0001:00008750       ?_Myend@?$_Vector_alloc@U?$_Vec_base_types@PAU_tagTabInfo@@V?$allocator@PAU_tagTabInfo@@@std@@@std@@@std@@QAEAAPAPAU_tagTabInfo@@XZ 00409750 f i MainWnd.obj
 0001:00008780       ?_Myend@?$_Vector_alloc@U?$_Vec_base_types@PAU_tagTabInfo@@V?$allocator@PAU_tagTabInfo@@@std@@@std@@@std@@QBEABQAPAU_tagTabInfo@@XZ 00409780 f i MainWnd.obj
 0001:000087b0       ?_Myfirst@?$_Vector_alloc@U?$_Vec_base_types@PAU_tagTabInfo@@V?$allocator@PAU_tagTabInfo@@@std@@@std@@@std@@QAEAAPAPAU_tagTabInfo@@XZ 004097b0 f i MainWnd.obj
 0001:000087e0       ?_Myfirst@?$_Vector_alloc@U?$_Vec_base_types@PAU_tagTabInfo@@V?$allocator@PAU_tagTabInfo@@@std@@@std@@@std@@QBEABQAPAU_tagTabInfo@@XZ 004097e0 f i MainWnd.obj
 0001:00008810       ?_Mylast@?$_Vector_alloc@U?$_Vec_base_types@PAU_tagTabInfo@@V?$allocator@PAU_tagTabInfo@@@std@@@std@@@std@@QAEAAPAPAU_tagTabInfo@@XZ 00409810 f i MainWnd.obj
 0001:00008840       ?_Mylast@?$_Vector_alloc@U?$_Vec_base_types@PAU_tagTabInfo@@V?$allocator@PAU_tagTabInfo@@@std@@@std@@@std@@QBEABQAPAU_tagTabInfo@@XZ 00409840 f i MainWnd.obj
 0001:00008870       ?_Myproxy@?$_Vector_alloc@U?$_Vec_base_types@PAU_tagTabInfo@@V?$allocator@PAU_tagTabInfo@@@std@@@std@@@std@@QAEAAPAU_Container_proxy@2@XZ 00409870 f i MainWnd.obj
 0001:000088a0       ?_Orphan_all@?$_Vector_alloc@U?$_Vec_base_types@PAU_tagTabInfo@@V?$allocator@PAU_tagTabInfo@@@std@@@std@@@std@@QAEXXZ 004098a0 f i MainWnd.obj
 0001:000088e0       ?_Orphan_all@_Container_base12@std@@QAEXXZ 004098e0 f i MainWnd.obj
 0001:00008a10       ?_Orphan_me@_Iterator_base12@std@@QAEXXZ 00409a10 f i MainWnd.obj
 0001:00008b30       ?_Orphan_range@?$vector@PAU_tagTabInfo@@V?$allocator@PAU_tagTabInfo@@@std@@@std@@ABEXPAPAU_tagTabInfo@@0@Z 00409b30 f i MainWnd.obj
 0001:00008c90       ?_Tidy@?$vector@PAU_tagTabInfo@@V?$allocator@PAU_tagTabInfo@@@std@@@std@@AAEXXZ 00409c90 f i MainWnd.obj
 0001:00008d60       ?_Umove_if_noexcept1@?$vector@PAU_tagTabInfo@@V?$allocator@PAU_tagTabInfo@@@std@@@std@@AAEXPAPAU_tagTabInfo@@00U?$integral_constant@_N$00@2@@Z 00409d60 f i MainWnd.obj
 0001:00008db0       ?_Umove_if_noexcept@?$vector@PAU_tagTabInfo@@V?$allocator@PAU_tagTabInfo@@@std@@@std@@AAEXPAPAU_tagTabInfo@@00@Z 00409db0 f i MainWnd.obj
 0001:00008e10       ?_Xlength@?$vector@PAU_tagTabInfo@@V?$allocator@PAU_tagTabInfo@@@std@@@std@@CAXXZ 00409e10 f i MainWnd.obj
 0001:00008e30       ?__empty_global_delete@@YAXPAX@Z 00409e30 f i MainWnd.obj
 0001:00008e40       ?__empty_global_delete@@YAXPAXI@Z 00409e40 f i MainWnd.obj
 0001:00008e50       ?allocate@?$allocator@PAU_tagTabInfo@@@std@@QAEPAPAU_tagTabInfo@@I@Z 00409e50 f i MainWnd.obj
 0001:00008e90       ?allocate@?$allocator@U_Container_proxy@std@@@std@@QAEPAU_Container_proxy@2@I@Z 00409e90 f i MainWnd.obj
 0001:00008ed0       ?begin@?$vector@PAU_tagTabInfo@@V?$allocator@PAU_tagTabInfo@@@std@@@std@@QAE?AV?$_Vector_iterator@V?$_Vector_val@U?$_Simple_types@PAU_tagTabInfo@@@std@@@std@@@2@XZ 00409ed0 f i MainWnd.obj
 0001:00008f60       ?capacity@?$vector@PAU_tagTabInfo@@V?$allocator@PAU_tagTabInfo@@@std@@@std@@QBEIXZ 00409f60 f i MainWnd.obj
 0001:00008fb0       ?deallocate@?$_Default_allocator_traits@V?$allocator@U_Container_proxy@std@@@std@@@std@@SAXAAV?$allocator@U_Container_proxy@std@@@2@QAU_Container_proxy@2@I@Z 00409fb0 f i MainWnd.obj
 0001:00008fe0       ?deallocate@?$allocator@PAU_tagTabInfo@@@std@@QAEXQAPAU_tagTabInfo@@I@Z 00409fe0 f i MainWnd.obj
 0001:00009020       ?end@?$vector@PAU_tagTabInfo@@V?$allocator@PAU_tagTabInfo@@@std@@@std@@QAE?AV?$_Vector_iterator@V?$_Vector_val@U?$_Simple_types@PAU_tagTabInfo@@@std@@@std@@@2@XZ 0040a020 f i MainWnd.obj
 0001:000090b0       ?erase@?$vector@PAU_tagTabInfo@@V?$allocator@PAU_tagTabInfo@@@std@@@std@@QAE?AV?$_Vector_iterator@V?$_Vector_val@U?$_Simple_types@PAU_tagTabInfo@@@std@@@std@@@2@V?$_Vector_const_iterator@V?$_Vector_val@U?$_Simple_types@PAU_tagTabInfo@@@std@@@std@@@2@@Z 0040a0b0 f i MainWnd.obj
 0001:000092b0       ?max@?$numeric_limits@H@std@@SAHXZ 0040a2b0 f i MainWnd.obj
 0001:000092c0       ?max_size@?$_Default_allocator_traits@V?$allocator@PAU_tagTabInfo@@@std@@@std@@SAIABV?$allocator@PAU_tagTabInfo@@@2@@Z 0040a2c0 f i MainWnd.obj
 0001:000092d0       ?max_size@?$vector@PAU_tagTabInfo@@V?$allocator@PAU_tagTabInfo@@@std@@@std@@QBEIXZ 0040a2d0 f i MainWnd.obj
 0001:00009340       ?push_back@?$vector@PAU_tagTabInfo@@V?$allocator@PAU_tagTabInfo@@@std@@@std@@QAEXABQAU_tagTabInfo@@@Z 0040a340 f i MainWnd.obj
 0001:00009380       ?size@?$vector@PAU_tagTabInfo@@V?$allocator@PAU_tagTabInfo@@@std@@@std@@QBEIXZ 0040a380 f i MainWnd.obj
 0001:000093d0       ??0CMsgWnd@@QAE@XZ         0040a3d0 f   MsgWnd.obj
 0001:00009440       ??1CMsgWnd@@UAE@XZ         0040a440 f   MsgWnd.obj
 0001:000094b0       ?SetMsg@CMsgWnd@@QAEXPB_W@Z 0040a4b0 f   MsgWnd.obj
 0001:00009530       ?SetTitle@CMsgWnd@@QAEXPB_W@Z 0040a530 f   MsgWnd.obj
 0001:000095b0       ?OnFinalMessage@CMsgWnd@@UAEXPAUHWND__@@@Z 0040a5b0 f   MsgWnd.obj
 0001:00009630       ?GetSkinFile@CMsgWnd@@UAE?AVCDuiString@DuiLib@@XZ 0040a630 f   MsgWnd.obj
 0001:00009690       ?GetWindowClassName@CMsgWnd@@UBEPB_WXZ 0040a690 f   MsgWnd.obj
 0001:000096b0       ?Notify@CMsgWnd@@UAEXAAUtagTNotifyUI@DuiLib@@@Z 0040a6b0 f   MsgWnd.obj
 0001:000096f0       ?InitWindow@CMsgWnd@@UAEXXZ 0040a6f0 f   MsgWnd.obj
 0001:00009740       ?_GetBaseMessageMap@CMsgWnd@@KGPBUDUI_MSGMAP@DuiLib@@XZ 0040a740 f   MsgWnd.obj
 0001:00009750       ?GetMessageMap@CMsgWnd@@MBEPBUDUI_MSGMAP@DuiLib@@XZ 0040a750 f   MsgWnd.obj
 0001:00009770       ?OnClick@CMsgWnd@@MAEXAAUtagTNotifyUI@DuiLib@@@Z 0040a770 f   MsgWnd.obj
 0001:00009a40       ?OnSysCommand@CMsgWnd@@MAEJIIJAAH@Z 0040aa40 f   MsgWnd.obj
 0001:00009a60       ?HandleCustomMessage@CMsgWnd@@MAEJIIJAAH@Z 0040aa60 f   MsgWnd.obj
 0001:00009c2a       ??_9CMsgWnd@@$BCA@AE       0040ac2a f i MsgWnd.obj
 0001:00009c30       ??_ECMsgWnd@@UAEPAXI@Z     0040ac30 f i MsgWnd.obj
 0001:00009c30       ??_GCMsgWnd@@UAEPAXI@Z     0040ac30 f i MsgWnd.obj
 0001:00009c90       ??_H@YGXPAXIIP6EPAX0@Z@Z   0040ac90 f i StdAfx.obj
 0001:00009d20       _WinMain@16                0040ad20 f   WkeDemo.obj
 0001:00009e90       ?InitResource@@YAXXZ       0040ae90 f   WkeDemo.obj
 0001:0000a450       ?ANSI2T@@YA?AV?$basic_string@_WU?$char_traits@_W@std@@V?$allocator@_W@2@@std@@PBD@Z 0040b450 f   WkeWebkit.obj
 0001:0000a490       ?T2ANSI@@YA?AV?$basic_string@DU?$char_traits@D@std@@V?$allocator@D@2@@std@@PB_W@Z 0040b490 f   WkeWebkit.obj
 0001:0000a4d0       ??0CWkeWebkitUI@@QAE@XZ    0040b4d0 f   WkeWebkit.obj
 0001:0000a7d0       ??1CWkeWebkitUI@@UAE@XZ    0040b7d0 f   WkeWebkit.obj
 0001:0000a940       ?GetClass@CWkeWebkitUI@@MBEPB_WXZ 0040b940 f   WkeWebkit.obj
 0001:0000a960       ?GetInterface@CWkeWebkitUI@@MAEPAXPB_W@Z 0040b960 f   WkeWebkit.obj
 0001:0000a9c0       ?DoInit@CWkeWebkitUI@@MAEXXZ 0040b9c0 f   WkeWebkit.obj
 0001:0000ac30       ?SetPos@CWkeWebkitUI@@MAEXUtagRECT@@_N@Z 0040bc30 f   WkeWebkit.obj
 0001:0000ace0       ?DoPaint@CWkeWebkitUI@@MAEXPAUHDC__@@ABUtagRECT@@@Z 0040bce0 f   WkeWebkit.obj
 0001:0000af90       ?DoEvent@CWkeWebkitUI@@MAEXAAUtagTEventUI@DuiLib@@@Z 0040bf90 f   WkeWebkit.obj
 0001:0000b400       ?InitializeWebkit@CWkeWebkitUI@@SAXXZ 0040c400 f   WkeWebkit.obj
 0001:0000b440       ?UninitializeWebkit@CWkeWebkitUI@@SAXXZ 0040c440 f   WkeWebkit.obj
 0001:0000b460       ?ExecuteJS@CWkeWebkitUI@@QAEXPB_W@Z 0040c460 f   WkeWebkit.obj
 0001:0000b4f0       ?GetWebView@CWkeWebkitUI@@QAEPAVCWebView@wke@@XZ 0040c4f0 f   WkeWebkit.obj
 0001:0000b510       ?Navigate@CWkeWebkitUI@@QAEXPB_W@Z 0040c510 f   WkeWebkit.obj
 0001:0000b550       ?LoadHtml@CWkeWebkitUI@@QAEXPB_W@Z 0040c550 f   WkeWebkit.obj
 0001:0000b590       ?Close@CWkeWebkitUI@@QAEXXZ 0040c590 f   WkeWebkit.obj
 0001:0000b5d0       ?Back@CWkeWebkitUI@@QAEXXZ 0040c5d0 f   WkeWebkit.obj
 0001:0000b630       ?Forward@CWkeWebkitUI@@QAEXXZ 0040c630 f   WkeWebkit.obj
 0001:0000b690       ?Stop@CWkeWebkitUI@@QAEXXZ 0040c690 f   WkeWebkit.obj
 0001:0000b6d0       ?Reload@CWkeWebkitUI@@QAEXXZ 0040c6d0 f   WkeWebkit.obj
 0001:0000b710       ?SetHomePage@CWkeWebkitUI@@QAEXPB_W@Z 0040c710 f   WkeWebkit.obj
 0001:0000b770       ?NavigateHomePage@CWkeWebkitUI@@QAEXXZ 0040c770 f   WkeWebkit.obj
 0001:0000b7a0       ?SetPageFocus@CWkeWebkitUI@@QAEXXZ 0040c7a0 f   WkeWebkit.obj
 0001:0000b7e0       ?SetListenObj@CWkeWebkitUI@@QAEXPAX@Z 0040c7e0 f   WkeWebkit.obj
 0001:0000b800       ?SetWkeCallback@CWkeWebkitUI@@QAEXPAVIWkeCallback@@@Z 0040c800 f   WkeWebkit.obj
 0001:0000b820       ?SetErrorInfoPageUrl@CWkeWebkitUI@@QAEXPB_W@Z 0040c820 f   WkeWebkit.obj
 0001:0000b860       ?OnWkeTitleChanged@CWkeWebkitUI@@CAXPAVCWebView@wke@@PAXPAVCString@3@@Z 0040c860 f   WkeWebkit.obj
 0001:0000b8d0       ?OnWkeURLChanged@CWkeWebkitUI@@CAXPAVCWebView@wke@@PAXPAVCString@3@@Z 0040c8d0 f   WkeWebkit.obj
 0001:0000b940       ?OnWkeAlertBox@CWkeWebkitUI@@CAXPAVCWebView@wke@@PAXPAVCString@3@@Z 0040c940 f   WkeWebkit.obj
 0001:0000b9b0       ?OnWkeNavigation@CWkeWebkitUI@@CA_NPAVCWebView@wke@@PAXW4wkeNavigationType@@PAVCString@3@@Z 0040c9b0 f   WkeWebkit.obj
 0001:0000ba70       ?OnWkeCreateView@CWkeWebkitUI@@CAPAVCWebView@wke@@PAV23@PAXPBUwkeNewViewInfo@@@Z 0040ca70 f   WkeWebkit.obj
 0001:0000bae0       ?OnWkeDocumentReady@CWkeWebkitUI@@CAXPAVCWebView@wke@@PAXPBUwkeDocumentReadyInfo@@@Z 0040cae0 f   WkeWebkit.obj
 0001:0000bb40       ?OnWkeLoadingFinish@CWkeWebkitUI@@CAXPAVCWebView@wke@@PAXQAVCString@3@W4wkeLoadingResult@@2@Z 0040cb40 f   WkeWebkit.obj
 0001:0000bbe0       ?JsToNative@CWkeWebkitUI@@CI_JPAX@Z 0040cbe0 f   WkeWebkit.obj
 0001:0000bfe0       ?Unicode2ANSI@@YA?AV?$basic_string@DU?$char_traits@D@std@@V?$allocator@D@2@@std@@PB_W@Z 0040cfe0 f   WkeWebkit.obj
 0001:0000c150       ?Unicode2UTF8@@YA?AV?$basic_string@DU?$char_traits@D@std@@V?$allocator@D@2@@std@@PB_W@Z 0040d150 f   WkeWebkit.obj
 0001:0000c2d0       ?ANSI2Unicode@@YA?AV?$basic_string@_WU?$char_traits@_W@std@@V?$allocator@_W@2@@std@@PBD@Z 0040d2d0 f   WkeWebkit.obj
 0001:0000c450       ?T2UTF8@@YA?AV?$basic_string@DU?$char_traits@D@std@@V?$allocator@D@2@@std@@PB_W@Z 0040d450 f   WkeWebkit.obj
 0001:0000c490       ?wkeGetStringT@@YAPB_WPAVCString@wke@@@Z 0040d490 f   WkeWebkit.obj
 0001:0000ccd0       ??$?0$$V@?$_Compressed_pair@V?$allocator@D@std@@V?$_String_val@U?$_Simple_types@D@std@@@2@$00@std@@QAE@U_Zero_then_variadic_args_t@1@@Z 0040dcd0 f i WkeWebkit.obj
 0001:0000cd10       ??$?0$$V@?$_Compressed_pair@V?$allocator@U?$_Tree_node@U?$pair@QAVCWebView@wke@@PAVCWkeWebkitUI@@@std@@PAX@std@@@std@@V?$_Tree_val@U?$_Tree_simple_types@U?$pair@QAVCWebView@wke@@PAVCWkeWebkitUI@@@std@@@std@@@2@$00@std@@QAE@U_Zero_then_variadic_args_t@1@@Z 0040dd10 f i WkeWebkit.obj
 0001:0000cd50       ??$?0$$V@?$_Compressed_pair@V?$allocator@_W@std@@V?$_String_val@U?$_Simple_types@_W@std@@@2@$00@std@@QAE@U_Zero_then_variadic_args_t@1@@Z 0040dd50 f i WkeWebkit.obj
 0001:0000cd90       ??$?0AAV?$_Tree_iterator@V?$_Tree_val@U?$_Tree_simple_types@U?$pair@QAVCWebView@wke@@PAVCWkeWebkitUI@@@std@@@std@@@std@@@std@@_NX$0A@@?$pair@V?$_Tree_iterator@V?$_Tree_val@U?$_Tree_simple_types@U?$pair@QAVCWebView@wke@@PAVCWkeWebkitUI@@@std@@@std@@@std@@@std@@_N@std@@QAE@AAV?$_Tree_iterator@V?$_Tree_val@U?$_Tree_simple_types@U?$pair@QAVCWebView@wke@@PAVCWkeWebkitUI@@@std@@@std@@@std@@@1@$$QA_N@Z 0040dd90 f i WkeWebkit.obj
 0001:0000cdf0       ??$?0ABQAVCWebView@wke@@$$Z$$V@?$pair@QAVCWebView@wke@@PAVCWkeWebkitUI@@@std@@QAE@Upiecewise_construct_t@1@V?$tuple@ABQAVCWebView@wke@@@1@V?$tuple@$$V@1@@Z 0040ddf0 f i WkeWebkit.obj
 0001:0000ce50       ??$?0ABQAVCWebView@wke@@$0A@@?$tuple@ABQAVCWebView@wke@@@std@@QAE@ABQAVCWebView@wke@@@Z 0040de50 f i WkeWebkit.obj
 0001:0000cea0       ??$?0ABQAVCWebView@wke@@@?$_Tuple_val@ABQAVCWebView@wke@@@std@@QAE@ABQAVCWebView@wke@@@Z 0040dea0 f i WkeWebkit.obj
 0001:0000cee0       ??$?0ABU?$less@PAVCWebView@wke@@@std@@U_Zero_then_variadic_args_t@1@@?$_Compressed_pair@U?$less@PAVCWebView@wke@@@std@@V?$_Compressed_pair@V?$allocator@U?$_Tree_node@U?$pair@QAVCWebView@wke@@PAVCWkeWebkitUI@@@std@@PAX@std@@@std@@V?$_Tree_val@U?$_Tree_simple_types@U?$pair@QAVCWebView@wke@@PAVCWkeWebkitUI@@@std@@@std@@@2@$00@2@$00@std@@QAE@U_One_then_variadic_args_t@1@ABU?$less@PAVCWebView@wke@@@1@$$QAU_Zero_then_variadic_args_t@1@@Z 0040dee0 f i WkeWebkit.obj
 0001:0000cf40       ??$?0D@?$allocator@U_Container_proxy@std@@@std@@QAE@ABV?$allocator@D@1@@Z 0040df40 f i WkeWebkit.obj
 0001:0000cf60       ??$?0U?$_Tree_node@U?$pair@QAVCWebView@wke@@PAVCWkeWebkitUI@@@std@@PAX@std@@@?$allocator@U_Container_proxy@std@@@std@@QAE@ABV?$allocator@U?$_Tree_node@U?$pair@QAVCWebView@wke@@PAVCWkeWebkitUI@@@std@@PAX@std@@@1@@Z 0040df60 f i WkeWebkit.obj
 0001:0000cf80       ??$?0U_Exact_args_t@std@@$0A@@?$tuple@$$V@std@@QAE@U_Exact_args_t@1@@Z 0040df80 f i WkeWebkit.obj
 0001:0000cfa0       ??$?0U_Exact_args_t@std@@ABQAVCWebView@wke@@$$V$0A@@?$tuple@ABQAVCWebView@wke@@@std@@QAE@U_Exact_args_t@1@ABQAVCWebView@wke@@@Z 0040dfa0 f i WkeWebkit.obj
 0001:0000d010       ??$?0V?$_Tree_iterator@V?$_Tree_val@U?$_Tree_simple_types@U?$pair@QAVCWebView@wke@@PAVCWkeWebkitUI@@@std@@@std@@@std@@@std@@_NX$0A@@?$pair@V?$_Tree_iterator@V?$_Tree_val@U?$_Tree_simple_types@U?$pair@QAVCWebView@wke@@PAVCWkeWebkitUI@@@std@@@std@@@std@@@std@@_N@std@@QAE@$$QAV?$_Tree_iterator@V?$_Tree_val@U?$_Tree_simple_types@U?$pair@QAVCWebView@wke@@PAVCWkeWebkitUI@@@std@@@std@@@std@@@1@$$QA_N@Z 0040e010 f i WkeWebkit.obj
 0001:0000d070       ??$?0V?$allocator@D@std@@$$V@?$_Compressed_pair@V?$allocator@D@std@@V?$_String_val@U?$_Simple_types@D@std@@@2@$00@std@@QAE@U_One_then_variadic_args_t@1@$$QAV?$allocator@D@1@@Z 0040e070 f i WkeWebkit.obj
 0001:0000d0c0       ??$?0V?$allocator@D@std@@X@?$_String_alloc@U?$_String_base_types@DV?$allocator@D@std@@@std@@@std@@QAE@$$QAV?$allocator@D@1@@Z 0040e0c0 f i WkeWebkit.obj
 0001:0000d170       ??$?0V?$allocator@_W@std@@$$V@?$_Compressed_pair@V?$allocator@_W@std@@V?$_String_val@U?$_Simple_types@_W@std@@@2@$00@std@@QAE@U_One_then_variadic_args_t@1@$$QAV?$allocator@_W@1@@Z 0040e170 f i WkeWebkit.obj
 0001:0000d1c0       ??$?0V?$allocator@_W@std@@X@?$_String_alloc@U?$_String_base_types@_WV?$allocator@_W@std@@@std@@@std@@QAE@$$QAV?$allocator@_W@1@@Z 0040e1c0 f i WkeWebkit.obj
 0001:0000d270       ??$?0V?$tuple@ABQAVCWebView@wke@@@std@@V?$tuple@$$V@1@$0A@$$Z$S@?$pair@QAVCWebView@wke@@PAVCWkeWebkitUI@@@std@@QAE@AAV?$tuple@ABQAVCWebView@wke@@@1@AAV?$tuple@$$V@1@U?$integer_sequence@I$0A@@1@U?$integer_sequence@I$S@1@@Z 0040e270 f i WkeWebkit.obj
 0001:0000d2d0       ??$?0_W@?$allocator@U_Container_proxy@std@@@std@@QAE@ABV?$allocator@_W@1@@Z 0040e2d0 f i WkeWebkit.obj
 0001:0000d2f0       ??$_Buynode@ABUpiecewise_construct_t@std@@V?$tuple@ABQAVCWebView@wke@@@2@V?$tuple@$$V@2@@?$_Tree_comp_alloc@V?$_Tmap_traits@PAVCWebView@wke@@PAVCWkeWebkitUI@@U?$less@PAVCWebView@wke@@@std@@V?$allocator@U?$pair@QAVCWebView@wke@@PAVCWkeWebkitUI@@@std@@@5@$0A@@std@@@std@@QAEPAU?$_Tree_node@U?$pair@QAVCWebView@wke@@PAVCWkeWebkitUI@@@std@@PAX@1@ABUpiecewise_construct_t@1@$$QAV?$tuple@ABQAVCWebView@wke@@@1@$$QAV?$tuple@$$V@1@@Z 0040e2f0 f i WkeWebkit.obj
 0001:0000d420       ??$_Buynode_if_nil@AAU?$pair@QAVCWebView@wke@@PAVCWkeWebkitUI@@@std@@@?$_Tree@V?$_Tmap_traits@PAVCWebView@wke@@PAVCWkeWebkitUI@@U?$less@PAVCWebView@wke@@@std@@V?$allocator@U?$pair@QAVCWebView@wke@@PAVCWkeWebkitUI@@@std@@@5@$0A@@std@@@std@@IAEPAU?$_Tree_node@U?$pair@QAVCWebView@wke@@PAVCWkeWebkitUI@@@std@@PAX@1@PAU21@AAU?$pair@QAVCWebView@wke@@PAVCWkeWebkitUI@@@1@@Z 0040e420 f i WkeWebkit.obj
 0001:0000d440       ??$_Convert_size@I@std@@YAII@Z 0040e440 f i WkeWebkit.obj
 0001:0000d450       ??$_Debug_lt_pred@AAU?$less@PAVCWebView@wke@@@std@@ABQAVCWebView@wke@@ABQAV34@@std@@YA_NAAU?$less@PAVCWebView@wke@@@0@ABQAVCWebView@wke@@1PB_WI@Z 0040e450 f i WkeWebkit.obj
 0001:0000d520       ??$_Debug_lt_pred@ABU?$less@PAVCWebView@wke@@@std@@ABQAVCWebView@wke@@ABQAV34@@std@@YA_NABU?$less@PAVCWebView@wke@@@0@ABQAVCWebView@wke@@1PB_WI@Z 0040e520 f i WkeWebkit.obj
 0001:0000d5f0       ??$_Insert_at@AAU?$pair@QAVCWebView@wke@@PAVCWkeWebkitUI@@@std@@PAU?$_Tree_node@U?$pair@QAVCWebView@wke@@PAVCWkeWebkitUI@@@std@@PAX@2@@?$_Tree@V?$_Tmap_traits@PAVCWebView@wke@@PAVCWkeWebkitUI@@U?$less@PAVCWebView@wke@@@std@@V?$allocator@U?$pair@QAVCWebView@wke@@PAVCWkeWebkitUI@@@std@@@5@$0A@@std@@@std@@IAE?AV?$_Tree_iterator@V?$_Tree_val@U?$_Tree_simple_types@U?$pair@QAVCWebView@wke@@PAVCWkeWebkitUI@@@std@@@std@@@std@@@1@_NPAU?$_Tree_node@U?$pair@QAVCWebView@wke@@PAVCWkeWebkitUI@@@std@@PAX@1@AAU?$pair@QAVCWebView@wke@@PAVCWkeWebkitUI@@@1@1@Z 0040e5f0 f i WkeWebkit.obj
 0001:0000d960       ??$_Insert_hint@AAU?$pair@QAVCWebView@wke@@PAVCWkeWebkitUI@@@std@@PAU?$_Tree_node@U?$pair@QAVCWebView@wke@@PAVCWkeWebkitUI@@@std@@PAX@2@@?$_Tree@V?$_Tmap_traits@PAVCWebView@wke@@PAVCWkeWebkitUI@@U?$less@PAVCWebView@wke@@@std@@V?$allocator@U?$pair@QAVCWebView@wke@@PAVCWkeWebkitUI@@@std@@@5@$0A@@std@@@std@@IAE?AV?$_Tree_iterator@V?$_Tree_val@U?$_Tree_simple_types@U?$pair@QAVCWebView@wke@@PAVCWkeWebkitUI@@@std@@@std@@@std@@@1@V?$_Tree_const_iterator@V?$_Tree_val@U?$_Tree_simple_types@U?$pair@QAVCWebView@wke@@PAVCWkeWebkitUI@@@std@@@std@@@std@@@1@AAU?$pair@QAVCWebView@wke@@PAVCWkeWebkitUI@@@1@PAU?$_Tree_node@U?$pair@QAVCWebView@wke@@PAVCWkeWebkitUI@@@std@@PAX@1@@Z 0040e960 f i WkeWebkit.obj
 0001:0000ed70       ??$_Insert_nohint@AAU?$pair@QAVCWebView@wke@@PAVCWkeWebkitUI@@@std@@PAU?$_Tree_node@U?$pair@QAVCWebView@wke@@PAVCWkeWebkitUI@@@std@@PAX@2@@?$_Tree@V?$_Tmap_traits@PAVCWebView@wke@@PAVCWkeWebkitUI@@U?$less@PAVCWebView@wke@@@std@@V?$allocator@U?$pair@QAVCWebView@wke@@PAVCWkeWebkitUI@@@std@@@5@$0A@@std@@@std@@IAE?AU?$pair@V?$_Tree_iterator@V?$_Tree_val@U?$_Tree_simple_types@U?$pair@QAVCWebView@wke@@PAVCWkeWebkitUI@@@std@@@std@@@std@@@std@@_N@1@_NAAU?$pair@QAVCWebView@wke@@PAVCWkeWebkitUI@@@1@PAU?$_Tree_node@U?$pair@QAVCWebView@wke@@PAVCWkeWebkitUI@@@std@@PAX@1@@Z 0040fd70 f i WkeWebkit.obj
 0001:0000f330       ??$_Kfn@QAVCWebView@wke@@PAVCWkeWebkitUI@@@?$_Tmap_traits@PAVCWebView@wke@@PAVCWkeWebkitUI@@U?$less@PAVCWebView@wke@@@std@@V?$allocator@U?$pair@QAVCWebView@wke@@PAVCWkeWebkitUI@@@std@@@5@$0A@@std@@SAABQAVCWebView@wke@@ABU?$pair@QAVCWebView@wke@@PAVCWkeWebkitUI@@@1@@Z 00410330 f i WkeWebkit.obj
 0001:0000f340       ??$_Lbound@PAVCWebView@wke@@@?$_Tree@V?$_Tmap_traits@PAVCWebView@wke@@PAVCWkeWebkitUI@@U?$less@PAVCWebView@wke@@@std@@V?$allocator@U?$pair@QAVCWebView@wke@@PAVCWkeWebkitUI@@@std@@@5@$0A@@std@@@std@@IBEPAU?$_Tree_node@U?$pair@QAVCWebView@wke@@PAVCWkeWebkitUI@@@std@@PAX@1@ABQAVCWebView@wke@@@Z 00410340 f i WkeWebkit.obj
 0001:0000f400       ??$_Max_value@I@std@@YAABIABI0@Z 00410400 f i WkeWebkit.obj
 0001:0000f770       ??$_Try_emplace@ABQAVCWebView@wke@@$$V@?$map@PAVCWebView@wke@@PAVCWkeWebkitUI@@U?$less@PAVCWebView@wke@@@std@@V?$allocator@U?$pair@QAVCWebView@wke@@PAVCWkeWebkitUI@@@std@@@5@@std@@QAE?AU?$pair@V?$_Tree_iterator@V?$_Tree_val@U?$_Tree_simple_types@U?$pair@QAVCWebView@wke@@PAVCWkeWebkitUI@@@std@@@std@@@std@@@std@@_N@1@ABQAVCWebView@wke@@@Z 00410770 f i WkeWebkit.obj
 0001:0000fa20       ??$_Unfancy@D@std@@YAPADPAD@Z 00410a20 f i WkeWebkit.obj
 0001:0000fa30       ??$_Unfancy@_W@std@@YAPA_WPA_W@Z 00410a30 f i WkeWebkit.obj
 0001:0000fa40       ??$addressof@$$CBU?$pair@QAVCWebView@wke@@PAVCWkeWebkitUI@@@std@@@std@@YAPBU?$pair@QAVCWebView@wke@@PAVCWkeWebkitUI@@@0@ABU10@@Z 00410a40 f i WkeWebkit.obj
 0001:0000fa50       ??$addressof@PAD@std@@YAPAPADAAPAD@Z 00410a50 f i WkeWebkit.obj
 0001:0000fa60       ??$addressof@PAU?$_Tree_node@U?$pair@QAVCWebView@wke@@PAVCWkeWebkitUI@@@std@@PAX@std@@@std@@YAPAPAU?$_Tree_node@U?$pair@QAVCWebView@wke@@PAVCWkeWebkitUI@@@std@@PAX@0@AAPAU10@@Z 00410a60 f i WkeWebkit.obj
 0001:0000fa70       ??$addressof@PA_W@std@@YAPAPA_WAAPA_W@Z 00410a70 f i WkeWebkit.obj
 0001:0000fa80       ??$addressof@U?$pair@QAVCWebView@wke@@PAVCWkeWebkitUI@@@std@@@std@@YAPAU?$pair@QAVCWebView@wke@@PAVCWkeWebkitUI@@@0@AAU10@@Z 00410a80 f i WkeWebkit.obj
 0001:0000fa90       ??$addressof@V?$_String_val@U?$_Simple_types@D@std@@@std@@@std@@YAPAV?$_String_val@U?$_Simple_types@D@std@@@0@AAV10@@Z 00410a90 f i WkeWebkit.obj
 0001:0000faa0       ??$addressof@V?$_String_val@U?$_Simple_types@_W@std@@@std@@@std@@YAPAV?$_String_val@U?$_Simple_types@_W@std@@@0@AAV10@@Z 00410aa0 f i WkeWebkit.obj
 0001:0000fab0       ??$addressof@V?$_Tree_val@U?$_Tree_simple_types@U?$pair@QAVCWebView@wke@@PAVCWkeWebkitUI@@@std@@@std@@@std@@@std@@YAPAV?$_Tree_val@U?$_Tree_simple_types@U?$pair@QAVCWebView@wke@@PAVCWkeWebkitUI@@@std@@@std@@@0@AAV10@@Z 00410ab0 f i WkeWebkit.obj
 0001:0000fac0       ??$construct@PADABQAD@?$_Default_allocator_traits@V?$allocator@D@std@@@std@@SAXAAV?$allocator@D@1@QAPADABQAD@Z 00410ac0 f i WkeWebkit.obj
 0001:0000fb10       ??$construct@PAU?$_Tree_node@U?$pair@QAVCWebView@wke@@PAVCWkeWebkitUI@@@std@@PAX@std@@AAPAU12@@?$_Default_allocator_traits@V?$allocator@U?$_Tree_node@U?$pair@QAVCWebView@wke@@PAVCWkeWebkitUI@@@std@@PAX@std@@@std@@@std@@SAXAAV?$allocator@U?$_Tree_node@U?$pair@QAVCWebView@wke@@PAVCWkeWebkitUI@@@std@@PAX@std@@@1@QAPAU?$_Tree_node@U?$pair@QAVCWebView@wke@@PAVCWkeWebkitUI@@@std@@PAX@1@AAPAU31@@Z 00410b10 f i WkeWebkit.obj
 0001:0000fb60       ??$construct@PA_WABQA_W@?$_Default_allocator_traits@V?$allocator@_W@std@@@std@@SAXAAV?$allocator@_W@1@QAPA_WABQA_W@Z 00410b60 f i WkeWebkit.obj
 0001:0000fbb0       ??$construct@U?$pair@QAVCWebView@wke@@PAVCWkeWebkitUI@@@std@@ABUpiecewise_construct_t@2@V?$tuple@ABQAVCWebView@wke@@@2@V?$tuple@$$V@2@@?$_Default_allocator_traits@V?$allocator@U?$_Tree_node@U?$pair@QAVCWebView@wke@@PAVCWkeWebkitUI@@@std@@PAX@std@@@std@@@std@@SAXAAV?$allocator@U?$_Tree_node@U?$pair@QAVCWebView@wke@@PAVCWkeWebkitUI@@@std@@PAX@std@@@1@QAU?$pair@QAVCWebView@wke@@PAVCWkeWebkitUI@@@1@ABUpiecewise_construct_t@1@$$QAV?$tuple@ABQAVCWebView@wke@@@1@$$QAV?$tuple@$$V@1@@Z 00410bb0 f i WkeWebkit.obj
 0001:0000fcb0       ??$destroy@PAD@?$_Default_allocator_traits@V?$allocator@D@std@@@std@@SAXAAV?$allocator@D@1@QAPAD@Z 00410cb0 f i WkeWebkit.obj
 0001:0000fcc0       ??$destroy@PAU?$_Tree_node@U?$pair@QAVCWebView@wke@@PAVCWkeWebkitUI@@@std@@PAX@std@@@?$_Default_allocator_traits@V?$allocator@U?$_Tree_node@U?$pair@QAVCWebView@wke@@PAVCWkeWebkitUI@@@std@@PAX@std@@@std@@@std@@SAXAAV?$allocator@U?$_Tree_node@U?$pair@QAVCWebView@wke@@PAVCWkeWebkitUI@@@std@@PAX@std@@@1@QAPAU?$_Tree_node@U?$pair@QAVCWebView@wke@@PAVCWkeWebkitUI@@@std@@PAX@1@@Z 00410cc0 f i WkeWebkit.obj
 0001:0000fcd0       ??$destroy@PA_W@?$_Default_allocator_traits@V?$allocator@_W@std@@@std@@SAXAAV?$allocator@_W@1@QAPA_W@Z 00410cd0 f i WkeWebkit.obj
 0001:0000fce0       ??$destroy@U?$pair@QAVCWebView@wke@@PAVCWkeWebkitUI@@@std@@@?$_Default_allocator_traits@V?$allocator@U?$_Tree_node@U?$pair@QAVCWebView@wke@@PAVCWkeWebkitUI@@@std@@PAX@std@@@std@@@std@@SAXAAV?$allocator@U?$_Tree_node@U?$pair@QAVCWebView@wke@@PAVCWkeWebkitUI@@@std@@PAX@std@@@1@QAU?$pair@QAVCWebView@wke@@PAVCWkeWebkitUI@@@1@@Z 00410ce0 f i WkeWebkit.obj
 0001:0000fcf0       ??$emplace_hint@ABUpiecewise_construct_t@std@@V?$tuple@ABQAVCWebView@wke@@@2@V?$tuple@$$V@2@@?$_Tree@V?$_Tmap_traits@PAVCWebView@wke@@PAVCWkeWebkitUI@@U?$less@PAVCWebView@wke@@@std@@V?$allocator@U?$pair@QAVCWebView@wke@@PAVCWkeWebkitUI@@@std@@@5@$0A@@std@@@std@@QAE?AV?$_Tree_iterator@V?$_Tree_val@U?$_Tree_simple_types@U?$pair@QAVCWebView@wke@@PAVCWkeWebkitUI@@@std@@@std@@@std@@@1@V?$_Tree_const_iterator@V?$_Tree_val@U?$_Tree_simple_types@U?$pair@QAVCWebView@wke@@PAVCWkeWebkitUI@@@std@@@std@@@std@@@1@ABUpiecewise_construct_t@1@$$QAV?$tuple@ABQAVCWebView@wke@@@1@$$QAV?$tuple@$$V@1@@Z 00410cf0 f i WkeWebkit.obj
 0001:0000fe10       ??$forward@AAPAU?$_Tree_node@U?$pair@QAVCWebView@wke@@PAVCWkeWebkitUI@@@std@@PAX@std@@@std@@YAAAPAU?$_Tree_node@U?$pair@QAVCWebView@wke@@PAVCWkeWebkitUI@@@std@@PAX@0@AAPAU10@@Z 00410e10 f i WkeWebkit.obj
 0001:0000fe20       ??$forward@AAU?$pair@QAVCWebView@wke@@PAVCWkeWebkitUI@@@std@@@std@@YAAAU?$pair@QAVCWebView@wke@@PAVCWkeWebkitUI@@@0@AAU10@@Z 00410e20 f i WkeWebkit.obj
 0001:0000fe30       ??$forward@AAV?$_Tree_iterator@V?$_Tree_val@U?$_Tree_simple_types@U?$pair@QAVCWebView@wke@@PAVCWkeWebkitUI@@@std@@@std@@@std@@@std@@@std@@YAAAV?$_Tree_iterator@V?$_Tree_val@U?$_Tree_simple_types@U?$pair@QAVCWebView@wke@@PAVCWkeWebkitUI@@@std@@@std@@@std@@@0@AAV10@@Z 00410e30 f i WkeWebkit.obj
 0001:0000fe40       ??$forward@ABQAD@std@@YAABQADABQAD@Z 00410e40 f i WkeWebkit.obj
 0001:0000fe50       ??$forward@ABQAVCWebView@wke@@@std@@YAABQAVCWebView@wke@@ABQAV12@@Z 00410e50 f i WkeWebkit.obj
 0001:0000fe60       ??$forward@ABQA_W@std@@YAABQA_WABQA_W@Z 00410e60 f i WkeWebkit.obj
 0001:0000fe70       ??$forward@ABU?$less@PAVCWebView@wke@@@std@@@std@@YAABU?$less@PAVCWebView@wke@@@0@ABU10@@Z 00410e70 f i WkeWebkit.obj
 0001:0000fe80       ??$forward@ABUpiecewise_construct_t@std@@@std@@YAABUpiecewise_construct_t@0@ABU10@@Z 00410e80 f i WkeWebkit.obj
 0001:0000fe90       ??$forward@U_Zero_then_variadic_args_t@std@@@std@@YA$$QAU_Zero_then_variadic_args_t@0@AAU10@@Z 00410e90 f i WkeWebkit.obj
 0001:0000fea0       ??$forward@V?$_Tree_iterator@V?$_Tree_val@U?$_Tree_simple_types@U?$pair@QAVCWebView@wke@@PAVCWkeWebkitUI@@@std@@@std@@@std@@@std@@@std@@YA$$QAV?$_Tree_iterator@V?$_Tree_val@U?$_Tree_simple_types@U?$pair@QAVCWebView@wke@@PAVCWkeWebkitUI@@@std@@@std@@@std@@@0@AAV10@@Z 00410ea0 f i WkeWebkit.obj
 0001:0000feb0       ??$forward@V?$allocator@D@std@@@std@@YA$$QAV?$allocator@D@0@AAV10@@Z 00410eb0 f i WkeWebkit.obj
 0001:0000fec0       ??$forward@V?$allocator@_W@std@@@std@@YA$$QAV?$allocator@_W@0@AAV10@@Z 00410ec0 f i WkeWebkit.obj
 0001:0000fed0       ??$forward@V?$tuple@$$V@std@@@std@@YA$$QAV?$tuple@$$V@0@AAV10@@Z 00410ed0 f i WkeWebkit.obj
 0001:0000fee0       ??$forward@V?$tuple@ABQAVCWebView@wke@@@std@@@std@@YA$$QAV?$tuple@ABQAVCWebView@wke@@@0@AAV10@@Z 00410ee0 f i WkeWebkit.obj
 0001:0000fef0       ??$forward@_N@std@@YA$$QA_NAA_N@Z 00410ef0 f i WkeWebkit.obj
 0001:0000ff00       ??$forward_as_tuple@$$V@std@@YA?AV?$tuple@$$V@0@XZ 00410f00 f i WkeWebkit.obj
 0001:0000ff20       ??$forward_as_tuple@ABQAVCWebView@wke@@@std@@YA?AV?$tuple@ABQAVCWebView@wke@@@0@ABQAVCWebView@wke@@@Z 00410f20 f i WkeWebkit.obj
 0001:0000ff90       ??$get@$0A@ABQAVCWebView@wke@@@std@@YAABQAVCWebView@wke@@$$QAV?$tuple@ABQAVCWebView@wke@@@0@@Z 00410f90 f i WkeWebkit.obj
 0001:0000ffb0       ??$move@AAD@std@@YA$$QADAAD@Z 00410fb0 f i WkeWebkit.obj
 0001:0000ffc0       ??$move@AAV?$allocator@D@std@@@std@@YA$$QAV?$allocator@D@0@AAV10@@Z 00410fc0 f i WkeWebkit.obj
 0001:0000ffd0       ??$move@AAV?$allocator@_W@std@@@std@@YA$$QAV?$allocator@_W@0@AAV10@@Z 00410fd0 f i WkeWebkit.obj
 0001:0000ffe0       ??$move@AAV?$basic_string@DU?$char_traits@D@std@@V?$allocator@D@2@@std@@@std@@YA$$QAV?$basic_string@DU?$char_traits@D@std@@V?$allocator@D@2@@0@AAV10@@Z 00410fe0 f i WkeWebkit.obj
 0001:0000fff0       ??$move@AAV?$basic_string@_WU?$char_traits@_W@std@@V?$allocator@_W@2@@std@@@std@@YA$$QAV?$basic_string@_WU?$char_traits@_W@std@@V?$allocator@_W@2@@0@AAV10@@Z 00410ff0 f i WkeWebkit.obj
 0001:00010000       ??$move@AAV?$tuple@ABQAVCWebView@wke@@@std@@@std@@YA$$QAV?$tuple@ABQAVCWebView@wke@@@0@AAV10@@Z 00411000 f i WkeWebkit.obj
 0001:00010010       ??$swap@DX@std@@YAXAAD0@Z  00411010 f i WkeWebkit.obj
 0001:000100c0       ??$try_emplace@$$V@?$map@PAVCWebView@wke@@PAVCWkeWebkitUI@@U?$less@PAVCWebView@wke@@@std@@V?$allocator@U?$pair@QAVCWebView@wke@@PAVCWkeWebkitUI@@@std@@@5@@std@@QAE?AU?$pair@V?$_Tree_iterator@V?$_Tree_val@U?$_Tree_simple_types@U?$pair@QAVCWebView@wke@@PAVCWkeWebkitUI@@@std@@@std@@@std@@@std@@_N@1@ABQAVCWebView@wke@@@Z 004110c0 f i WkeWebkit.obj
 0001:00010120       ??0?$_String_alloc@U?$_String_base_types@DV?$allocator@D@std@@@std@@@std@@QAE@XZ 00411120 f i WkeWebkit.obj
 0001:000101c0       ??0?$_String_alloc@U?$_String_base_types@_WV?$allocator@_W@std@@@std@@@std@@QAE@XZ 004111c0 f i WkeWebkit.obj
 0001:00010260       ??0?$_String_val@U?$_Simple_types@D@std@@@std@@QAE@XZ 00411260 f i WkeWebkit.obj
 0001:00010300       ??0?$_String_val@U?$_Simple_types@_W@std@@@std@@QAE@XZ 00411300 f i WkeWebkit.obj
 0001:000103a0       ??0?$_Tree@V?$_Tmap_traits@PAVCWebView@wke@@PAVCWkeWebkitUI@@U?$less@PAVCWebView@wke@@@std@@V?$allocator@U?$pair@QAVCWebView@wke@@PAVCWkeWebkitUI@@@std@@@5@$0A@@std@@@std@@QAE@ABU?$less@PAVCWebView@wke@@@1@@Z 004113a0 f i WkeWebkit.obj
 0001:000103e0       ??0?$_Tree_comp_alloc@V?$_Tmap_traits@PAVCWebView@wke@@PAVCWkeWebkitUI@@U?$less@PAVCWebView@wke@@@std@@V?$allocator@U?$pair@QAVCWebView@wke@@PAVCWkeWebkitUI@@@std@@@5@$0A@@std@@@std@@QAE@ABU?$less@PAVCWebView@wke@@@1@@Z 004113e0 f i WkeWebkit.obj
 0001:00010480       ??0?$_Tree_const_iterator@V?$_Tree_val@U?$_Tree_simple_types@U?$pair@QAVCWebView@wke@@PAVCWkeWebkitUI@@@std@@@std@@@std@@@std@@QAE@$$QAV01@@Z 00411480 f i WkeWebkit.obj
 0001:000104c0       ??0?$_Tree_const_iterator@V?$_Tree_val@U?$_Tree_simple_types@U?$pair@QAVCWebView@wke@@PAVCWkeWebkitUI@@@std@@@std@@@std@@@std@@QAE@ABV01@@Z 004114c0 f i WkeWebkit.obj
 0001:00010500       ??0?$_Tree_const_iterator@V?$_Tree_val@U?$_Tree_simple_types@U?$pair@QAVCWebView@wke@@PAVCWkeWebkitUI@@@std@@@std@@@std@@@std@@QAE@PAU?$_Tree_node@U?$pair@QAVCWebView@wke@@PAVCWkeWebkitUI@@@std@@PAX@1@PBV?$_Tree_val@U?$_Tree_simple_types@U?$pair@QAVCWebView@wke@@PAVCWkeWebkitUI@@@std@@@std@@@1@@Z 00411500 f i WkeWebkit.obj
 0001:00010540       ??0?$_Tree_const_iterator@V?$_Tree_val@U?$_Tree_simple_types@U?$pair@QAVCWebView@wke@@PAVCWkeWebkitUI@@@std@@@std@@@std@@@std@@QAE@XZ 00411540 f i WkeWebkit.obj
 0001:00010570       ??0?$_Tree_iterator@V?$_Tree_val@U?$_Tree_simple_types@U?$pair@QAVCWebView@wke@@PAVCWkeWebkitUI@@@std@@@std@@@std@@@std@@QAE@$$QAV01@@Z 00411570 f i WkeWebkit.obj
 0001:000105b0       ??0?$_Tree_iterator@V?$_Tree_val@U?$_Tree_simple_types@U?$pair@QAVCWebView@wke@@PAVCWkeWebkitUI@@@std@@@std@@@std@@@std@@QAE@ABV01@@Z 004115b0 f i WkeWebkit.obj
 0001:000105f0       ??0?$_Tree_iterator@V?$_Tree_val@U?$_Tree_simple_types@U?$pair@QAVCWebView@wke@@PAVCWkeWebkitUI@@@std@@@std@@@std@@@std@@QAE@PAU?$_Tree_node@U?$pair@QAVCWebView@wke@@PAVCWkeWebkitUI@@@std@@PAX@1@PBV?$_Tree_val@U?$_Tree_simple_types@U?$pair@QAVCWebView@wke@@PAVCWkeWebkitUI@@@std@@@std@@@1@@Z 004115f0 f i WkeWebkit.obj
 0001:00010630       ??0?$_Tree_unchecked_const_iterator@V?$_Tree_val@U?$_Tree_simple_types@U?$pair@QAVCWebView@wke@@PAVCWkeWebkitUI@@@std@@@std@@@std@@U_Iterator_base12@2@@std@@QAE@$$QAV01@@Z 00411630 f i WkeWebkit.obj
 0001:00010680       ??0?$_Tree_unchecked_const_iterator@V?$_Tree_val@U?$_Tree_simple_types@U?$pair@QAVCWebView@wke@@PAVCWkeWebkitUI@@@std@@@std@@@std@@U_Iterator_base12@2@@std@@QAE@ABV01@@Z 00411680 f i WkeWebkit.obj
 0001:000106d0       ??0?$_Tree_unchecked_const_iterator@V?$_Tree_val@U?$_Tree_simple_types@U?$pair@QAVCWebView@wke@@PAVCWkeWebkitUI@@@std@@@std@@@std@@U_Iterator_base12@2@@std@@QAE@PAU?$_Tree_node@U?$pair@QAVCWebView@wke@@PAVCWkeWebkitUI@@@std@@PAX@1@PBV?$_Tree_val@U?$_Tree_simple_types@U?$pair@QAVCWebView@wke@@PAVCWkeWebkitUI@@@std@@@std@@@1@@Z 004116d0 f i WkeWebkit.obj
 0001:00010720       ??0?$_Tree_unchecked_const_iterator@V?$_Tree_val@U?$_Tree_simple_types@U?$pair@QAVCWebView@wke@@PAVCWkeWebkitUI@@@std@@@std@@@std@@U_Iterator_base12@2@@std@@QAE@XZ 00411720 f i WkeWebkit.obj
 0001:00010760       ??0?$_Tree_val@U?$_Tree_simple_types@U?$pair@QAVCWebView@wke@@PAVCWkeWebkitUI@@@std@@@std@@@std@@QAE@XZ 00411760 f i WkeWebkit.obj
 0001:000107b0       ??0?$allocator@D@std@@QAE@XZ 004117b0 f i WkeWebkit.obj
 0001:000107d0       ??0?$allocator@U?$_Tree_node@U?$pair@QAVCWebView@wke@@PAVCWkeWebkitUI@@@std@@PAX@std@@@std@@QAE@XZ 004117d0 f i WkeWebkit.obj
 0001:000107f0       ??0?$allocator@_W@std@@QAE@XZ 004117f0 f i WkeWebkit.obj
 0001:00010810       ??0?$basic_string@DU?$char_traits@D@std@@V?$allocator@D@2@@std@@QAE@$$QAV01@@Z 00411810 f i WkeWebkit.obj
 0001:000108c0       ??0?$basic_string@DU?$char_traits@D@std@@V?$allocator@D@2@@std@@QAE@XZ 004118c0 f i WkeWebkit.obj
 0001:00010930       ??0?$basic_string@_WU?$char_traits@_W@std@@V?$allocator@_W@2@@std@@QAE@$$QAV01@@Z 00411930 f i WkeWebkit.obj
 0001:000109e0       ??0?$basic_string@_WU?$char_traits@_W@std@@V?$allocator@_W@2@@std@@QAE@XZ 004119e0 f i WkeWebkit.obj
 0001:00010a50       ??0?$map@PAVCWebView@wke@@PAVCWkeWebkitUI@@U?$less@PAVCWebView@wke@@@std@@V?$allocator@U?$pair@QAVCWebView@wke@@PAVCWkeWebkitUI@@@std@@@5@@std@@QAE@XZ 00411a50 f i WkeWebkit.obj
 0001:00010aa0       ??0?$tuple@$$V@std@@QAE@ABV01@@Z 00411aa0 f i WkeWebkit.obj
 0001:00010ac0       ??0?$tuple@$$V@std@@QAE@XZ 00411ac0 f i WkeWebkit.obj
 0001:00010ae0       ??0?$tuple@ABQAVCWebView@wke@@@std@@QAE@$$QAV01@@Z 00411ae0 f i WkeWebkit.obj
 0001:00010b30       ??0_Bxty@?$_String_val@U?$_Simple_types@D@std@@@std@@QAE@XZ 00411b30 f i WkeWebkit.obj
 0001:00010b50       ??0_Bxty@?$_String_val@U?$_Simple_types@_W@std@@@std@@QAE@XZ 00411b50 f i WkeWebkit.obj
 0001:00010b70       ??0_rend_data@@QAE@XZ      00411b70 f i WkeWebkit.obj
 0001:00010bf0       ??1?$_Compressed_pair@U?$less@PAVCWebView@wke@@@std@@V?$_Compressed_pair@V?$allocator@U?$_Tree_node@U?$pair@QAVCWebView@wke@@PAVCWkeWebkitUI@@@std@@PAX@std@@@std@@V?$_Tree_val@U?$_Tree_simple_types@U?$pair@QAVCWebView@wke@@PAVCWkeWebkitUI@@@std@@@std@@@2@$00@2@$00@std@@QAE@XZ 00411bf0 f i WkeWebkit.obj
 0001:00010c20       ??1?$_Compressed_pair@V?$allocator@D@std@@V?$_String_val@U?$_Simple_types@D@std@@@2@$00@std@@QAE@XZ 00411c20 f i WkeWebkit.obj
 0001:00010c50       ??1?$_Compressed_pair@V?$allocator@U?$_Tree_node@U?$pair@QAVCWebView@wke@@PAVCWkeWebkitUI@@@std@@PAX@std@@@std@@V?$_Tree_val@U?$_Tree_simple_types@U?$pair@QAVCWebView@wke@@PAVCWkeWebkitUI@@@std@@@std@@@2@$00@std@@QAE@XZ 00411c50 f i WkeWebkit.obj
 0001:00010c80       ??1?$_Compressed_pair@V?$allocator@_W@std@@V?$_String_val@U?$_Simple_types@_W@std@@@2@$00@std@@QAE@XZ 00411c80 f i WkeWebkit.obj
 0001:00010cb0       ??1?$_String_alloc@U?$_String_base_types@DV?$allocator@D@std@@@std@@@std@@QAE@XZ 00411cb0 f i WkeWebkit.obj
 0001:00010d20       ??1?$_String_alloc@U?$_String_base_types@_WV?$allocator@_W@std@@@std@@@std@@QAE@XZ 00411d20 f i WkeWebkit.obj
 0001:00010d90       ??1?$_String_val@U?$_Simple_types@D@std@@@std@@QAE@XZ 00411d90 f i WkeWebkit.obj
 0001:00010dd0       ??1?$_String_val@U?$_Simple_types@_W@std@@@std@@QAE@XZ 00411dd0 f i WkeWebkit.obj
 0001:00010e10       ??1?$_Tree@V?$_Tmap_traits@PAVCWebView@wke@@PAVCWkeWebkitUI@@U?$less@PAVCWebView@wke@@@std@@V?$allocator@U?$pair@QAVCWebView@wke@@PAVCWkeWebkitUI@@@std@@@5@$0A@@std@@@std@@QAE@XZ 00411e10 f i WkeWebkit.obj
 0001:00010e80       ??1?$_Tree_comp_alloc@V?$_Tmap_traits@PAVCWebView@wke@@PAVCWkeWebkitUI@@U?$less@PAVCWebView@wke@@@std@@V?$allocator@U?$pair@QAVCWebView@wke@@PAVCWkeWebkitUI@@@std@@@5@$0A@@std@@@std@@QAE@XZ 00411e80 f i WkeWebkit.obj
 0001:00010f10       ??1?$_Tree_const_iterator@V?$_Tree_val@U?$_Tree_simple_types@U?$pair@QAVCWebView@wke@@PAVCWkeWebkitUI@@@std@@@std@@@std@@@std@@QAE@XZ 00411f10 f i WkeWebkit.obj
 0001:00010f40       ??1?$_Tree_iterator@V?$_Tree_val@U?$_Tree_simple_types@U?$pair@QAVCWebView@wke@@PAVCWkeWebkitUI@@@std@@@std@@@std@@@std@@QAE@XZ 00411f40 f i WkeWebkit.obj
 0001:00010f70       ??1?$_Tree_unchecked_const_iterator@V?$_Tree_val@U?$_Tree_simple_types@U?$pair@QAVCWebView@wke@@PAVCWkeWebkitUI@@@std@@@std@@@std@@U_Iterator_base12@2@@std@@QAE@XZ 00411f70 f i WkeWebkit.obj
 0001:00010fa0       ??1?$_Tree_val@U?$_Tree_simple_types@U?$pair@QAVCWebView@wke@@PAVCWkeWebkitUI@@@std@@@std@@@std@@QAE@XZ 00411fa0 f i WkeWebkit.obj
 0001:00010fd0       ??1?$basic_string@DU?$char_traits@D@std@@V?$allocator@D@2@@std@@QAE@XZ 00411fd0 f i WkeWebkit.obj
 0001:00011040       ??1?$basic_string@_WU?$char_traits@_W@std@@V?$allocator@_W@2@@std@@QAE@XZ 00412040 f i WkeWebkit.obj
 0001:000110b0       ??1?$map@PAVCWebView@wke@@PAVCWkeWebkitUI@@U?$less@PAVCWebView@wke@@@std@@V?$allocator@U?$pair@QAVCWebView@wke@@PAVCWkeWebkitUI@@@std@@@5@@std@@QAE@XZ 004120b0 f i WkeWebkit.obj
 0001:000110e0       ??1?$pair@V?$_Tree_iterator@V?$_Tree_val@U?$_Tree_simple_types@U?$pair@QAVCWebView@wke@@PAVCWkeWebkitUI@@@std@@@std@@@std@@@std@@_N@std@@QAE@XZ 004120e0 f i WkeWebkit.obj
 0001:00011110       ??1_Bxty@?$_String_val@U?$_Simple_types@D@std@@@std@@QAE@XZ 00412110 f i WkeWebkit.obj
 0001:00011130       ??1_Bxty@?$_String_val@U?$_Simple_types@_W@std@@@std@@QAE@XZ 00412130 f i WkeWebkit.obj
 0001:00011150       ??1_rend_data@@QAE@XZ      00412150 f i WkeWebkit.obj
 0001:000111d0       ??3@YAXPAX0@Z              004121d0 f i WkeWebkit.obj
 0001:000111e0       ??4?$_Tree_const_iterator@V?$_Tree_val@U?$_Tree_simple_types@U?$pair@QAVCWebView@wke@@PAVCWkeWebkitUI@@@std@@@std@@@std@@@std@@QAEAAV01@ABV01@@Z 004121e0 f i WkeWebkit.obj
 0001:00011220       ??4?$_Tree_unchecked_const_iterator@V?$_Tree_val@U?$_Tree_simple_types@U?$pair@QAVCWebView@wke@@PAVCWkeWebkitUI@@@std@@@std@@@std@@U_Iterator_base12@2@@std@@QAEAAV01@ABV01@@Z 00412220 f i WkeWebkit.obj
 0001:00011270       ??4?$basic_string@DU?$char_traits@D@std@@V?$allocator@D@2@@std@@QAEAAV01@QBD@Z 00412270 f i WkeWebkit.obj
 0001:000112b0       ??4?$basic_string@_WU?$char_traits@_W@std@@V?$allocator@_W@2@@std@@QAEAAV01@QB_W@Z 004122b0 f i WkeWebkit.obj
 0001:000112f0       ??8?$_Tree_const_iterator@V?$_Tree_val@U?$_Tree_simple_types@U?$pair@QAVCWebView@wke@@PAVCWkeWebkitUI@@@std@@@std@@@std@@@std@@QBE_NABV01@@Z 004122f0 f i WkeWebkit.obj
 0001:000113c0       ??9?$_Tree_const_iterator@V?$_Tree_val@U?$_Tree_simple_types@U?$pair@QAVCWebView@wke@@PAVCWkeWebkitUI@@@std@@@std@@@std@@@std@@QBE_NABV01@@Z 004123c0 f i WkeWebkit.obj
 0001:00011420       ??A?$map@PAVCWebView@wke@@PAVCWkeWebkitUI@@U?$less@PAVCWebView@wke@@@std@@V?$allocator@U?$pair@QAVCWebView@wke@@PAVCWkeWebkitUI@@@std@@@5@@std@@QAEAAPAVCWkeWebkitUI@@ABQAVCWebView@wke@@@Z 00412420 f i WkeWebkit.obj
 0001:000114f0       ??C?$_Tree_const_iterator@V?$_Tree_val@U?$_Tree_simple_types@U?$pair@QAVCWebView@wke@@PAVCWkeWebkitUI@@@std@@@std@@@std@@@std@@QBEPBU?$pair@QAVCWebView@wke@@PAVCWkeWebkitUI@@@1@XZ 004124f0 f i WkeWebkit.obj
 0001:00011530       ??C?$_Tree_iterator@V?$_Tree_val@U?$_Tree_simple_types@U?$pair@QAVCWebView@wke@@PAVCWkeWebkitUI@@@std@@@std@@@std@@@std@@QBEPAU?$pair@QAVCWebView@wke@@PAVCWkeWebkitUI@@@1@XZ 00412530 f i WkeWebkit.obj
 0001:00011570       ??D?$_Tree_const_iterator@V?$_Tree_val@U?$_Tree_simple_types@U?$pair@QAVCWebView@wke@@PAVCWkeWebkitUI@@@std@@@std@@@std@@@std@@QBEABU?$pair@QAVCWebView@wke@@PAVCWkeWebkitUI@@@1@XZ 00412570 f i WkeWebkit.obj
 0001:00011630       ??D?$_Tree_iterator@V?$_Tree_val@U?$_Tree_simple_types@U?$pair@QAVCWebView@wke@@PAVCWkeWebkitUI@@@std@@@std@@@std@@@std@@QBEAAU?$pair@QAVCWebView@wke@@PAVCWkeWebkitUI@@@1@XZ 00412630 f i WkeWebkit.obj
 0001:00011660       ??E?$_Tree_const_iterator@V?$_Tree_val@U?$_Tree_simple_types@U?$pair@QAVCWebView@wke@@PAVCWkeWebkitUI@@@std@@@std@@@std@@@std@@QAE?AV01@H@Z 00412660 f i WkeWebkit.obj
 0001:00011770       ??E?$_Tree_const_iterator@V?$_Tree_val@U?$_Tree_simple_types@U?$pair@QAVCWebView@wke@@PAVCWkeWebkitUI@@@std@@@std@@@std@@@std@@QAEAAV01@XZ 00412770 f i WkeWebkit.obj
 0001:00011820       ??E?$_Tree_unchecked_const_iterator@V?$_Tree_val@U?$_Tree_simple_types@U?$pair@QAVCWebView@wke@@PAVCWkeWebkitUI@@@std@@@std@@@std@@U_Iterator_base12@2@@std@@QAEAAV01@XZ 00412820 f i WkeWebkit.obj
 0001:000118f0       ??F?$_Tree_const_iterator@V?$_Tree_val@U?$_Tree_simple_types@U?$pair@QAVCWebView@wke@@PAVCWkeWebkitUI@@@std@@@std@@@std@@@std@@QAEAAV01@XZ 004128f0 f i WkeWebkit.obj
 0001:00011a00       ??F?$_Tree_iterator@V?$_Tree_val@U?$_Tree_simple_types@U?$pair@QAVCWebView@wke@@PAVCWkeWebkitUI@@@std@@@std@@@std@@@std@@QAEAAV01@XZ 00412a00 f i WkeWebkit.obj
 0001:00011a30       ??F?$_Tree_unchecked_const_iterator@V?$_Tree_val@U?$_Tree_simple_types@U?$pair@QAVCWebView@wke@@PAVCWkeWebkitUI@@@std@@@std@@@std@@U_Iterator_base12@2@@std@@QAEAAV01@XZ 00412a30 f i WkeWebkit.obj
 0001:00011c00       ??R?$less@PAVCWebView@wke@@@std@@QBE_NABQAVCWebView@wke@@0@Z 00412c00 f i WkeWebkit.obj
 0001:00011c50       ??_ECWkeWebkitUI@@UAEPAXI@Z 00412c50 f i WkeWebkit.obj
 0001:00011c50       ??_GCWkeWebkitUI@@UAEPAXI@Z 00412c50 f i WkeWebkit.obj
 0001:00011cb0       ?_Alloc_proxy@?$_String_alloc@U?$_String_base_types@DV?$allocator@D@std@@@std@@@std@@QAEXXZ 00412cb0 f i WkeWebkit.obj
 0001:00011dc0       ?_Alloc_proxy@?$_String_alloc@U?$_String_base_types@_WV?$allocator@_W@std@@@std@@@std@@QAEXXZ 00412dc0 f i WkeWebkit.obj
 0001:00011ed0       ?_Alloc_proxy@?$_Tree_comp_alloc@V?$_Tmap_traits@PAVCWebView@wke@@PAVCWkeWebkitUI@@U?$less@PAVCWebView@wke@@@std@@V?$allocator@U?$pair@QAVCWebView@wke@@PAVCWkeWebkitUI@@@std@@@5@$0A@@std@@@std@@QAEXXZ 00412ed0 f i WkeWebkit.obj
 0001:00011fe0       ?_Assign_rv_contents_with_alloc_always_equal@?$basic_string@DU?$char_traits@D@std@@V?$allocator@D@2@@std@@QAEX$$QAV12@U?$integral_constant@_N$00@2@@Z 00412fe0 f i WkeWebkit.obj
 0001:000120b0       ?_Assign_rv_contents_with_alloc_always_equal@?$basic_string@_WU?$char_traits@_W@std@@V?$allocator@_W@2@@std@@QAEX$$QAV12@U?$integral_constant@_N$00@2@@Z 004130b0 f i WkeWebkit.obj
 0001:00012180       ?_Buyheadnode@?$_Tree_comp_alloc@V?$_Tmap_traits@PAVCWebView@wke@@PAVCWkeWebkitUI@@U?$less@PAVCWebView@wke@@@std@@V?$allocator@U?$pair@QAVCWebView@wke@@PAVCWkeWebkitUI@@@std@@@5@$0A@@std@@@std@@QAEPAU?$_Tree_node@U?$pair@QAVCWebView@wke@@PAVCWkeWebkitUI@@@std@@PAX@2@XZ 00413180 f i WkeWebkit.obj
 0001:00012320       ?_Buynode0@?$_Tree_comp_alloc@V?$_Tmap_traits@PAVCWebView@wke@@PAVCWkeWebkitUI@@U?$less@PAVCWebView@wke@@@std@@V?$allocator@U?$pair@QAVCWebView@wke@@PAVCWkeWebkitUI@@@std@@@5@$0A@@std@@@std@@QAEPAU?$_Tree_node@U?$pair@QAVCWebView@wke@@PAVCWkeWebkitUI@@@std@@PAX@2@XZ 00413320 f i WkeWebkit.obj
 0001:00012490       ?_Calculate_growth@?$basic_string@DU?$char_traits@D@std@@V?$allocator@D@2@@std@@QBEII@Z 00413490 f i WkeWebkit.obj
 0001:00012590       ?_Calculate_growth@?$basic_string@_WU?$char_traits@_W@std@@V?$allocator@_W@2@@std@@QBEII@Z 00413590 f i WkeWebkit.obj
 0001:00012690       ?_Compare@?$_Tree@V?$_Tmap_traits@PAVCWebView@wke@@PAVCWkeWebkitUI@@U?$less@PAVCWebView@wke@@@std@@V?$allocator@U?$pair@QAVCWebView@wke@@PAVCWkeWebkitUI@@@std@@@5@$0A@@std@@@std@@IBE_NABQAVCWebView@wke@@0@Z 00413690 f i WkeWebkit.obj
 0001:000126f0       ?_Construct@?$_Tree_comp_alloc@V?$_Tmap_traits@PAVCWebView@wke@@PAVCWkeWebkitUI@@U?$less@PAVCWebView@wke@@@std@@V?$allocator@U?$pair@QAVCWebView@wke@@PAVCWkeWebkitUI@@@std@@@5@$0A@@std@@@std@@QAEXXZ 004136f0 f i WkeWebkit.obj
 0001:000127c0       ?_Destroy_if_not_nil@?$_Tree@V?$_Tmap_traits@PAVCWebView@wke@@PAVCWkeWebkitUI@@U?$less@PAVCWebView@wke@@@std@@V?$allocator@U?$pair@QAVCWebView@wke@@PAVCWkeWebkitUI@@@std@@@5@$0A@@std@@@std@@IAEXPAU?$_Tree_node@U?$pair@QAVCWebView@wke@@PAVCWkeWebkitUI@@@std@@PAX@2@@Z 004137c0 f i WkeWebkit.obj
 0001:00012840       ?_Erase@?$_Tree@V?$_Tmap_traits@PAVCWebView@wke@@PAVCWkeWebkitUI@@U?$less@PAVCWebView@wke@@@std@@V?$allocator@U?$pair@QAVCWebView@wke@@PAVCWkeWebkitUI@@@std@@@5@$0A@@std@@@std@@IAEXPAU?$_Tree_node@U?$pair@QAVCWebView@wke@@PAVCWkeWebkitUI@@@std@@PAX@2@@Z 00413840 f i WkeWebkit.obj
 0001:00012900       ?_Free_proxy@?$_String_alloc@U?$_String_base_types@DV?$allocator@D@std@@@std@@@std@@QAEXXZ 00413900 f i WkeWebkit.obj
 0001:000129f0       ?_Free_proxy@?$_String_alloc@U?$_String_base_types@_WV?$allocator@_W@std@@@std@@@std@@QAEXXZ 004139f0 f i WkeWebkit.obj
 0001:00012ae0       ?_Free_proxy@?$_Tree_comp_alloc@V?$_Tmap_traits@PAVCWebView@wke@@PAVCWkeWebkitUI@@U?$less@PAVCWebView@wke@@@std@@V?$allocator@U?$pair@QAVCWebView@wke@@PAVCWkeWebkitUI@@@std@@@5@$0A@@std@@@std@@QAEXXZ 00413ae0 f i WkeWebkit.obj
 0001:00012bd0       ?_Freeheadnode@?$_Tree_comp_alloc@V?$_Tmap_traits@PAVCWebView@wke@@PAVCWkeWebkitUI@@U?$less@PAVCWebView@wke@@@std@@V?$allocator@U?$pair@QAVCWebView@wke@@PAVCWkeWebkitUI@@@std@@@5@$0A@@std@@@std@@QAEXPAU?$_Tree_node@U?$pair@QAVCWebView@wke@@PAVCWkeWebkitUI@@@std@@PAX@2@@Z 00413bd0 f i WkeWebkit.obj
 0001:00012c90       ?_Freenode0@?$_Tree_comp_alloc@V?$_Tmap_traits@PAVCWebView@wke@@PAVCWkeWebkitUI@@U?$less@PAVCWebView@wke@@@std@@V?$allocator@U?$pair@QAVCWebView@wke@@PAVCWkeWebkitUI@@@std@@@5@$0A@@std@@@std@@QAEXPAU?$_Tree_node@U?$pair@QAVCWebView@wke@@PAVCWkeWebkitUI@@@std@@PAX@2@@Z 00413c90 f i WkeWebkit.obj
 0001:00012d50       ?_Get_data@?$_String_alloc@U?$_String_base_types@DV?$allocator@D@std@@@std@@@std@@QAEAAV?$_String_val@U?$_Simple_types@D@std@@@2@XZ 00413d50 f i WkeWebkit.obj
 0001:00012d80       ?_Get_data@?$_String_alloc@U?$_String_base_types@DV?$allocator@D@std@@@std@@@std@@QBEABV?$_String_val@U?$_Simple_types@D@std@@@2@XZ 00413d80 f i WkeWebkit.obj
 0001:00012db0       ?_Get_data@?$_String_alloc@U?$_String_base_types@_WV?$allocator@_W@std@@@std@@@std@@QAEAAV?$_String_val@U?$_Simple_types@_W@std@@@2@XZ 00413db0 f i WkeWebkit.obj
 0001:00012de0       ?_Get_data@?$_String_alloc@U?$_String_base_types@_WV?$allocator@_W@std@@@std@@@std@@QBEABV?$_String_val@U?$_Simple_types@_W@std@@@2@XZ 00413de0 f i WkeWebkit.obj
 0001:00012e10       ?_Get_data@?$_Tree_comp_alloc@V?$_Tmap_traits@PAVCWebView@wke@@PAVCWkeWebkitUI@@U?$less@PAVCWebView@wke@@@std@@V?$allocator@U?$pair@QAVCWebView@wke@@PAVCWkeWebkitUI@@@std@@@5@$0A@@std@@@std@@QAEAAV?$_Tree_val@U?$_Tree_simple_types@U?$pair@QAVCWebView@wke@@PAVCWkeWebkitUI@@@std@@@std@@@2@XZ 00413e10 f i WkeWebkit.obj
 0001:00012e50       ?_Get_data@?$_Tree_comp_alloc@V?$_Tmap_traits@PAVCWebView@wke@@PAVCWkeWebkitUI@@U?$less@PAVCWebView@wke@@@std@@V?$allocator@U?$pair@QAVCWebView@wke@@PAVCWkeWebkitUI@@@std@@@5@$0A@@std@@@std@@QBEABV?$_Tree_val@U?$_Tree_simple_types@U?$pair@QAVCWebView@wke@@PAVCWkeWebkitUI@@@std@@@std@@@2@XZ 00413e50 f i WkeWebkit.obj
 0001:00012e90       ?_Get_first@?$_Compressed_pair@U?$less@PAVCWebView@wke@@@std@@V?$_Compressed_pair@V?$allocator@U?$_Tree_node@U?$pair@QAVCWebView@wke@@PAVCWkeWebkitUI@@@std@@PAX@std@@@std@@V?$_Tree_val@U?$_Tree_simple_types@U?$pair@QAVCWebView@wke@@PAVCWkeWebkitUI@@@std@@@std@@@2@$00@2@$00@std@@QAEAAU?$less@PAVCWebView@wke@@@2@XZ 00413e90 f i WkeWebkit.obj
 0001:00012eb0       ?_Get_first@?$_Compressed_pair@U?$less@PAVCWebView@wke@@@std@@V?$_Compressed_pair@V?$allocator@U?$_Tree_node@U?$pair@QAVCWebView@wke@@PAVCWkeWebkitUI@@@std@@PAX@std@@@std@@V?$_Tree_val@U?$_Tree_simple_types@U?$pair@QAVCWebView@wke@@PAVCWkeWebkitUI@@@std@@@std@@@2@$00@2@$00@std@@QBEABU?$less@PAVCWebView@wke@@@2@XZ 00413eb0 f i WkeWebkit.obj
 0001:00012ed0       ?_Get_first@?$_Compressed_pair@V?$allocator@D@std@@V?$_String_val@U?$_Simple_types@D@std@@@2@$00@std@@QAEAAV?$allocator@D@2@XZ 00413ed0 f i WkeWebkit.obj
 0001:00012ef0       ?_Get_first@?$_Compressed_pair@V?$allocator@D@std@@V?$_String_val@U?$_Simple_types@D@std@@@2@$00@std@@QBEABV?$allocator@D@2@XZ 00413ef0 f i WkeWebkit.obj
 0001:00012f10       ?_Get_first@?$_Compressed_pair@V?$allocator@U?$_Tree_node@U?$pair@QAVCWebView@wke@@PAVCWkeWebkitUI@@@std@@PAX@std@@@std@@V?$_Tree_val@U?$_Tree_simple_types@U?$pair@QAVCWebView@wke@@PAVCWkeWebkitUI@@@std@@@std@@@2@$00@std@@QAEAAV?$allocator@U?$_Tree_node@U?$pair@QAVCWebView@wke@@PAVCWkeWebkitUI@@@std@@PAX@std@@@2@XZ 00413f10 f i WkeWebkit.obj
 0001:00012f30       ?_Get_first@?$_Compressed_pair@V?$allocator@U?$_Tree_node@U?$pair@QAVCWebView@wke@@PAVCWkeWebkitUI@@@std@@PAX@std@@@std@@V?$_Tree_val@U?$_Tree_simple_types@U?$pair@QAVCWebView@wke@@PAVCWkeWebkitUI@@@std@@@std@@@2@$00@std@@QBEABV?$allocator@U?$_Tree_node@U?$pair@QAVCWebView@wke@@PAVCWkeWebkitUI@@@std@@PAX@std@@@2@XZ 00413f30 f i WkeWebkit.obj
 0001:00012f50       ?_Get_first@?$_Compressed_pair@V?$allocator@_W@std@@V?$_String_val@U?$_Simple_types@_W@std@@@2@$00@std@@QAEAAV?$allocator@_W@2@XZ 00413f50 f i WkeWebkit.obj
 0001:00012f70       ?_Get_first@?$_Compressed_pair@V?$allocator@_W@std@@V?$_String_val@U?$_Simple_types@_W@std@@@2@$00@std@@QBEABV?$allocator@_W@2@XZ 00413f70 f i WkeWebkit.obj
 0001:00012f90       ?_Get_second@?$_Compressed_pair@U?$less@PAVCWebView@wke@@@std@@V?$_Compressed_pair@V?$allocator@U?$_Tree_node@U?$pair@QAVCWebView@wke@@PAVCWkeWebkitUI@@@std@@PAX@std@@@std@@V?$_Tree_val@U?$_Tree_simple_types@U?$pair@QAVCWebView@wke@@PAVCWkeWebkitUI@@@std@@@std@@@2@$00@2@$00@std@@QAEAAV?$_Compressed_pair@V?$allocator@U?$_Tree_node@U?$pair@QAVCWebView@wke@@PAVCWkeWebkitUI@@@std@@PAX@std@@@std@@V?$_Tree_val@U?$_Tree_simple_types@U?$pair@QAVCWebView@wke@@PAVCWkeWebkitUI@@@std@@@std@@@2@$00@2@XZ 00413f90 f i WkeWebkit.obj
 0001:00012fb0       ?_Get_second@?$_Compressed_pair@U?$less@PAVCWebView@wke@@@std@@V?$_Compressed_pair@V?$allocator@U?$_Tree_node@U?$pair@QAVCWebView@wke@@PAVCWkeWebkitUI@@@std@@PAX@std@@@std@@V?$_Tree_val@U?$_Tree_simple_types@U?$pair@QAVCWebView@wke@@PAVCWkeWebkitUI@@@std@@@std@@@2@$00@2@$00@std@@QBEABV?$_Compressed_pair@V?$allocator@U?$_Tree_node@U?$pair@QAVCWebView@wke@@PAVCWkeWebkitUI@@@std@@PAX@std@@@std@@V?$_Tree_val@U?$_Tree_simple_types@U?$pair@QAVCWebView@wke@@PAVCWkeWebkitUI@@@std@@@std@@@2@$00@2@XZ 00413fb0 f i WkeWebkit.obj
 0001:00012fd0       ?_Get_second@?$_Compressed_pair@V?$allocator@D@std@@V?$_String_val@U?$_Simple_types@D@std@@@2@$00@std@@QAEAAV?$_String_val@U?$_Simple_types@D@std@@@2@XZ 00413fd0 f i WkeWebkit.obj
 0001:00012ff0       ?_Get_second@?$_Compressed_pair@V?$allocator@D@std@@V?$_String_val@U?$_Simple_types@D@std@@@2@$00@std@@QBEABV?$_String_val@U?$_Simple_types@D@std@@@2@XZ 00413ff0 f i WkeWebkit.obj
 0001:00013010       ?_Get_second@?$_Compressed_pair@V?$allocator@U?$_Tree_node@U?$pair@QAVCWebView@wke@@PAVCWkeWebkitUI@@@std@@PAX@std@@@std@@V?$_Tree_val@U?$_Tree_simple_types@U?$pair@QAVCWebView@wke@@PAVCWkeWebkitUI@@@std@@@std@@@2@$00@std@@QAEAAV?$_Tree_val@U?$_Tree_simple_types@U?$pair@QAVCWebView@wke@@PAVCWkeWebkitUI@@@std@@@std@@@2@XZ 00414010 f i WkeWebkit.obj
 0001:00013030       ?_Get_second@?$_Compressed_pair@V?$allocator@U?$_Tree_node@U?$pair@QAVCWebView@wke@@PAVCWkeWebkitUI@@@std@@PAX@std@@@std@@V?$_Tree_val@U?$_Tree_simple_types@U?$pair@QAVCWebView@wke@@PAVCWkeWebkitUI@@@std@@@std@@@2@$00@std@@QBEABV?$_Tree_val@U?$_Tree_simple_types@U?$pair@QAVCWebView@wke@@PAVCWkeWebkitUI@@@std@@@std@@@2@XZ 00414030 f i WkeWebkit.obj
 0001:00013050       ?_Get_second@?$_Compressed_pair@V?$allocator@_W@std@@V?$_String_val@U?$_Simple_types@_W@std@@@2@$00@std@@QAEAAV?$_String_val@U?$_Simple_types@_W@std@@@2@XZ 00414050 f i WkeWebkit.obj
 0001:00013070       ?_Get_second@?$_Compressed_pair@V?$allocator@_W@std@@V?$_String_val@U?$_Simple_types@_W@std@@@2@$00@std@@QBEABV?$_String_val@U?$_Simple_types@_W@std@@@2@XZ 00414070 f i WkeWebkit.obj
 0001:00013090       ?_Getal@?$_String_alloc@U?$_String_base_types@DV?$allocator@D@std@@@std@@@std@@QAEAAV?$allocator@D@2@XZ 00414090 f i WkeWebkit.obj
 0001:000130c0       ?_Getal@?$_String_alloc@U?$_String_base_types@DV?$allocator@D@std@@@std@@@std@@QBEABV?$allocator@D@2@XZ 004140c0 f i WkeWebkit.obj
 0001:000130f0       ?_Getal@?$_String_alloc@U?$_String_base_types@_WV?$allocator@_W@std@@@std@@@std@@QAEAAV?$allocator@_W@2@XZ 004140f0 f i WkeWebkit.obj
 0001:00013120       ?_Getal@?$_String_alloc@U?$_String_base_types@_WV?$allocator@_W@std@@@std@@@std@@QBEABV?$allocator@_W@2@XZ 00414120 f i WkeWebkit.obj
 0001:00013150       ?_Getal@?$_Tree_comp_alloc@V?$_Tmap_traits@PAVCWebView@wke@@PAVCWkeWebkitUI@@U?$less@PAVCWebView@wke@@@std@@V?$allocator@U?$pair@QAVCWebView@wke@@PAVCWkeWebkitUI@@@std@@@5@$0A@@std@@@std@@QAEAAV?$allocator@U?$_Tree_node@U?$pair@QAVCWebView@wke@@PAVCWkeWebkitUI@@@std@@PAX@std@@@2@XZ 00414150 f i WkeWebkit.obj
 0001:00013190       ?_Getal@?$_Tree_comp_alloc@V?$_Tmap_traits@PAVCWebView@wke@@PAVCWkeWebkitUI@@U?$less@PAVCWebView@wke@@@std@@V?$allocator@U?$pair@QAVCWebView@wke@@PAVCWkeWebkitUI@@@std@@@5@$0A@@std@@@std@@QBEABV?$allocator@U?$_Tree_node@U?$pair@QAVCWebView@wke@@PAVCWkeWebkitUI@@@std@@PAX@std@@@2@XZ 00414190 f i WkeWebkit.obj
 0001:000131d0       ?_Getcomp@?$_Tree_comp_alloc@V?$_Tmap_traits@PAVCWebView@wke@@PAVCWkeWebkitUI@@U?$less@PAVCWebView@wke@@@std@@V?$allocator@U?$pair@QAVCWebView@wke@@PAVCWkeWebkitUI@@@std@@@5@$0A@@std@@@std@@QAEAAU?$less@PAVCWebView@wke@@@2@XZ 004141d0 f i WkeWebkit.obj
 0001:00013200       ?_Getcomp@?$_Tree_comp_alloc@V?$_Tmap_traits@PAVCWebView@wke@@PAVCWkeWebkitUI@@U?$less@PAVCWebView@wke@@@std@@V?$allocator@U?$pair@QAVCWebView@wke@@PAVCWkeWebkitUI@@@std@@@5@$0A@@std@@@std@@QBEABU?$less@PAVCWebView@wke@@@2@XZ 00414200 f i WkeWebkit.obj
 0001:00013230       ?_Getpfirst@?$_Tree_comp_alloc@V?$_Tmap_traits@PAVCWebView@wke@@PAVCWkeWebkitUI@@U?$less@PAVCWebView@wke@@@std@@V?$allocator@U?$pair@QAVCWebView@wke@@PAVCWkeWebkitUI@@@std@@@5@$0A@@std@@@std@@QBEPAPAU_Iterator_base12@2@XZ 00414230 f i WkeWebkit.obj
 0001:00013270       ?_Key@?$_Tree@V?$_Tmap_traits@PAVCWebView@wke@@PAVCWkeWebkitUI@@U?$less@PAVCWebView@wke@@@std@@V?$allocator@U?$pair@QAVCWebView@wke@@PAVCWkeWebkitUI@@@std@@@5@$0A@@std@@@std@@IBEABQAVCWebView@wke@@PAU?$_Tree_node@U?$pair@QAVCWebView@wke@@PAVCWkeWebkitUI@@@std@@PAX@2@@Z 00414270 f i WkeWebkit.obj
 0001:000132b0       ?_Kfn@?$_Tree@V?$_Tmap_traits@PAVCWebView@wke@@PAVCWkeWebkitUI@@U?$less@PAVCWebView@wke@@@std@@V?$allocator@U?$pair@QAVCWebView@wke@@PAVCWkeWebkitUI@@@std@@@5@$0A@@std@@@std@@IBEABQAVCWebView@wke@@ABU?$pair@QAVCWebView@wke@@PAVCWkeWebkitUI@@@2@@Z 004142b0 f i WkeWebkit.obj
 0001:000132f0       ?_Large_string_engaged@?$_String_val@U?$_Simple_types@D@std@@@std@@QBE_NXZ 004142f0 f i WkeWebkit.obj
 0001:00013340       ?_Large_string_engaged@?$_String_val@U?$_Simple_types@_W@std@@@std@@QBE_NXZ 00414340 f i WkeWebkit.obj
 0001:00013390       ?_Lmost@?$_Tree@V?$_Tmap_traits@PAVCWebView@wke@@PAVCWkeWebkitUI@@U?$less@PAVCWebView@wke@@@std@@V?$allocator@U?$pair@QAVCWebView@wke@@PAVCWkeWebkitUI@@@std@@@5@$0A@@std@@@std@@IBEAAPAU?$_Tree_node@U?$pair@QAVCWebView@wke@@PAVCWkeWebkitUI@@@std@@PAX@2@XZ 00414390 f i WkeWebkit.obj
 0001:000133c0       ?_Lrotate@?$_Tree@V?$_Tmap_traits@PAVCWebView@wke@@PAVCWkeWebkitUI@@U?$less@PAVCWebView@wke@@@std@@V?$allocator@U?$pair@QAVCWebView@wke@@PAVCWkeWebkitUI@@@std@@@5@$0A@@std@@@std@@IAEXPAU?$_Tree_node@U?$pair@QAVCWebView@wke@@PAVCWkeWebkitUI@@@std@@PAX@2@@Z 004143c0 f i WkeWebkit.obj
 0001:000134b0       ?_Max@?$_Tree_comp_alloc@V?$_Tmap_traits@PAVCWebView@wke@@PAVCWkeWebkitUI@@U?$less@PAVCWebView@wke@@@std@@V?$allocator@U?$pair@QAVCWebView@wke@@PAVCWkeWebkitUI@@@std@@@5@$0A@@std@@@std@@SAPAU?$_Tree_node@U?$pair@QAVCWebView@wke@@PAVCWkeWebkitUI@@@std@@PAX@2@PAU32@@Z 004144b0 f i WkeWebkit.obj
 0001:000134d0       ?_Max@?$_Tree_val@U?$_Tree_simple_types@U?$pair@QAVCWebView@wke@@PAVCWkeWebkitUI@@@std@@@std@@@std@@SAPAU?$_Tree_node@U?$pair@QAVCWebView@wke@@PAVCWkeWebkitUI@@@std@@PAX@2@PAU32@@Z 004144d0 f i WkeWebkit.obj
 0001:00013500       ?_Min@?$_Tree_comp_alloc@V?$_Tmap_traits@PAVCWebView@wke@@PAVCWkeWebkitUI@@U?$less@PAVCWebView@wke@@@std@@V?$allocator@U?$pair@QAVCWebView@wke@@PAVCWkeWebkitUI@@@std@@@5@$0A@@std@@@std@@SAPAU?$_Tree_node@U?$pair@QAVCWebView@wke@@PAVCWkeWebkitUI@@@std@@PAX@2@PAU32@@Z 00414500 f i WkeWebkit.obj
 0001:00013520       ?_Min@?$_Tree_val@U?$_Tree_simple_types@U?$pair@QAVCWebView@wke@@PAVCWkeWebkitUI@@@std@@@std@@@std@@SAPAU?$_Tree_node@U?$pair@QAVCWebView@wke@@PAVCWkeWebkitUI@@@std@@PAX@2@PAU32@@Z 00414520 f i WkeWebkit.obj
 0001:00013550       ?_Myhead@?$_Tree_comp_alloc@V?$_Tmap_traits@PAVCWebView@wke@@PAVCWkeWebkitUI@@U?$less@PAVCWebView@wke@@@std@@V?$allocator@U?$pair@QAVCWebView@wke@@PAVCWkeWebkitUI@@@std@@@5@$0A@@std@@@std@@QAEAAPAU?$_Tree_node@U?$pair@QAVCWebView@wke@@PAVCWkeWebkitUI@@@std@@PAX@2@XZ 00414550 f i WkeWebkit.obj
 0001:00013580       ?_Myhead@?$_Tree_comp_alloc@V?$_Tmap_traits@PAVCWebView@wke@@PAVCWkeWebkitUI@@U?$less@PAVCWebView@wke@@@std@@V?$allocator@U?$pair@QAVCWebView@wke@@PAVCWkeWebkitUI@@@std@@@5@$0A@@std@@@std@@QBEABQAU?$_Tree_node@U?$pair@QAVCWebView@wke@@PAVCWkeWebkitUI@@@std@@PAX@2@XZ 00414580 f i WkeWebkit.obj
 0001:000135b0       ?_Mynode@?$_Tree_unchecked_const_iterator@V?$_Tree_val@U?$_Tree_simple_types@U?$pair@QAVCWebView@wke@@PAVCWkeWebkitUI@@@std@@@std@@@std@@U_Iterator_base12@2@@std@@QBEPAU?$_Tree_node@U?$pair@QAVCWebView@wke@@PAVCWkeWebkitUI@@@std@@PAX@2@XZ 004145b0 f i WkeWebkit.obj
 0001:000135d0       ?_Myproxy@?$_String_alloc@U?$_String_base_types@DV?$allocator@D@std@@@std@@@std@@QAEAAPAU_Container_proxy@2@XZ 004145d0 f i WkeWebkit.obj
 0001:00013600       ?_Myproxy@?$_String_alloc@U?$_String_base_types@_WV?$allocator@_W@std@@@std@@@std@@QAEAAPAU_Container_proxy@2@XZ 00414600 f i WkeWebkit.obj
 0001:00013630       ?_Myproxy@?$_Tree_comp_alloc@V?$_Tmap_traits@PAVCWebView@wke@@PAVCWkeWebkitUI@@U?$less@PAVCWebView@wke@@@std@@V?$allocator@U?$pair@QAVCWebView@wke@@PAVCWkeWebkitUI@@@std@@@5@$0A@@std@@@std@@QAEAAPAU_Container_proxy@2@XZ 00414630 f i WkeWebkit.obj
 0001:00013660       ?_Myptr@?$_String_val@U?$_Simple_types@D@std@@@std@@QAEPADXZ 00414660 f i WkeWebkit.obj
 0001:000136d0       ?_Myptr@?$_String_val@U?$_Simple_types@D@std@@@std@@QBEPBDXZ 004146d0 f i WkeWebkit.obj
 0001:00013740       ?_Myptr@?$_String_val@U?$_Simple_types@_W@std@@@std@@QAEPA_WXZ 00414740 f i WkeWebkit.obj
 0001:000137b0       ?_Mysize@?$_Tree_comp_alloc@V?$_Tmap_traits@PAVCWebView@wke@@PAVCWkeWebkitUI@@U?$less@PAVCWebView@wke@@@std@@V?$allocator@U?$pair@QAVCWebView@wke@@PAVCWkeWebkitUI@@@std@@@5@$0A@@std@@@std@@QAEAAIXZ 004147b0 f i WkeWebkit.obj
 0001:000137e0       ?_Mysize@?$_Tree_comp_alloc@V?$_Tmap_traits@PAVCWebView@wke@@PAVCWkeWebkitUI@@U?$less@PAVCWebView@wke@@@std@@V?$allocator@U?$pair@QAVCWebView@wke@@PAVCWkeWebkitUI@@@std@@@5@$0A@@std@@@std@@QBEABIXZ 004147e0 f i WkeWebkit.obj
 0001:00013810       ?_Orphan_all@?$_String_alloc@U?$_String_base_types@DV?$allocator@D@std@@@std@@@std@@QAEXXZ 00414810 f i WkeWebkit.obj
 0001:00013850       ?_Orphan_all@?$_String_alloc@U?$_String_base_types@_WV?$allocator@_W@std@@@std@@@std@@QAEXXZ 00414850 f i WkeWebkit.obj
 0001:00013890       ?_Orphan_all@?$_Tree_comp_alloc@V?$_Tmap_traits@PAVCWebView@wke@@PAVCWkeWebkitUI@@U?$less@PAVCWebView@wke@@@std@@V?$allocator@U?$pair@QAVCWebView@wke@@PAVCWkeWebkitUI@@@std@@@5@$0A@@std@@@std@@QAEXXZ 00414890 f i WkeWebkit.obj
 0001:000138d0       ?_Orphan_ptr@?$_Tree@V?$_Tmap_traits@PAVCWebView@wke@@PAVCWkeWebkitUI@@U?$less@PAVCWebView@wke@@@std@@V?$allocator@U?$pair@QAVCWebView@wke@@PAVCWkeWebkitUI@@@std@@@5@$0A@@std@@@std@@IAEXPAU?$_Tree_node@U?$pair@QAVCWebView@wke@@PAVCWkeWebkitUI@@@std@@PAX@2@@Z 004148d0 f i WkeWebkit.obj
 0001:00013a40       ?_Rmost@?$_Tree@V?$_Tmap_traits@PAVCWebView@wke@@PAVCWkeWebkitUI@@U?$less@PAVCWebView@wke@@@std@@V?$allocator@U?$pair@QAVCWebView@wke@@PAVCWkeWebkitUI@@@std@@@5@$0A@@std@@@std@@IBEAAPAU?$_Tree_node@U?$pair@QAVCWebView@wke@@PAVCWkeWebkitUI@@@std@@PAX@2@XZ 00414a40 f i WkeWebkit.obj
 0001:00013a80       ?_Root@?$_Tree@V?$_Tmap_traits@PAVCWebView@wke@@PAVCWkeWebkitUI@@U?$less@PAVCWebView@wke@@@std@@V?$allocator@U?$pair@QAVCWebView@wke@@PAVCWkeWebkitUI@@@std@@@5@$0A@@std@@@std@@IBEAAPAU?$_Tree_node@U?$pair@QAVCWebView@wke@@PAVCWkeWebkitUI@@@std@@PAX@2@XZ 00414a80 f i WkeWebkit.obj
 0001:00013ac0       ?_Rrotate@?$_Tree@V?$_Tmap_traits@PAVCWebView@wke@@PAVCWkeWebkitUI@@U?$less@PAVCWebView@wke@@@std@@V?$allocator@U?$pair@QAVCWebView@wke@@PAVCWkeWebkitUI@@@std@@@5@$0A@@std@@@std@@IAEXPAU?$_Tree_node@U?$pair@QAVCWebView@wke@@PAVCWkeWebkitUI@@@std@@PAX@2@@Z 00414ac0 f i WkeWebkit.obj
 0001:00013bb0       ?_Swap_all@?$_String_alloc@U?$_String_base_types@DV?$allocator@D@std@@@std@@@std@@QAEXAAV12@@Z 00414bb0 f i WkeWebkit.obj
 0001:00013c00       ?_Swap_all@?$_String_alloc@U?$_String_base_types@_WV?$allocator@_W@std@@@std@@@std@@QAEXAAV12@@Z 00414c00 f i WkeWebkit.obj
 0001:00013c50       ?_Swap_all@_Container_base12@std@@QAEXAAU12@@Z 00414c50 f i WkeWebkit.obj
 0001:00013d80       ?_Tidy@?$_Tree@V?$_Tmap_traits@PAVCWebView@wke@@PAVCWkeWebkitUI@@U?$less@PAVCWebView@wke@@@std@@V?$allocator@U?$pair@QAVCWebView@wke@@PAVCWkeWebkitUI@@@std@@@5@$0A@@std@@@std@@IAEXXZ 00414d80 f i WkeWebkit.obj
 0001:00013ea0       ?_Tidy_deallocate@?$basic_string@DU?$char_traits@D@std@@V?$allocator@D@2@@std@@QAEXXZ 00414ea0 f i WkeWebkit.obj
 0001:00013fa0       ?_Tidy_deallocate@?$basic_string@_WU?$char_traits@_W@std@@V?$allocator@_W@2@@std@@QAEXXZ 00414fa0 f i WkeWebkit.obj
 0001:000140a0       ?_Tidy_init@?$basic_string@DU?$char_traits@D@std@@V?$allocator@D@2@@std@@QAEXXZ 004150a0 f i WkeWebkit.obj
 0001:00014130       ?_Tidy_init@?$basic_string@_WU?$char_traits@_W@std@@V?$allocator@_W@2@@std@@QAEXXZ 00415130 f i WkeWebkit.obj
 0001:000141c0       ?_Xlen@?$basic_string@DU?$char_traits@D@std@@V?$allocator@D@2@@std@@SAXXZ 004151c0 f i WkeWebkit.obj
 0001:000141e0       ?_Xlen@?$basic_string@_WU?$char_traits@_W@std@@V?$allocator@_W@2@@std@@SAXXZ 004151e0 f i WkeWebkit.obj
 0001:00014200       ?allocate@?$allocator@D@std@@QAEPADI@Z 00415200 f i WkeWebkit.obj
 0001:00014240       ?allocate@?$allocator@U?$_Tree_node@U?$pair@QAVCWebView@wke@@PAVCWkeWebkitUI@@@std@@PAX@std@@@std@@QAEPAU?$_Tree_node@U?$pair@QAVCWebView@wke@@PAVCWkeWebkitUI@@@std@@PAX@2@I@Z 00415240 f i WkeWebkit.obj
 0001:00014280       ?allocate@?$allocator@_W@std@@QAEPA_WI@Z 00415280 f i WkeWebkit.obj
 0001:000142c0       ?assign@?$basic_string@DU?$char_traits@D@std@@V?$allocator@D@2@@std@@QAEAAV12@QBD@Z 004152c0 f i WkeWebkit.obj
 0001:00014310       ?assign@?$basic_string@DU?$char_traits@D@std@@V?$allocator@D@2@@std@@QAEAAV12@QBDI@Z 00415310 f i WkeWebkit.obj
 0001:000143e0       ?assign@?$basic_string@_WU?$char_traits@_W@std@@V?$allocator@_W@2@@std@@QAEAAV12@QB_W@Z 004153e0 f i WkeWebkit.obj
 0001:00014430       ?assign@?$basic_string@_WU?$char_traits@_W@std@@V?$allocator@_W@2@@std@@QAEAAV12@QB_WI@Z 00415430 f i WkeWebkit.obj
 0001:00014500       ?assign@?$char_traits@D@std@@SAXAADABD@Z 00415500 f i WkeWebkit.obj
 0001:00014520       ?assign@?$char_traits@_W@std@@SAXAA_WAB_W@Z 00415520 f i WkeWebkit.obj
 0001:00014540       ?begin@?$_Tree@V?$_Tmap_traits@PAVCWebView@wke@@PAVCWkeWebkitUI@@U?$less@PAVCWebView@wke@@@std@@V?$allocator@U?$pair@QAVCWebView@wke@@PAVCWkeWebkitUI@@@std@@@5@$0A@@std@@@std@@QAE?AV?$_Tree_iterator@V?$_Tree_val@U?$_Tree_simple_types@U?$pair@QAVCWebView@wke@@PAVCWkeWebkitUI@@@std@@@std@@@std@@@2@XZ 00415540 f i WkeWebkit.obj
 0001:000145d0       ?c_str@?$basic_string@DU?$char_traits@D@std@@V?$allocator@D@2@@std@@QBEPBDXZ 004155d0 f i WkeWebkit.obj
 0001:00014640       ?clear@?$_Tree@V?$_Tmap_traits@PAVCWebView@wke@@PAVCWkeWebkitUI@@U?$less@PAVCWebView@wke@@@std@@V?$allocator@U?$pair@QAVCWebView@wke@@PAVCWkeWebkitUI@@@std@@@5@$0A@@std@@@std@@QAEXXZ 00415640 f i WkeWebkit.obj
 0001:00014730       ?copy@?$char_traits@D@std@@SAPADQADQBDI@Z 00415730 f i WkeWebkit.obj
 0001:00014760       ?copy@?$char_traits@_W@std@@SAPA_WQA_WQB_WI@Z 00415760 f i WkeWebkit.obj
 0001:00014790       ?deallocate@?$allocator@D@std@@QAEXQADI@Z 00415790 f i WkeWebkit.obj
 0001:000147d0       ?deallocate@?$allocator@U?$_Tree_node@U?$pair@QAVCWebView@wke@@PAVCWkeWebkitUI@@@std@@PAX@std@@@std@@QAEXQAU?$_Tree_node@U?$pair@QAVCWebView@wke@@PAVCWkeWebkitUI@@@std@@PAX@2@I@Z 004157d0 f i WkeWebkit.obj
 0001:00014810       ?deallocate@?$allocator@_W@std@@QAEXQA_WI@Z 00415810 f i WkeWebkit.obj
 0001:00014850       ?end@?$_Tree@V?$_Tmap_traits@PAVCWebView@wke@@PAVCWkeWebkitUI@@U?$less@PAVCWebView@wke@@@std@@V?$allocator@U?$pair@QAVCWebView@wke@@PAVCWkeWebkitUI@@@std@@@5@$0A@@std@@@std@@QAE?AV?$_Tree_iterator@V?$_Tree_val@U?$_Tree_simple_types@U?$pair@QAVCWebView@wke@@PAVCWkeWebkitUI@@@std@@@std@@@std@@@2@XZ 00415850 f i WkeWebkit.obj
 0001:000148e0       ?erase@?$_Tree@V?$_Tmap_traits@PAVCWebView@wke@@PAVCWkeWebkitUI@@U?$less@PAVCWebView@wke@@@std@@V?$allocator@U?$pair@QAVCWebView@wke@@PAVCWkeWebkitUI@@@std@@@5@$0A@@std@@@std@@QAE?AV?$_Tree_iterator@V?$_Tree_val@U?$_Tree_simple_types@U?$pair@QAVCWebView@wke@@PAVCWkeWebkitUI@@@std@@@std@@@std@@@2@V?$_Tree_const_iterator@V?$_Tree_val@U?$_Tree_simple_types@U?$pair@QAVCWebView@wke@@PAVCWkeWebkitUI@@@std@@@std@@@std@@@2@0@Z 004158e0 f i WkeWebkit.obj
 0001:00014b70       ?erase@?$_Tree@V?$_Tmap_traits@PAVCWebView@wke@@PAVCWkeWebkitUI@@U?$less@PAVCWebView@wke@@@std@@V?$allocator@U?$pair@QAVCWebView@wke@@PAVCWkeWebkitUI@@@std@@@5@$0A@@std@@@std@@QAE?AV?$_Tree_iterator@V?$_Tree_val@U?$_Tree_simple_types@U?$pair@QAVCWebView@wke@@PAVCWkeWebkitUI@@@std@@@std@@@std@@@2@V?$_Tree_const_iterator@V?$_Tree_val@U?$_Tree_simple_types@U?$pair@QAVCWebView@wke@@PAVCWkeWebkitUI@@@std@@@std@@@std@@@2@@Z 00415b70 f i WkeWebkit.obj
 0001:00015260       ?find@?$_Tree@V?$_Tmap_traits@PAVCWebView@wke@@PAVCWkeWebkitUI@@U?$less@PAVCWebView@wke@@@std@@V?$allocator@U?$pair@QAVCWebView@wke@@PAVCWkeWebkitUI@@@std@@@5@$0A@@std@@@std@@QAE?AV?$_Tree_iterator@V?$_Tree_val@U?$_Tree_simple_types@U?$pair@QAVCWebView@wke@@PAVCWkeWebkitUI@@@std@@@std@@@std@@@2@ABQAVCWebView@wke@@@Z 00416260 f i WkeWebkit.obj
 0001:00015490       ?length@?$char_traits@D@std@@SAIQBD@Z 00416490 f i WkeWebkit.obj
 0001:000154b0       ?length@?$char_traits@_W@std@@SAIQB_W@Z 004164b0 f i WkeWebkit.obj
 0001:000154e0       ?lower_bound@?$_Tree@V?$_Tmap_traits@PAVCWebView@wke@@PAVCWkeWebkitUI@@U?$less@PAVCWebView@wke@@@std@@V?$allocator@U?$pair@QAVCWebView@wke@@PAVCWkeWebkitUI@@@std@@@5@$0A@@std@@@std@@QAE?AV?$_Tree_iterator@V?$_Tree_val@U?$_Tree_simple_types@U?$pair@QAVCWebView@wke@@PAVCWkeWebkitUI@@@std@@@std@@@std@@@2@ABQAVCWebView@wke@@@Z 004164e0 f i WkeWebkit.obj
 0001:00015560       ?max_size@?$_Default_allocator_traits@V?$allocator@D@std@@@std@@SAIABV?$allocator@D@2@@Z 00416560 f i WkeWebkit.obj
 0001:00015570       ?max_size@?$_Default_allocator_traits@V?$allocator@U?$_Tree_node@U?$pair@QAVCWebView@wke@@PAVCWkeWebkitUI@@@std@@PAX@std@@@std@@@std@@SAIABV?$allocator@U?$_Tree_node@U?$pair@QAVCWebView@wke@@PAVCWkeWebkitUI@@@std@@PAX@std@@@2@@Z 00416570 f i WkeWebkit.obj
 0001:00015580       ?max_size@?$_Default_allocator_traits@V?$allocator@_W@std@@@std@@SAIABV?$allocator@_W@2@@Z 00416580 f i WkeWebkit.obj
 0001:00015590       ?max_size@?$_Tree@V?$_Tmap_traits@PAVCWebView@wke@@PAVCWkeWebkitUI@@U?$less@PAVCWebView@wke@@@std@@V?$allocator@U?$pair@QAVCWebView@wke@@PAVCWkeWebkitUI@@@std@@@5@$0A@@std@@@std@@QBEIXZ 00416590 f i WkeWebkit.obj
 0001:000155d0       ?max_size@?$basic_string@DU?$char_traits@D@std@@V?$allocator@D@2@@std@@QBEIXZ 004165d0 f i WkeWebkit.obj
 0001:000156c0       ?max_size@?$basic_string@_WU?$char_traits@_W@std@@V?$allocator@_W@2@@std@@QBEIXZ 004166c0 f i WkeWebkit.obj
 0001:000157b0       ?move@?$char_traits@D@std@@SAPADQADQBDI@Z 004167b0 f i WkeWebkit.obj
 0001:000157e0       ?move@?$char_traits@_W@std@@SAPA_WQA_WQB_WI@Z 004167e0 f i WkeWebkit.obj
 0001:00015810       ?pointer_to@?$pointer_traits@PAU?$pair@QAVCWebView@wke@@PAVCWkeWebkitUI@@@std@@@std@@SAPAU?$pair@QAVCWebView@wke@@PAVCWkeWebkitUI@@@2@AAU32@@Z 00416810 f i WkeWebkit.obj
 0001:00015830       ?pointer_to@?$pointer_traits@PBU?$pair@QAVCWebView@wke@@PAVCWkeWebkitUI@@@std@@@std@@SAPBU?$pair@QAVCWebView@wke@@PAVCWkeWebkitUI@@@2@ABU32@@Z 00416830 f i WkeWebkit.obj
 0001:00015850       ?size@?$_Tree@V?$_Tmap_traits@PAVCWebView@wke@@PAVCWkeWebkitUI@@U?$less@PAVCWebView@wke@@@std@@V?$allocator@U?$pair@QAVCWebView@wke@@PAVCWkeWebkitUI@@@std@@@5@$0A@@std@@@std@@QBEIXZ 00416850 f i WkeWebkit.obj
 0001:00015880       _wmemcpy                   00416880 f i WkeWebkit.obj
 0001:000158b0       _wmemmove                  004168b0 f i WkeWebkit.obj
 0001:000158da       _lstrcpyW@8                004168da f   kernel32:KERNEL32.dll
 0001:000158e0       _lstrlenW@4                004168e0 f   kernel32:KERNEL32.dll
 0001:000158e6       _FreeResource@4            004168e6 f   kernel32:KERNEL32.dll
 0001:000158ec       _LoadResource@8            004168ec f   kernel32:KERNEL32.dll
 0001:000158f2       _LockResource@4            004168f2 f   kernel32:KERNEL32.dll
 0001:000158f8       _SizeofResource@8          004168f8 f   kernel32:KERNEL32.dll
 0001:000158fe       _FindResourceW@12          004168fe f   kernel32:KERNEL32.dll
 0001:00015904       _GetModuleFileNameW@12     00416904 f   kernel32:KERNEL32.dll
 0001:0001590a       _GetModuleHandleW@4        0041690a f   kernel32:KERNEL32.dll
 0001:00015910       _GetProcAddress@8          00416910 f   kernel32:KERNEL32.dll
 0001:00015916       _MultiByteToWideChar@24    00416916 f   kernel32:KERNEL32.dll
 0001:0001591c       _WideCharToMultiByte@32    0041691c f   kernel32:KERNEL32.dll
 0001:00015922       _PostQuitMessage@4         00416922 f   user32:USER32.dll
 0001:00015928       _IsZoomed@4                00416928 f   user32:USER32.dll
 0001:0001592e       _SetTimer@16               0041692e f   user32:USER32.dll
 0001:00015934       _KillTimer@8               00416934 f   user32:USER32.dll
 0001:0001593a       _CreateCompatibleDC@4      0041693a f   gdi32:GDI32.dll
 0001:00015940       _DeleteDC@4                00416940 f   gdi32:GDI32.dll
 0001:00015946       _DeleteObject@4            00416946 f   gdi32:GDI32.dll
 0001:0001594c       _SelectObject@8            0041694c f   gdi32:GDI32.dll
 0001:00015952       _CreateDIBSection@24       00416952 f   gdi32:GDI32.dll
 0001:00015958       _ShellExecuteW@24          00416958 f   shell32:SHELL32.dll
 0001:0001595e       _OleInitialize@4           0041695e f   ole32:ole32.dll
 0001:00015964       _OleUninitialize@0         00416964 f   ole32:ole32.dll
 0001:0001596a       _CoUninitialize@0          0041696a f   ole32:ole32.dll
 0001:00015970       _CoInitialize@4            00416970 f   ole32:ole32.dll
 0001:00015976       ??0CDuiString@DuiLib@@QAE@XZ 00416976 f   DuiLib_d:DuiLib_d.dll
 0001:0001597c       ??0CDuiString@DuiLib@@QAE@PB_WH@Z 0041697c f   DuiLib_d:DuiLib_d.dll
 0001:00015982       ??1CDuiString@DuiLib@@QAE@XZ 00416982 f   DuiLib_d:DuiLib_d.dll
 0001:00015988       ?IsEmpty@CDuiString@DuiLib@@QBE_NXZ 00416988 f   DuiLib_d:DuiLib_d.dll
 0001:0001598e       ?GetData@CDuiString@DuiLib@@QBEPB_WXZ 0041698e f   DuiLib_d:DuiLib_d.dll
 0001:00015994       ??BCDuiString@DuiLib@@QBEPB_WXZ 00416994 f   DuiLib_d:DuiLib_d.dll
 0001:0001599a       ?CompareNoCase@CDuiString@DuiLib@@QBEHPB_W@Z 0041699a f   DuiLib_d:DuiLib_d.dll
 0001:000159a0       ?MakeLower@CDuiString@DuiLib@@QAEXXZ 004169a0 f   DuiLib_d:DuiLib_d.dll
 0001:000159a6       ?Format@CDuiString@DuiLib@@QAAHPB_WZZ 004169a6 f   DuiLib_d:DuiLib_d.dll
 0001:000159ac       ?FindControl@CPaintManagerUI@DuiLib@@QBEPAVCControlUI@2@PB_W@Z 004169ac f   DuiLib_d:DuiLib_d.dll
 0001:000159b2       ??BCWindowWnd@DuiLib@@QBEPAUHWND__@@XZ 004169b2 f   DuiLib_d:DuiLib_d.dll
 0001:000159b8       ?SendMessageW@CWindowWnd@DuiLib@@QAEJIIJ@Z 004169b8 f   DuiLib_d:DuiLib_d.dll
 0001:000159be       ?HandleMessage@CWindowWnd@DuiLib@@MAEJIIJ@Z 004169be f   DuiLib_d:DuiLib_d.dll
 0001:000159c4       ??0WindowImplBase@DuiLib@@QAE@XZ 004169c4 f   DuiLib_d:DuiLib_d.dll
 0001:000159ca       ??1WindowImplBase@DuiLib@@UAE@XZ 004169ca f   DuiLib_d:DuiLib_d.dll
 0001:000159d0       ?OnFinalMessage@WindowImplBase@DuiLib@@UAEXPAUHWND__@@@Z 004169d0 f   DuiLib_d:DuiLib_d.dll
 0001:000159d6       ?GetCurSel@CTabLayoutUI@DuiLib@@QBEHXZ 004169d6 f   DuiLib_d:DuiLib_d.dll
 0001:000159dc       ?Activate@COptionUI@DuiLib@@UAE_NXZ 004169dc f   DuiLib_d:DuiLib_d.dll
 0001:000159e2       ?CreateControl@WindowImplBase@DuiLib@@UAEPAVCControlUI@2@PB_W@Z 004169e2 f   DuiLib_d:DuiLib_d.dll
 0001:000159e8       ?EstimateSize@CLabelUI@DuiLib@@UAE?AUtagSIZE@@U3@@Z 004169e8 f   DuiLib_d:DuiLib_d.dll
 0001:000159ee       ?Event@CControlUI@DuiLib@@UAEXAAUtagTEventUI@2@@Z 004169ee f   DuiLib_d:DuiLib_d.dll
 0001:000159f4       ?FindControl@CControlUI@DuiLib@@UAEPAV12@P6GPAV12@PAV12@PAX@Z1I@Z 004169f4 f   DuiLib_d:DuiLib_d.dll
 0001:000159fa       ?GetAutoCalcWidth@CLabelUI@DuiLib@@UBE_NXZ 004169fa f   DuiLib_d:DuiLib_d.dll
 0001:00015a00       ?GetClassStyle@WindowImplBase@DuiLib@@UBEIXZ 00416a00 f   DuiLib_d:DuiLib_d.dll
 0001:00015a06       ?GetClientPos@CControlUI@DuiLib@@UBE?AUtagRECT@@XZ 00416a06 f   DuiLib_d:DuiLib_d.dll
 0001:00015a0c       ?GetControlFlags@CButtonUI@DuiLib@@UBEIXZ 00416a0c f   DuiLib_d:DuiLib_d.dll
 0001:00015a12       ?GetCursor@CControlUI@DuiLib@@UAEGXZ 00416a12 f   DuiLib_d:DuiLib_d.dll
 0001:00015a18       ?GetDisabledImage@CButtonUI@DuiLib@@UAEPB_WXZ 00416a18 f   DuiLib_d:DuiLib_d.dll
 0001:00015a1e       ?GetFixedHeight@CControlUI@DuiLib@@UBEHXZ 00416a1e f   DuiLib_d:DuiLib_d.dll
 0001:00015a24       ?GetFixedWidth@CControlUI@DuiLib@@UBEHXZ 00416a24 f   DuiLib_d:DuiLib_d.dll
 0001:00015a2a       ?GetFixedXY@CControlUI@DuiLib@@UBE?AUtagSIZE@@XZ 00416a2a f   DuiLib_d:DuiLib_d.dll
 0001:00015a30       ?GetFloatAlign@CControlUI@DuiLib@@UBEIXZ 00416a30 f   DuiLib_d:DuiLib_d.dll
 0001:00015a36       ?GetFloatPercent@CControlUI@DuiLib@@UBE?AUtagTPercentInfo@2@XZ 00416a36 f   DuiLib_d:DuiLib_d.dll
 0001:00015a3c       ?GetFocusedImage@CButtonUI@DuiLib@@UAEPB_WXZ 00416a3c f   DuiLib_d:DuiLib_d.dll
 0001:00015a42       ?GetHeight@CControlUI@DuiLib@@UBEHXZ 00416a42 f   DuiLib_d:DuiLib_d.dll
 0001:00015a48       ?GetHotForeImage@CButtonUI@DuiLib@@UAEPB_WXZ 00416a48 f   DuiLib_d:DuiLib_d.dll
 0001:00015a4e       ?GetHotImage@CButtonUI@DuiLib@@UAEPB_WXZ 00416a4e f   DuiLib_d:DuiLib_d.dll
 0001:00015a54       ?GetManager@CControlUI@DuiLib@@UBEPAVCPaintManagerUI@2@XZ 00416a54 f   DuiLib_d:DuiLib_d.dll
 0001:00015a5a       ?GetManagerName@WindowImplBase@DuiLib@@MAEPB_WXZ 00416a5a f   DuiLib_d:DuiLib_d.dll
 0001:00015a60       ?GetMaxHeight@CControlUI@DuiLib@@UBEHXZ 00416a60 f   DuiLib_d:DuiLib_d.dll
 0001:00015a66       ?GetMaxWidth@CControlUI@DuiLib@@UBEHXZ 00416a66 f   DuiLib_d:DuiLib_d.dll
 0001:00015a6c       ?GetMinHeight@CControlUI@DuiLib@@UBEHXZ 00416a6c f   DuiLib_d:DuiLib_d.dll
 0001:00015a72       ?GetMinWidth@CControlUI@DuiLib@@UBEHXZ 00416a72 f   DuiLib_d:DuiLib_d.dll
 0001:00015a78       ?GetName@CControlUI@DuiLib@@UBE?AVCDuiString@2@XZ 00416a78 f   DuiLib_d:DuiLib_d.dll
 0001:00015a7e       ?GetNormalImage@CButtonUI@DuiLib@@UAEPB_WXZ 00416a7e f   DuiLib_d:DuiLib_d.dll
 0001:00015a84       ?GetPadding@CControlUI@DuiLib@@UBE?AUtagRECT@@XZ 00416a84 f   DuiLib_d:DuiLib_d.dll
 0001:00015a8a       ?GetParent@CControlUI@DuiLib@@UBEPAV12@XZ 00416a8a f   DuiLib_d:DuiLib_d.dll
 0001:00015a90       ?GetPos@CControlUI@DuiLib@@UBEABUtagRECT@@XZ 00416a90 f   DuiLib_d:DuiLib_d.dll
 0001:00015a96       ?GetPushedImage@CButtonUI@DuiLib@@UAEPB_WXZ 00416a96 f   DuiLib_d:DuiLib_d.dll
 0001:00015a9c       ?GetRelativePos@CControlUI@DuiLib@@UBE?AUtagRECT@@XZ 00416a9c f   DuiLib_d:DuiLib_d.dll
 0001:00015aa2       ?GetSelectedStateImage@COptionUI@DuiLib@@UAEPB_WXZ 00416aa2 f   DuiLib_d:DuiLib_d.dll
 0001:00015aa8       ?GetShortcut@CControlUI@DuiLib@@UBE_WXZ 00416aa8 f   DuiLib_d:DuiLib_d.dll
 0001:00015aae       ?GetSkinType@WindowImplBase@DuiLib@@MAE?AVCDuiString@2@XZ 00416aae f   DuiLib_d:DuiLib_d.dll
 0001:00015ab4       ?GetStateImage@CButtonUI@DuiLib@@UAEPB_WXZ 00416ab4 f   DuiLib_d:DuiLib_d.dll
 0001:00015aba       ?GetStyle@WindowImplBase@DuiLib@@UAEJXZ 00416aba f   DuiLib_d:DuiLib_d.dll
 0001:00015ac0       ?GetSuperClassName@CWindowWnd@DuiLib@@MBEPB_WXZ 00416ac0 f   DuiLib_d:DuiLib_d.dll
 0001:00015ac6       ?GetTag@CControlUI@DuiLib@@UBEIXZ 00416ac6 f   DuiLib_d:DuiLib_d.dll
 0001:00015acc       ?GetText@CControlUI@DuiLib@@UBE?AVCDuiString@2@XZ 00416acc f   DuiLib_d:DuiLib_d.dll
 0001:00015ad2       ?GetToolTip@CControlUI@DuiLib@@UBE?AVCDuiString@2@XZ 00416ad2 f   DuiLib_d:DuiLib_d.dll
 0001:00015ad8       ?GetToolTipWidth@CControlUI@DuiLib@@UAEHXZ 00416ad8 f   DuiLib_d:DuiLib_d.dll
 0001:00015ade       ?GetUserData@CControlUI@DuiLib@@UAEABVCDuiString@2@XZ 00416ade f   DuiLib_d:DuiLib_d.dll
 0001:00015ae4       ?GetWidth@CControlUI@DuiLib@@UBEHXZ 00416ae4 f   DuiLib_d:DuiLib_d.dll
 0001:00015aea       ?GetX@CControlUI@DuiLib@@UBEHXZ 00416aea f   DuiLib_d:DuiLib_d.dll
 0001:00015af0       ?GetY@CControlUI@DuiLib@@UBEHXZ 00416af0 f   DuiLib_d:DuiLib_d.dll
 0001:00015af6       ?HandleMessage@WindowImplBase@DuiLib@@UAEJIIJ@Z 00416af6 f   DuiLib_d:DuiLib_d.dll
 0001:00015afc       ?Init@CControlUI@DuiLib@@UAEXXZ 00416afc f   DuiLib_d:DuiLib_d.dll
 0001:00015b02       ?InitResource@WindowImplBase@DuiLib@@UAEXXZ 00416b02 f   DuiLib_d:DuiLib_d.dll
 0001:00015b08       ?IsContextMenuUsed@CControlUI@DuiLib@@UBE_NXZ 00416b08 f   DuiLib_d:DuiLib_d.dll
 0001:00015b0e       ?IsDragEnabled@CControlUI@DuiLib@@UBE_NXZ 00416b0e f   DuiLib_d:DuiLib_d.dll
 0001:00015b14       ?IsDropEnabled@CControlUI@DuiLib@@UBE_NXZ 00416b14 f   DuiLib_d:DuiLib_d.dll
 0001:00015b1a       ?IsEnabled@CControlUI@DuiLib@@UBE_NXZ 00416b1a f   DuiLib_d:DuiLib_d.dll
 0001:00015b20       ?IsFloat@CControlUI@DuiLib@@UBE_NXZ 00416b20 f   DuiLib_d:DuiLib_d.dll
 0001:00015b26       ?IsFocused@CControlUI@DuiLib@@UBE_NXZ 00416b26 f   DuiLib_d:DuiLib_d.dll
 0001:00015b2c       ?IsKeyboardEnabled@CControlUI@DuiLib@@UBE_NXZ 00416b2c f   DuiLib_d:DuiLib_d.dll
 0001:00015b32       ?IsMouseEnabled@CControlUI@DuiLib@@UBE_NXZ 00416b32 f   DuiLib_d:DuiLib_d.dll
 0001:00015b38       ?IsResourceText@CControlUI@DuiLib@@UBE_NXZ 00416b38 f   DuiLib_d:DuiLib_d.dll
 0001:00015b3e       ?IsVisible@CControlUI@DuiLib@@UBE_NXZ 00416b3e f   DuiLib_d:DuiLib_d.dll
 0001:00015b44       ?MessageHandler@WindowImplBase@DuiLib@@UAEJIIJAA_N@Z 00416b44 f   DuiLib_d:DuiLib_d.dll
 0001:00015b4a       ?Move@CControlUI@DuiLib@@UAEXUtagSIZE@@_N@Z 00416b4a f   DuiLib_d:DuiLib_d.dll
 0001:00015b50       ?Notify@WindowImplBase@DuiLib@@UAEXAAUtagTNotifyUI@2@@Z 00416b50 f   DuiLib_d:DuiLib_d.dll
 0001:00015b56       ?OnChar@WindowImplBase@DuiLib@@UAEJIIJAAH@Z 00416b56 f   DuiLib_d:DuiLib_d.dll
 0001:00015b5c       ?OnClose@WindowImplBase@DuiLib@@UAEJIIJAAH@Z 00416b5c f   DuiLib_d:DuiLib_d.dll
 0001:00015b62       ?OnCreate@WindowImplBase@DuiLib@@UAEJIIJAAH@Z 00416b62 f   DuiLib_d:DuiLib_d.dll
 0001:00015b68       ?OnDestroy@WindowImplBase@DuiLib@@UAEJIIJAAH@Z 00416b68 f   DuiLib_d:DuiLib_d.dll
 0001:00015b6e       ?OnGetMinMaxInfo@WindowImplBase@DuiLib@@UAEJIIJAAH@Z 00416b6e f   DuiLib_d:DuiLib_d.dll
 0001:00015b74       ?OnKeyDown@WindowImplBase@DuiLib@@UAEJIIJAAH@Z 00416b74 f   DuiLib_d:DuiLib_d.dll
 0001:00015b7a       ?OnKillFocus@WindowImplBase@DuiLib@@UAEJIIJAAH@Z 00416b7a f   DuiLib_d:DuiLib_d.dll
 0001:00015b80       ?OnLButtonDown@WindowImplBase@DuiLib@@UAEJIIJAAH@Z 00416b80 f   DuiLib_d:DuiLib_d.dll
 0001:00015b86       ?OnLButtonUp@WindowImplBase@DuiLib@@UAEJIIJAAH@Z 00416b86 f   DuiLib_d:DuiLib_d.dll
 0001:00015b8c       ?OnMouseHover@WindowImplBase@DuiLib@@UAEJIIJAAH@Z 00416b8c f   DuiLib_d:DuiLib_d.dll
 0001:00015b92       ?OnMouseMove@WindowImplBase@DuiLib@@UAEJIIJAAH@Z 00416b92 f   DuiLib_d:DuiLib_d.dll
 0001:00015b98       ?OnMouseWheel@WindowImplBase@DuiLib@@UAEJIIJAAH@Z 00416b98 f   DuiLib_d:DuiLib_d.dll
 0001:00015b9e       ?OnNcActivate@WindowImplBase@DuiLib@@UAEJIIJAAH@Z 00416b9e f   DuiLib_d:DuiLib_d.dll
 0001:00015ba4       ?OnNcCalcSize@WindowImplBase@DuiLib@@UAEJIIJAAH@Z 00416ba4 f   DuiLib_d:DuiLib_d.dll
 0001:00015baa       ?OnNcHitTest@WindowImplBase@DuiLib@@UAEJIIJAAH@Z 00416baa f   DuiLib_d:DuiLib_d.dll
 0001:00015bb0       ?OnNcPaint@WindowImplBase@DuiLib@@UAEJIIJAAH@Z 00416bb0 f   DuiLib_d:DuiLib_d.dll
 0001:00015bb6       ?OnSetFocus@WindowImplBase@DuiLib@@UAEJIIJAAH@Z 00416bb6 f   DuiLib_d:DuiLib_d.dll
 0001:00015bbc       ?OnSize@WindowImplBase@DuiLib@@UAEJIIJAAH@Z 00416bbc f   DuiLib_d:DuiLib_d.dll
 0001:00015bc2       ?PaintBkColor@COptionUI@DuiLib@@UAEXPAUHDC__@@@Z 00416bc2 f   DuiLib_d:DuiLib_d.dll
 0001:00015bc8       ?PaintBkImage@CControlUI@DuiLib@@UAEXPAUHDC__@@@Z 00416bc8 f   DuiLib_d:DuiLib_d.dll
 0001:00015bce       ?PaintBorder@CControlUI@DuiLib@@UAEXPAUHDC__@@@Z 00416bce f   DuiLib_d:DuiLib_d.dll
 0001:00015bd4       ?PaintForeColor@CControlUI@DuiLib@@UAEXPAUHDC__@@@Z 00416bd4 f   DuiLib_d:DuiLib_d.dll
 0001:00015bda       ?PaintForeImage@COptionUI@DuiLib@@UAEXPAUHDC__@@@Z 00416bda f   DuiLib_d:DuiLib_d.dll
 0001:00015be0       ?PaintText@COptionUI@DuiLib@@UAEXPAUHDC__@@@Z 00416be0 f   DuiLib_d:DuiLib_d.dll
 0001:00015be6       ?QueryControlText@WindowImplBase@DuiLib@@UAEPB_WPB_W0@Z 00416be6 f   DuiLib_d:DuiLib_d.dll
 0001:00015bec       ?ResponseDefaultKeyEvent@WindowImplBase@DuiLib@@MAEJI@Z 00416bec f   DuiLib_d:DuiLib_d.dll
 0001:00015bf2       ?Selected@COptionUI@DuiLib@@UAEX_N@Z 00416bf2 f   DuiLib_d:DuiLib_d.dll
 0001:00015bf8       ?SetAutoCalcWidth@CLabelUI@DuiLib@@UAEX_N@Z 00416bf8 f   DuiLib_d:DuiLib_d.dll
 0001:00015bfe       ?SetContextMenuUsed@CControlUI@DuiLib@@UAEX_N@Z 00416bfe f   DuiLib_d:DuiLib_d.dll
 0001:00015c04       ?SetCursor@CControlUI@DuiLib@@UAEXG@Z 00416c04 f   DuiLib_d:DuiLib_d.dll
 0001:00015c0a       ?SetDisabledImage@CButtonUI@DuiLib@@UAEXPB_W@Z 00416c0a f   DuiLib_d:DuiLib_d.dll
 0001:00015c10       ?SetDragEnable@CControlUI@DuiLib@@UAEX_N@Z 00416c10 f   DuiLib_d:DuiLib_d.dll
 0001:00015c16       ?SetDropEnable@CControlUI@DuiLib@@UAEX_N@Z 00416c16 f   DuiLib_d:DuiLib_d.dll
 0001:00015c1c       ?SetEnabled@COptionUI@DuiLib@@UAEX_N@Z 00416c1c f   DuiLib_d:DuiLib_d.dll
 0001:00015c22       ?SetFixedHeight@CControlUI@DuiLib@@UAEXH@Z 00416c22 f   DuiLib_d:DuiLib_d.dll
 0001:00015c28       ?SetFixedWidth@CControlUI@DuiLib@@UAEXH@Z 00416c28 f   DuiLib_d:DuiLib_d.dll
 0001:00015c2e       ?SetFixedXY@CControlUI@DuiLib@@UAEXUtagSIZE@@@Z 00416c2e f   DuiLib_d:DuiLib_d.dll
 0001:00015c34       ?SetFloat@CControlUI@DuiLib@@UAEX_N@Z 00416c34 f   DuiLib_d:DuiLib_d.dll
 0001:00015c3a       ?SetFloatAlign@CControlUI@DuiLib@@UAEXI@Z 00416c3a f   DuiLib_d:DuiLib_d.dll
 0001:00015c40       ?SetFloatPercent@CControlUI@DuiLib@@UAEXUtagTPercentInfo@2@@Z 00416c40 f   DuiLib_d:DuiLib_d.dll
 0001:00015c46       ?SetFocus@CControlUI@DuiLib@@UAEXXZ 00416c46 f   DuiLib_d:DuiLib_d.dll
 0001:00015c4c       ?SetFocusedImage@CButtonUI@DuiLib@@UAEXPB_W@Z 00416c4c f   DuiLib_d:DuiLib_d.dll
 0001:00015c52       ?SetHotForeImage@CButtonUI@DuiLib@@UAEXPB_W@Z 00416c52 f   DuiLib_d:DuiLib_d.dll
 0001:00015c58       ?SetHotImage@CButtonUI@DuiLib@@UAEXPB_W@Z 00416c58 f   DuiLib_d:DuiLib_d.dll
 0001:00015c5e       ?SetInternVisible@CControlUI@DuiLib@@UAEX_N@Z 00416c5e f   DuiLib_d:DuiLib_d.dll
 0001:00015c64       ?SetKeyboardEnabled@CControlUI@DuiLib@@UAEX_N@Z 00416c64 f   DuiLib_d:DuiLib_d.dll
 0001:00015c6a       ?SetManager@COptionUI@DuiLib@@UAEXPAVCPaintManagerUI@2@PAVCControlUI@2@_N@Z 00416c6a f   DuiLib_d:DuiLib_d.dll
 0001:00015c70       ?SetMaxHeight@CControlUI@DuiLib@@UAEXH@Z 00416c70 f   DuiLib_d:DuiLib_d.dll
 0001:00015c76       ?SetMaxWidth@CControlUI@DuiLib@@UAEXH@Z 00416c76 f   DuiLib_d:DuiLib_d.dll
 0001:00015c7c       ?SetMinHeight@CControlUI@DuiLib@@UAEXH@Z 00416c7c f   DuiLib_d:DuiLib_d.dll
 0001:00015c82       ?SetMinWidth@CControlUI@DuiLib@@UAEXH@Z 00416c82 f   DuiLib_d:DuiLib_d.dll
 0001:00015c88       ?SetMouseEnabled@CControlUI@DuiLib@@UAEX_N@Z 00416c88 f   DuiLib_d:DuiLib_d.dll
 0001:00015c8e       ?SetName@CControlUI@DuiLib@@UAEXPB_W@Z 00416c8e f   DuiLib_d:DuiLib_d.dll
 0001:00015c94       ?SetNormalImage@CButtonUI@DuiLib@@UAEXPB_W@Z 00416c94 f   DuiLib_d:DuiLib_d.dll
 0001:00015c9a       ?SetPadding@CControlUI@DuiLib@@UAEXUtagRECT@@@Z 00416c9a f   DuiLib_d:DuiLib_d.dll
 0001:00015ca0       ?SetPos@CControlUI@DuiLib@@UAEXUtagRECT@@_N@Z 00416ca0 f   DuiLib_d:DuiLib_d.dll
 0001:00015ca6       ?SetPushedImage@CButtonUI@DuiLib@@UAEXPB_W@Z 00416ca6 f   DuiLib_d:DuiLib_d.dll
 0001:00015cac       ?SetResourceText@CControlUI@DuiLib@@UAEX_N@Z 00416cac f   DuiLib_d:DuiLib_d.dll
 0001:00015cb2       ?SetSelectedStateImage@COptionUI@DuiLib@@UAEXPB_W@Z 00416cb2 f   DuiLib_d:DuiLib_d.dll
 0001:00015cb8       ?SetShortcut@CControlUI@DuiLib@@UAEX_W@Z 00416cb8 f   DuiLib_d:DuiLib_d.dll
 0001:00015cbe       ?SetStateImage@CButtonUI@DuiLib@@UAEXPB_W@Z 00416cbe f   DuiLib_d:DuiLib_d.dll
 0001:00015cc4       ?SetTag@CControlUI@DuiLib@@UAEXI@Z 00416cc4 f   DuiLib_d:DuiLib_d.dll
 0001:00015cca       ?SetText@CLabelUI@DuiLib@@UAEXPB_W@Z 00416cca f   DuiLib_d:DuiLib_d.dll
 0001:00015cd0       ?SetToolTip@CControlUI@DuiLib@@UAEXPB_W@Z 00416cd0 f   DuiLib_d:DuiLib_d.dll
 0001:00015cd6       ?SetToolTipWidth@CControlUI@DuiLib@@UAEXH@Z 00416cd6 f   DuiLib_d:DuiLib_d.dll
 0001:00015cdc       ?SetUserData@CControlUI@DuiLib@@UAEXPB_W@Z 00416cdc f   DuiLib_d:DuiLib_d.dll
 0001:00015ce2       ?SetVisible@CControlUI@DuiLib@@UAEX_N@Z 00416ce2 f   DuiLib_d:DuiLib_d.dll
 0001:00015ce8       ?Close@CWindowWnd@DuiLib@@QAEXI@Z 00416ce8 f   DuiLib_d:DuiLib_d.dll
 0001:00015cee       ??0STRINGorID@DuiLib@@QAE@PB_W@Z 00416cee f   DuiLib_d:DuiLib_d.dll
 0001:00015cf4       ??YCDuiString@DuiLib@@QAEABV01@PB_W@Z 00416cf4 f   DuiLib_d:DuiLib_d.dll
 0001:00015cfa       ?GetInstance@CResourceManager@DuiLib@@SAPAV12@XZ 00416cfa f   DuiLib_d:DuiLib_d.dll
 0001:00015d00       ?Release@CResourceManager@DuiLib@@QAEXXZ 00416d00 f   DuiLib_d:DuiLib_d.dll
 0001:00015d06       ?LoadResource@CResourceManager@DuiLib@@QAEHVSTRINGorID@2@PB_W@Z 00416d06 f   DuiLib_d:DuiLib_d.dll
 0001:00015d0c       ?GetInstancePath@CPaintManagerUI@DuiLib@@SA?AVCDuiString@2@XZ 00416d0c f   DuiLib_d:DuiLib_d.dll
 0001:00015d12       ?GetResourceDll@CPaintManagerUI@DuiLib@@SAPAUHINSTANCE__@@XZ 00416d12 f   DuiLib_d:DuiLib_d.dll
 0001:00015d18       ?SetInstance@CPaintManagerUI@DuiLib@@SAXPAUHINSTANCE__@@@Z 00416d18 f   DuiLib_d:DuiLib_d.dll
 0001:00015d1e       ?SetResourcePath@CPaintManagerUI@DuiLib@@SAXPB_W@Z 00416d1e f   DuiLib_d:DuiLib_d.dll
 0001:00015d24       ?SetResourceZip@CPaintManagerUI@DuiLib@@SAXPAXIPB_W@Z 00416d24 f   DuiLib_d:DuiLib_d.dll
 0001:00015d2a       ?SetResourceZip@CPaintManagerUI@DuiLib@@SAXPB_W_N0@Z 00416d2a f   DuiLib_d:DuiLib_d.dll
 0001:00015d30       ?SetResourceType@CPaintManagerUI@DuiLib@@SAXH@Z 00416d30 f   DuiLib_d:DuiLib_d.dll
 0001:00015d36       ?GetResourceType@CPaintManagerUI@DuiLib@@SAHXZ 00416d36 f   DuiLib_d:DuiLib_d.dll
 0001:00015d3c       ?LoadPlugin@CPaintManagerUI@DuiLib@@SA_NPB_W@Z 00416d3c f   DuiLib_d:DuiLib_d.dll
 0001:00015d42       ?MessageLoop@CPaintManagerUI@DuiLib@@SAXXZ 00416d42 f   DuiLib_d:DuiLib_d.dll
 0001:00015d48       ?Create@CWindowWnd@DuiLib@@QAEPAUHWND__@@PAU3@PB_WKKHHHHPAUHMENU__@@@Z 00416d48 f   DuiLib_d:DuiLib_d.dll
 0001:00015d4e       ?CenterWindow@CWindowWnd@DuiLib@@QAEXXZ 00416d4e f   DuiLib_d:DuiLib_d.dll
 0001:00015d54       ?KillTimer@CPaintManagerUI@DuiLib@@QAE_NPAVCControlUI@2@I@Z 00416d54 f   DuiLib_d:DuiLib_d.dll
 0001:00015d5a       ??0CControlUI@DuiLib@@QAE@XZ 00416d5a f   DuiLib_d:DuiLib_d.dll
 0001:00015d60       ??1CControlUI@DuiLib@@UAE@XZ 00416d60 f   DuiLib_d:DuiLib_d.dll
 0001:00015d66       ?GetInterface@CControlUI@DuiLib@@UAEPAXPB_W@Z 00416d66 f   DuiLib_d:DuiLib_d.dll
 0001:00015d6c       ?SetTimer@CControlUI@DuiLib@@QAE_NII@Z 00416d6c f   DuiLib_d:DuiLib_d.dll
 0001:00015d72       ?Invalidate@CControlUI@DuiLib@@QAEXXZ 00416d72 f   DuiLib_d:DuiLib_d.dll
 0001:00015d78       ?DoInit@CControlUI@DuiLib@@UAEXXZ 00416d78 f   DuiLib_d:DuiLib_d.dll
 0001:00015d7e       ?DoEvent@CControlUI@DuiLib@@UAEXAAUtagTEventUI@2@@Z 00416d7e f   DuiLib_d:DuiLib_d.dll
 0001:00015d84       ?DoPaint@CControlUI@DuiLib@@UAEXPAUHDC__@@ABUtagRECT@@@Z 00416d84 f   DuiLib_d:DuiLib_d.dll
 0001:00015d8a       ?Activate@CControlUI@DuiLib@@UAE_NXZ 00416d8a f   DuiLib_d:DuiLib_d.dll
 0001:00015d90       ?DoPostPaint@CControlUI@DuiLib@@UAEXPAUHDC__@@ABUtagRECT@@@Z 00416d90 f   DuiLib_d:DuiLib_d.dll
 0001:00015d96       ?EstimateSize@CControlUI@DuiLib@@UAE?AUtagSIZE@@U3@@Z 00416d96 f   DuiLib_d:DuiLib_d.dll
 0001:00015d9c       ?GetControlFlags@CControlUI@DuiLib@@UBEIXZ 00416d9c f   DuiLib_d:DuiLib_d.dll
 0001:00015da2       ?PaintBkColor@CControlUI@DuiLib@@UAEXPAUHDC__@@@Z 00416da2 f   DuiLib_d:DuiLib_d.dll
 0001:00015da8       ?PaintForeImage@CControlUI@DuiLib@@UAEXPAUHDC__@@@Z 00416da8 f   DuiLib_d:DuiLib_d.dll
 0001:00015dae       ?PaintStatusImage@CControlUI@DuiLib@@UAEXPAUHDC__@@@Z 00416dae f   DuiLib_d:DuiLib_d.dll
 0001:00015db4       ?PaintText@CControlUI@DuiLib@@UAEXPAUHDC__@@@Z 00416db4 f   DuiLib_d:DuiLib_d.dll
 0001:00015dba       ?SetAttribute@CControlUI@DuiLib@@UAEXPB_W0@Z 00416dba f   DuiLib_d:DuiLib_d.dll
 0001:00015dc0       ?SetEnabled@CControlUI@DuiLib@@UAEX_N@Z 00416dc0 f   DuiLib_d:DuiLib_d.dll
 0001:00015dc6       ?SetManager@CControlUI@DuiLib@@UAEXPAVCPaintManagerUI@2@PAV12@_N@Z 00416dc6 f   DuiLib_d:DuiLib_d.dll
 0001:00015dcc       ?SetText@CControlUI@DuiLib@@UAEXPB_W@Z 00416dcc f   DuiLib_d:DuiLib_d.dll
 0001:00015dd2       ??0_Lockit@std@@QAE@H@Z    00416dd2 f   msvcprtd:MSVCP140D.dll
 0001:00015dd8       ??1_Lockit@std@@QAE@XZ     00416dd8 f   msvcprtd:MSVCP140D.dll
 0001:00015dde       ?_Debug_message@std@@YAXPB_W0I@Z 00416dde f   msvcprtd:MSVCP140D.dll
 0001:00015de4       ?_Xbad_alloc@std@@YAXXZ    00416de4 f   msvcprtd:MSVCP140D.dll
 0001:00015dea       ?_Xlength_error@std@@YAXPBD@Z 00416dea f   msvcprtd:MSVCP140D.dll
 0001:00015df0       ??0CBrowserTab@@QAE@XZ     00416df0 f   TroyControls_d:TroyControls_d.dll
 0001:00015df6       ??1CBrowserTab@@UAE@XZ     00416df6 f   TroyControls_d:TroyControls_d.dll
 0001:00015dfc       ?SelectTab@CBrowserTabBar@@QAEXH@Z 00416dfc f   TroyControls_d:TroyControls_d.dll
 0001:00015e02       ?CloseTab@CBrowserTabBar@@QAEXPAVCBrowserTab@@H@Z 00416e02 f   TroyControls_d:TroyControls_d.dll
 0001:00015e08       ?DoEvent@CBrowserTab@@UAEXAAUtagTEventUI@DuiLib@@@Z 00416e08 f   TroyControls_d:TroyControls_d.dll
 0001:00015e0e       ?DoInit@CBrowserTab@@UAEXXZ 00416e0e f   TroyControls_d:TroyControls_d.dll
 0001:00015e14       ?DoPaint@CBrowserTab@@UAEXPAUHDC__@@ABUtagRECT@@@Z 00416e14 f   TroyControls_d:TroyControls_d.dll
 0001:00015e1a       ?DoPostPaint@CBrowserTab@@UAEXPAUHDC__@@ABUtagRECT@@@Z 00416e1a f   TroyControls_d:TroyControls_d.dll
 0001:00015e20       ?GetClass@CBrowserTab@@UBEPB_WXZ 00416e20 f   TroyControls_d:TroyControls_d.dll
 0001:00015e26       ?GetInterface@CBrowserTab@@UAEPAXPB_W@Z 00416e26 f   TroyControls_d:TroyControls_d.dll
 0001:00015e2c       ?PaintStatusImage@CBrowserTab@@UAEXPAUHDC__@@@Z 00416e2c f   TroyControls_d:TroyControls_d.dll
 0001:00015e32       ?SetAttribute@CBrowserTab@@UAEXPB_W0@Z 00416e32 f   TroyControls_d:TroyControls_d.dll
 0001:00015e38       _wkeGetStringW             00416e38 f   wke:wke.dll
 0001:00015e3e       _wkeInitialize             00416e3e f   wke:wke.dll
 0001:00015e44       _wkeFinalize               00416e44 f   wke:wke.dll
 0001:00015e4a       _wkeCreateWebView          00416e4a f   wke:wke.dll
 0001:00015e50       _wkeDestroyWebView         00416e50 f   wke:wke.dll
 0001:00015e56       _wkeSetName                00416e56 f   wke:wke.dll
 0001:00015e5c       _wkeSetTransparent         00416e5c f   wke:wke.dll
 0001:00015e62       _wkeSetUserAgent           00416e62 f   wke:wke.dll
 0001:00015e68       _wkeLoadHTMLW              00416e68 f   wke:wke.dll
 0001:00015e6e       _wkeLoadW                  00416e6e f   wke:wke.dll
 0001:00015e74       _wkeStopLoading            00416e74 f   wke:wke.dll
 0001:00015e7a       _wkeReload                 00416e7a f   wke:wke.dll
 0001:00015e80       _wkeResize                 00416e80 f   wke:wke.dll
 0001:00015e86       _wkePaint2                 00416e86 f   wke:wke.dll
 0001:00015e8c       _wkeCanGoBack              00416e8c f   wke:wke.dll
 0001:00015e92       _wkeGoBack                 00416e92 f   wke:wke.dll
 0001:00015e98       _wkeCanGoForward           00416e98 f   wke:wke.dll
 0001:00015e9e       _wkeGoForward              00416e9e f   wke:wke.dll
 0001:00015ea4       _wkeFireMouseEvent         00416ea4 f   wke:wke.dll
 0001:00015eaa       _wkeFireContextMenuEvent   00416eaa f   wke:wke.dll
 0001:00015eb0       _wkeFireMouseWheelEvent    00416eb0 f   wke:wke.dll
 0001:00015eb6       _wkeFireKeyUpEvent         00416eb6 f   wke:wke.dll
 0001:00015ebc       _wkeFireKeyDownEvent       00416ebc f   wke:wke.dll
 0001:00015ec2       _wkeFireKeyPressEvent      00416ec2 f   wke:wke.dll
 0001:00015ec8       _wkeSetFocus               00416ec8 f   wke:wke.dll
 0001:00015ece       _wkeKillFocus              00416ece f   wke:wke.dll
 0001:00015ed4       _wkeRunJS                  00416ed4 f   wke:wke.dll
 0001:00015eda       _wkeOnTitleChanged         00416eda f   wke:wke.dll
 0001:00015ee0       _wkeOnURLChanged           00416ee0 f   wke:wke.dll
 0001:00015ee6       _wkeOnNavigation           00416ee6 f   wke:wke.dll
 0001:00015eec       _wkeOnCreateView           00416eec f   wke:wke.dll
 0001:00015ef2       _wkeOnDocumentReady        00416ef2 f   wke:wke.dll
 0001:00015ef8       _wkeOnLoadingFinish        00416ef8 f   wke:wke.dll
 0001:00015efe       _jsBindFunction            00416efe f   wke:wke.dll
 0001:00015f04       _jsArgCount                00416f04 f   wke:wke.dll
 0001:00015f0a       _jsArg                     00416f0a f   wke:wke.dll
 0001:00015f10       _jsIsString                00416f10 f   wke:wke.dll
 0001:00015f16       _jsToTempStringW           00416f16 f   wke:wke.dll
 0001:00015f1c       _jsUndefined               00416f1c f   wke:wke.dll
 0001:00015f22       _jsStringW                 00416f22 f   wke:wke.dll
 0001:00015f28       _jsGetWebView              00416f28 f   wke:wke.dll
 0001:00015f30       ??_M@YGXPAXIHP6EX0@Z@Z     00416f30 f   MSVCRTD:ehvecdtr.obj
 0001:00015f60       ??_M@YGXPAXIIP6EX0@Z@Z     00416f60 f   MSVCRTD:ehvecdtr.obj
 0001:00016090       ?__ArrayUnwind@@YGXPAXIIP6EX0@Z@Z 00417090 f   MSVCRTD:ehvecdtr.obj
 0001:00016160       ??2@YAPAXI@Z               00417160 f   MSVCRTD:new_scalar.obj
 0001:000161c0       ??3@YAXPAX@Z               004171c0 f   MSVCRTD:delete_scalar.obj
 0001:000161e0       ??3@YAXPAXI@Z              004171e0 f   MSVCRTD:delete_scalar_size.obj
 0001:00016200       ??$__crt_fast_decode_pointer@PAP6AXXZ@@YAPAP6AXXZQAP6AXXZ@Z 00417200 f i MSVCRTD:utility.obj
 0001:00016230       ??$__crt_fast_encode_pointer@PAP6AXXZ@@YAPAP6AXXZQAP6AXXZ@Z 00417230 f i MSVCRTD:utility.obj
 0001:00016270       ?__crt_rotate_pointer_value@@YAIIH@Z 00417270 f i MSVCRTD:utility.obj
 0001:00016280       ?configure_argv@__scrt_narrow_argv_policy@@SAHXZ 00417280 f i MSVCRTD:utility.obj
 0001:00016350       ?initialize_environment@__scrt_narrow_environment_policy@@SAHXZ 00417350 f i MSVCRTD:utility.obj
 0001:000163f0       _NtCurrentTeb              004173f0 f i MSVCRTD:utility.obj
 0001:00016400       ___scrt_acquire_startup_lock 00417400 f   MSVCRTD:utility.obj
 0001:00016460       ___scrt_dllmain_after_initialize_c 00417460 f   MSVCRTD:utility.obj
 0001:000164a0       ___scrt_dllmain_before_initialize_c 004174a0 f   MSVCRTD:utility.obj
 0001:000164d0       ___scrt_dllmain_crt_thread_attach 004174d0 f   MSVCRTD:utility.obj
 0001:00016510       ___scrt_dllmain_crt_thread_detach 00417510 f   MSVCRTD:utility.obj
 0001:00016530       ___scrt_dllmain_exception_filter 00417530 f   MSVCRTD:utility.obj
 0001:00016590       ___scrt_dllmain_uninitialize_c 00417590 f   MSVCRTD:utility.obj
 0001:000165d0       ___scrt_dllmain_uninitialize_critical 004175d0 f   MSVCRTD:utility.obj
 0001:000165f0       ___scrt_initialize_crt     004175f0 f   MSVCRTD:utility.obj
 0001:00016650       ___scrt_initialize_onexit_tables 00417650 f   MSVCRTD:utility.obj
 0001:00016770       ___scrt_is_nonwritable_in_current_image 00417770 f   MSVCRTD:utility.obj
 0001:000168f0       ___scrt_release_startup_lock 004178f0 f   MSVCRTD:utility.obj
 0001:00016920       ___scrt_uninitialize_crt   00417920 f   MSVCRTD:utility.obj
 0001:00016970       __onexit                   00417970 f   MSVCRTD:utility.obj
 0001:00016a00       _at_quick_exit             00417a00 f   MSVCRTD:utility.obj
 0001:00016a60       _atexit                    00417a60 f   MSVCRTD:utility.obj
 0001:00016aa0       @_RTC_AllocaHelper@12      00417aa0 f   MSVCRTD:_stack_.obj
 0001:00016ae0       @_RTC_CheckStackVars2@12   00417ae0 f   MSVCRTD:_stack_.obj
 0001:00016bf0       @_RTC_CheckStackVars@8     00417bf0 f   MSVCRTD:_stack_.obj
 0001:00016c60       __RTC_CheckEsp             00417c60 f   MSVCRTD:_stack_.obj
 0001:00016ca0       @__security_check_cookie@4 00417ca0 f   MSVCRTD:_secchk_.obj
 0001:00016cc0       __CRT_RTC_INIT             00417cc0 f   MSVCRTD:_init_.obj
 0001:00016cd0       __CRT_RTC_INITW            00417cd0 f   MSVCRTD:_init_.obj
 0001:00016ce0       __RTC_InitBase             00417ce0 f   MSVCRTD:_init_.obj
 0001:00016d20       __RTC_Shutdown             00417d20 f   MSVCRTD:_init_.obj
 0001:00016d40       ??1type_info@@UAE@XZ       00417d40 f   MSVCRTD:std_type_info_static.obj
 0001:00016d60       ??_Etype_info@@UAEPAXI@Z   00417d60 f i MSVCRTD:std_type_info_static.obj
 0001:00016d60       ??_Gtype_info@@UAEPAXI@Z   00417d60 f i MSVCRTD:std_type_info_static.obj
 0001:00016da0       ??_U@YAPAXI@Z              00417da0 f   MSVCRTD:new_array.obj
 0001:00016dc0       ??_V@YAXPAX@Z              00417dc0 f   MSVCRTD:delete_array.obj
 0001:00016e20       ??$__crt_fast_decode_pointer@P6GHPAU_RTL_CONDITION_VARIABLE@@PAU_RTL_CRITICAL_SECTION@@K@Z@@YAP6GHPAU_RTL_CONDITION_VARIABLE@@PAU_RTL_CRITICAL_SECTION@@K@ZQ6GH01K@Z@Z 00417e20 f i MSVCRTD:thread_safe_statics.obj
 0001:00016e50       ??$__crt_fast_decode_pointer@P6GXPAU_RTL_CONDITION_VARIABLE@@@Z@@YAP6GXPAU_RTL_CONDITION_VARIABLE@@@ZQ6GX0@Z@Z 00417e50 f i MSVCRTD:thread_safe_statics.obj
 0001:00016e80       ??$__crt_fast_encode_pointer@P6GHPAU_RTL_CONDITION_VARIABLE@@PAU_RTL_CRITICAL_SECTION@@K@Z@@YAP6GHPAU_RTL_CONDITION_VARIABLE@@PAU_RTL_CRITICAL_SECTION@@K@ZQ6GH01K@Z@Z 00417e80 f i MSVCRTD:thread_safe_statics.obj
 0001:00016ec0       ??$__crt_fast_encode_pointer@P6GXPAU_RTL_CONDITION_VARIABLE@@@Z@@YAP6GXPAU_RTL_CONDITION_VARIABLE@@@ZQ6GX0@Z@Z 00417ec0 f i MSVCRTD:thread_safe_statics.obj
 0001:00017040       ?__scrt_is_event_api_used@@YA_NQAX@Z 00418040 f i MSVCRTD:thread_safe_statics.obj
 0001:000170b0       __Init_thread_abort        004180b0 f   MSVCRTD:thread_safe_statics.obj
 0001:000170e0       __Init_thread_footer       004180e0 f   MSVCRTD:thread_safe_statics.obj
 0001:00017140       __Init_thread_header       00418140 f   MSVCRTD:thread_safe_statics.obj
 0001:000171d0       __Init_thread_lock         004181d0 f   MSVCRTD:thread_safe_statics.obj
 0001:000171f0       __Init_thread_notify       004181f0 f   MSVCRTD:thread_safe_statics.obj
 0001:00017260       __Init_thread_unlock       00418260 f   MSVCRTD:thread_safe_statics.obj
 0001:00017280       __Init_thread_wait         00418280 f   MSVCRTD:thread_safe_statics.obj
 0001:00017380       __alloca_probe             00418380 f   MSVCRTD:chkstk.obj
 0001:00017380       __chkstk                   00418380 f   MSVCRTD:chkstk.obj
 0001:000177a0       ?set_app_type@__scrt_winmain_policy@@SAXXZ 004187a0 f i MSVCRTD:exe_winmain.obj
 0001:000177c0       ?set_commode@__scrt_file_policy@@SAXXZ 004187c0 f i MSVCRTD:exe_winmain.obj
 0001:000177e0       ?set_fmode@__scrt_file_policy@@SAXXZ 004187e0 f i MSVCRTD:exe_winmain.obj
 0001:00017800       _WinMainCRTStartup         00418800 f   MSVCRTD:exe_winmain.obj
 0001:00017810       @_guard_check_icall@4      00418810 f i MSVCRTD:checkcfg.obj
 0001:00017830       __except_handler4          00418830 f   MSVCRTD:_chandler4gs_.obj
 0001:00017860       ??0bad_alloc@std@@AAE@QBD@Z 00418860 f i MSVCRTD:throw_bad_alloc.obj
 0001:00017890       ??0bad_alloc@std@@QAE@ABV01@@Z 00418890 f i MSVCRTD:throw_bad_alloc.obj
 0001:000178c0       ??0bad_alloc@std@@QAE@XZ   004188c0 f i MSVCRTD:throw_bad_alloc.obj
 0001:000178f0       ??0bad_array_new_length@std@@QAE@ABV01@@Z 004188f0 f i MSVCRTD:throw_bad_alloc.obj
 0001:00017920       ??0bad_array_new_length@std@@QAE@XZ 00418920 f i MSVCRTD:throw_bad_alloc.obj
 0001:00017950       ??0exception@std@@QAE@ABV01@@Z 00418950 f i MSVCRTD:throw_bad_alloc.obj
 0001:000179a0       ??0exception@std@@QAE@QBDH@Z 004189a0 f i MSVCRTD:throw_bad_alloc.obj
 0001:000179e0       ??1bad_alloc@std@@UAE@XZ   004189e0 f i MSVCRTD:throw_bad_alloc.obj
 0001:00017a00       ??1bad_array_new_length@std@@UAE@XZ 00418a00 f i MSVCRTD:throw_bad_alloc.obj
 0001:00017a20       ??1exception@std@@UAE@XZ   00418a20 f i MSVCRTD:throw_bad_alloc.obj
 0001:00017a50       ??_Gbad_alloc@std@@UAEPAXI@Z 00418a50 f i MSVCRTD:throw_bad_alloc.obj
 0001:00017a50       ??_Ebad_alloc@std@@UAEPAXI@Z 00418a50 f i MSVCRTD:throw_bad_alloc.obj
 0001:00017a90       ??_Ebad_array_new_length@std@@UAEPAXI@Z 00418a90 f i MSVCRTD:throw_bad_alloc.obj
 0001:00017a90       ??_Gbad_array_new_length@std@@UAEPAXI@Z 00418a90 f i MSVCRTD:throw_bad_alloc.obj
 0001:00017ad0       ??_Eexception@std@@UAEPAXI@Z 00418ad0 f i MSVCRTD:throw_bad_alloc.obj
 0001:00017ad0       ??_Gexception@std@@UAEPAXI@Z 00418ad0 f i MSVCRTD:throw_bad_alloc.obj
 0001:00017b10       ?__scrt_throw_std_bad_alloc@@YAXXZ 00418b10 f   MSVCRTD:throw_bad_alloc.obj
 0001:00017b40       ?__scrt_throw_std_bad_array_new_length@@YAXXZ 00418b40 f   MSVCRTD:throw_bad_alloc.obj
 0001:00017b70       ?what@exception@std@@UBEPBDXZ 00418b70 f i MSVCRTD:throw_bad_alloc.obj
 0001:00017bb0       ___isa_available_init      00418bb0 f   MSVCRTD:_cpu_disp_.obj
 0001:00017f40       __get_startup_argv_mode    00418f40 f   MSVCRTD:argv_mode.obj
 0001:00017f50       ___scrt_is_ucrt_dll_in_use 00418f50 f   MSVCRTD:ucrt_detection.obj
 0001:00017f80       ___scrt_fastfail           00418f80 f   MSVCRTD:utility_desktop.obj
 0001:00018110       ___scrt_get_show_window_mode 00419110 f   MSVCRTD:utility_desktop.obj
 0001:00018160       ___scrt_initialize_winrt   00419160 f   MSVCRTD:utility_desktop.obj
 0001:00018170       ___scrt_is_managed_app     00419170 f   MSVCRTD:utility_desktop.obj
 0001:00018220       ___scrt_set_unhandled_exception_filter 00419220 f   MSVCRTD:utility_desktop.obj
 0001:00018240       ___scrt_unhandled_exception_filter@4 00419240 f   MSVCRTD:utility_desktop.obj
 0001:000182c0       __crt_debugger_hook        004192c0 f   MSVCRTD:utility_desktop.obj
 0001:000182e0       ??$__vcrt_va_start_verify_argument_type@QBD@@YAXXZ 004192e0 f i MSVCRTD:_error_.obj
 0001:00018490       ?_RTC_AllocaFailure@@YAXPAXPAU_RTC_ALLOCA_NODE@@H@Z 00419490 f   MSVCRTD:_error_.obj
 0001:000185b0       ?_RTC_Failure@@YAXPAXH@Z   004195b0 f   MSVCRTD:_error_.obj
 0001:00018620       ?_RTC_StackFailure@@YAXPAXPBD@Z 00419620 f   MSVCRTD:_error_.obj
 0001:00018a40       __RTC_UninitUse            00419a40 f   MSVCRTD:_error_.obj
 0001:00018b20       ___local_stdio_printf_options 00419b20 f i MSVCRTD:_error_.obj
 0001:00018b30       __vsprintf_s_l             00419b30 f i MSVCRTD:_error_.obj
 0001:00018b70       _sprintf_s                 00419b70 f i MSVCRTD:_error_.obj
 0001:00018ba0       ___raise_securityfailure   00419ba0 f   MSVCRTD:gs_report.obj
 0001:00018be0       ___report_gsfailure        00419be0 f   MSVCRTD:gs_report.obj
 0001:00018d30       ___report_rangecheckfailure 00419d30 f   MSVCRTD:gs_report.obj
 0001:00018d40       ___report_securityfailure  00419d40 f   MSVCRTD:gs_report.obj
 0001:00018e50       ___report_securityfailureEx 00419e50 f   MSVCRTD:gs_report.obj
 0001:00018fc0       ?_RTC_GetErrorFunc@@YAP6AHHPBDH00ZZPBX@Z 00419fc0 f   MSVCRTD:_userapi_.obj
 0001:00018fd0       ?_RTC_GetErrorFuncW@@YAP6AHHPB_WH00ZZPBX@Z 00419fd0 f   MSVCRTD:_userapi_.obj
 0001:00018fe0       __RTC_GetErrDesc           00419fe0 f   MSVCRTD:_userapi_.obj
 0001:00019000       __RTC_NumErrors            0041a000 f   MSVCRTD:_userapi_.obj
 0001:00019010       __RTC_SetErrorFunc         0041a010 f   MSVCRTD:_userapi_.obj
 0001:00019040       __RTC_SetErrorFuncW        0041a040 f   MSVCRTD:_userapi_.obj
 0001:00019070       __RTC_SetErrorType         0041a070 f   MSVCRTD:_userapi_.obj
 0001:00019130       ___security_init_cookie    0041a130 f   MSVCRTD:gs_support.obj
 0001:000191d0       __matherr                  0041a1d0 f   MSVCRTD:matherr.obj
 0001:000191e0       __get_startup_commit_mode  0041a1e0 f   MSVCRTD:commit_mode.obj
 0001:000191f0       __get_startup_file_mode    0041a1f0 f   MSVCRTD:file_mode.obj
 0001:00019200       __get_startup_new_mode     0041a200 f   MSVCRTD:new_mode.obj
 0001:00019210       __get_startup_thread_locale_mode 0041a210 f   MSVCRTD:thread_locale.obj
 0001:00019220       ?__scrt_initialize_type_info@@YAXXZ 0041a220 f   MSVCRTD:tncleanup.obj
 0001:00019240       ?__scrt_uninitialize_type_info@@YAXXZ 0041a240 f   MSVCRTD:tncleanup.obj
 0001:00019260       __should_initialize_environment 0041a260 f   MSVCRTD:env_mode.obj
 0001:00019270       __initialize_default_precision 0041a270 f   MSVCRTD:default_precision.obj
 0001:000192a0       __initialize_invalid_parameter_handler 0041a2a0 f   MSVCRTD:invalid_parameter_handler.obj
 0001:000192b0       __initialize_denormal_control 0041a2b0 f   MSVCRTD:denormal_control.obj
 0001:000192c0       ___local_stdio_scanf_options 0041a2c0 f i MSVCRTD:default_local_stdio_options.obj
 0001:000192d0       ___scrt_initialize_default_local_stdio_options 0041a2d0 f   MSVCRTD:default_local_stdio_options.obj
 0001:00019320       ___scrt_is_user_matherr_present 0041a320 f   MSVCRTD:matherr_detection.obj
 0001:00019350       ___scrt_get_dyn_tls_init_callback 0041a350 f   MSVCRTD:dyn_tls_init.obj
 0001:00019360       ___scrt_get_dyn_tls_dtor_callback 0041a360 f   MSVCRTD:dyn_tls_dtor.obj
 0001:00019370       __RTC_Initialize           0041a370 f   MSVCRTD:_initsect_.obj
 0001:000193b0       __RTC_Terminate            0041a3b0 f   MSVCRTD:_initsect_.obj
 0001:000193f0       @_guard_check_icall_nop@4  0041a3f0 f i MSVCRTD:guard_support.obj
 0001:00019400       _ReadNoFence               0041a400 f i MSVCRTD:guard_support.obj
 0001:00019420       _ReadPointerNoFence        0041a420 f i MSVCRTD:guard_support.obj
 0001:00019440       __guard_icall_checks_enforced 0041a440 f i MSVCRTD:guard_support.obj
 0001:00019a40       ?_RTC_GetSrcLine@@YAHPAEPA_WKPAH1K@Z 0041aa40 f   MSVCRTD:_pdblkup_.obj
 0001:00019e5a       _memmove                   0041ae5a f   vcruntimed:VCRUNTIME140D.dll
 0001:00019e60       __CxxThrowException@8      0041ae60 f   vcruntimed:VCRUNTIME140D.dll
 0001:00019e66       ___CxxFrameHandler3        0041ae66 f   vcruntimed:VCRUNTIME140D.dll
 0001:00019e6c       _memset                    0041ae6c f   vcruntimed:VCRUNTIME140D.dll
 0001:00019e72       _memcpy                    0041ae72 f   vcruntimed:VCRUNTIME140D.dll
 0001:00019e78       _wcsstr                    0041ae78 f   vcruntimed:VCRUNTIME140D.dll
 0001:00019e7e       ___vcrt_InitializeCriticalSectionEx 0041ae7e f   vcruntimed:VCRUNTIME140D.dll
 0001:00019e84       __except_handler4_common   0041ae84 f   vcruntimed:VCRUNTIME140D.dll
 0001:00019e8a       ___std_exception_copy      0041ae8a f   vcruntimed:VCRUNTIME140D.dll
 0001:00019e90       ___std_exception_destroy   0041ae90 f   vcruntimed:VCRUNTIME140D.dll
 0001:00019e96       ___std_type_info_destroy_list 0041ae96 f   vcruntimed:VCRUNTIME140D.dll
 0001:00019e9c       ___vcrt_GetModuleFileNameW 0041ae9c f   vcruntimed:VCRUNTIME140D.dll
 0001:00019ea2       ___vcrt_GetModuleHandleW   0041aea2 f   vcruntimed:VCRUNTIME140D.dll
 0001:00019ea8       ___vcrt_LoadLibraryExW     0041aea8 f   vcruntimed:VCRUNTIME140D.dll
 0001:00019eae       __invalid_parameter        0041aeae f   ucrtd:ucrtbased.dll
 0001:00019eb4       __CrtDbgReportW            0041aeb4 f   ucrtd:ucrtbased.dll
 0001:00019eba       _wcscat                    0041aeba f   ucrtd:ucrtbased.dll
 0001:00019ec0       _wcscmp                    0041aec0 f   ucrtd:ucrtbased.dll
 0001:00019ec6       _wcscpy                    0041aec6 f   ucrtd:ucrtbased.dll
 0001:00019ecc       _wcslen                    0041aecc f   ucrtd:ucrtbased.dll
 0001:00019ed2       _wcsncpy                   0041aed2 f   ucrtd:ucrtbased.dll
 0001:00019ed8       _strlen                    0041aed8 f   ucrtd:ucrtbased.dll
 0001:00019ede       __wsplitpath               0041aede f   ucrtd:ucrtbased.dll
 0001:00019ee4       _terminate                 0041aee4 f   ucrtd:ucrtbased.dll
 0001:00019eea       __callnewh                 0041aeea f   ucrtd:ucrtbased.dll
 0001:00019ef0       _malloc                    0041aef0 f   ucrtd:ucrtbased.dll
 0001:00019ef6       __free_dbg                 0041aef6 f   ucrtd:ucrtbased.dll
 0001:00019efc       __seh_filter_dll           0041aefc f   ucrtd:ucrtbased.dll
 0001:00019f02       __configure_narrow_argv    0041af02 f   ucrtd:ucrtbased.dll
 0001:00019f08       __initialize_narrow_environment 0041af08 f   ucrtd:ucrtbased.dll
 0001:00019f0e       __initialize_onexit_table  0041af0e f   ucrtd:ucrtbased.dll
 0001:00019f14       __register_onexit_function 0041af14 f   ucrtd:ucrtbased.dll
 0001:00019f1a       __execute_onexit_table     0041af1a f   ucrtd:ucrtbased.dll
 0001:00019f20       __crt_atexit               0041af20 f   ucrtd:ucrtbased.dll
 0001:00019f26       __crt_at_quick_exit        0041af26 f   ucrtd:ucrtbased.dll
 0001:00019f2c       __cexit                    0041af2c f   ucrtd:ucrtbased.dll
 0001:00019f32       __CrtDbgReport             0041af32 f   ucrtd:ucrtbased.dll
 0001:00019f38       __seh_filter_exe           0041af38 f   ucrtd:ucrtbased.dll
 0001:00019f3e       __set_app_type             0041af3e f   ucrtd:ucrtbased.dll
 0001:00019f44       ___setusermatherr          0041af44 f   ucrtd:ucrtbased.dll
 0001:00019f4a       __get_narrow_winmain_command_line 0041af4a f   ucrtd:ucrtbased.dll
 0001:00019f50       __initterm                 0041af50 f   ucrtd:ucrtbased.dll
 0001:00019f56       __initterm_e               0041af56 f   ucrtd:ucrtbased.dll
 0001:00019f5c       _exit                      0041af5c f   ucrtd:ucrtbased.dll
 0001:00019f62       __exit                     0041af62 f   ucrtd:ucrtbased.dll
 0001:00019f68       __set_fmode                0041af68 f   ucrtd:ucrtbased.dll
 0001:00019f6e       __c_exit                   0041af6e f   ucrtd:ucrtbased.dll
 0001:00019f74       __register_thread_local_exe_atexit_callback 0041af74 f   ucrtd:ucrtbased.dll
 0001:00019f7a       __configthreadlocale       0041af7a f   ucrtd:ucrtbased.dll
 0001:00019f80       __set_new_mode             0041af80 f   ucrtd:ucrtbased.dll
 0001:00019f86       ___p__commode              0041af86 f   ucrtd:ucrtbased.dll
 0001:00019f8c       _strcpy_s                  0041af8c f   ucrtd:ucrtbased.dll
 0001:00019f92       _strcat_s                  0041af92 f   ucrtd:ucrtbased.dll
 0001:00019f98       ___stdio_common_vsprintf_s 0041af98 f   ucrtd:ucrtbased.dll
 0001:00019f9e       __controlfp_s              0041af9e f   ucrtd:ucrtbased.dll
 0001:00019fa4       __wmakepath_s              0041afa4 f   ucrtd:ucrtbased.dll
 0001:00019faa       __wsplitpath_s             0041afaa f   ucrtd:ucrtbased.dll
 0001:00019fb0       _wcscpy_s                  0041afb0 f   ucrtd:ucrtbased.dll
 0001:00019fb6       _CloseHandle@4             0041afb6 f   kernel32:KERNEL32.dll
 0001:00019fbc       _EnterCriticalSection@4    0041afbc f   kernel32:KERNEL32.dll
 0001:00019fc2       _LeaveCriticalSection@4    0041afc2 f   kernel32:KERNEL32.dll
 0001:00019fc8       _DeleteCriticalSection@4   0041afc8 f   kernel32:KERNEL32.dll
 0001:00019fce       _SetEvent@4                0041afce f   kernel32:KERNEL32.dll
 0001:00019fd4       _ResetEvent@4              0041afd4 f   kernel32:KERNEL32.dll
 0001:00019fda       _WaitForSingleObjectEx@12  0041afda f   kernel32:KERNEL32.dll
 0001:00019fe0       _CreateEventW@16           0041afe0 f   kernel32:KERNEL32.dll
 0001:00019fe6       _IsProcessorFeaturePresent@4 0041afe6 f   kernel32:KERNEL32.dll
 0001:00019fec       _IsDebuggerPresent@0       0041afec f   kernel32:KERNEL32.dll
 0001:00019ff2       _UnhandledExceptionFilter@4 0041aff2 f   kernel32:KERNEL32.dll
 0001:00019ff8       _SetUnhandledExceptionFilter@4 0041aff8 f   kernel32:KERNEL32.dll
 0001:00019ffe       _GetStartupInfoW@4         0041affe f   kernel32:KERNEL32.dll
 0001:0001a004       _RaiseException@16         0041b004 f   kernel32:KERNEL32.dll
 0001:0001a00a       _GetCurrentProcess@0       0041b00a f   kernel32:KERNEL32.dll
 0001:0001a010       _TerminateProcess@8        0041b010 f   kernel32:KERNEL32.dll
 0001:0001a016       _QueryPerformanceCounter@4 0041b016 f   kernel32:KERNEL32.dll
 0001:0001a01c       _GetCurrentProcessId@0     0041b01c f   kernel32:KERNEL32.dll
 0001:0001a022       _GetCurrentThreadId@0      0041b022 f   kernel32:KERNEL32.dll
 0001:0001a028       _GetSystemTimeAsFileTime@4 0041b028 f   kernel32:KERNEL32.dll
 0001:0001a02e       _InitializeSListHead@4     0041b02e f   kernel32:KERNEL32.dll
 0001:0001a034       _GetLastError@0            0041b034 f   kernel32:KERNEL32.dll
 0001:0001a03a       _HeapAlloc@12              0041b03a f   kernel32:KERNEL32.dll
 0001:0001a040       _HeapFree@12               0041b040 f   kernel32:KERNEL32.dll
 0001:0001a046       _GetProcessHeap@0          0041b046 f   kernel32:KERNEL32.dll
 0001:0001a04c       _VirtualQuery@12           0041b04c f   kernel32:KERNEL32.dll
 0001:0001a052       _FreeLibrary@4             0041b052 f   kernel32:KERNEL32.dll
 0001:0001a060       ___scrt_stub_for_acrt_initialize 0041b060 f   MSVCRTD:ucrt_stubs.obj
 0001:0001a060       ___acrt_initialize         0041b060 f   MSVCRTD:ucrt_stubs.obj
 0001:0001a060       ___vcrt_initialize         0041b060 f   MSVCRTD:ucrt_stubs.obj
 0001:0001a070       ___vcrt_thread_attach      0041b070 f   MSVCRTD:ucrt_stubs.obj
 0001:0001a070       ___acrt_thread_attach      0041b070 f   MSVCRTD:ucrt_stubs.obj
 0001:0001a070       ___scrt_stub_for_acrt_thread_attach 0041b070 f   MSVCRTD:ucrt_stubs.obj
 0001:0001a080       ___scrt_stub_for_acrt_thread_detach 0041b080 f   MSVCRTD:ucrt_stubs.obj
 0001:0001a080       ___vcrt_thread_detach      0041b080 f   MSVCRTD:ucrt_stubs.obj
 0001:0001a080       ___acrt_thread_detach      0041b080 f   MSVCRTD:ucrt_stubs.obj
 0001:0001a090       ___vcrt_uninitialize       0041b090 f   MSVCRTD:ucrt_stubs.obj
 0001:0001a090       ___acrt_uninitialize       0041b090 f   MSVCRTD:ucrt_stubs.obj
 0001:0001a090       ___scrt_stub_for_acrt_uninitialize 0041b090 f   MSVCRTD:ucrt_stubs.obj
 0001:0001a0a0       ___acrt_uninitialize_critical 0041b0a0 f   MSVCRTD:ucrt_stubs.obj
 0001:0001a0a0       ___vcrt_uninitialize_critical 0041b0a0 f   MSVCRTD:ucrt_stubs.obj
 0001:0001a0a0       ___scrt_stub_for_acrt_uninitialize_critical 0041b0a0 f   MSVCRTD:ucrt_stubs.obj
 0001:0001a0b0       __is_c_termination_complete 0041b0b0 f   MSVCRTD:ucrt_stubs.obj
 0001:0001a0b0       ___scrt_stub_for_is_c_termination_complete 0041b0b0 f   MSVCRTD:ucrt_stubs.obj
 0002:00000000       ___xc_a                    00420000     MSVCRTD:initializers.obj
 0002:0000031c       ___xc_z                    0042031c     MSVCRTD:initializers.obj
 0002:00000420       ___xi_a                    00420420     MSVCRTD:initializers.obj
 0002:00000830       ___xi_z                    00420830     MSVCRTD:initializers.obj
 0002:00000934       ___xl_a                    00420934     MSVCRTD:tlssup.obj
 0002:00000938       ___xl_z                    00420938     MSVCRTD:tlssup.obj
 0002:0000093c       ___xp_a                    0042093c     MSVCRTD:initializers.obj
 0002:00000a40       ___xp_z                    00420a40     MSVCRTD:initializers.obj
 0002:00000b44       ___xt_a                    00420b44     MSVCRTD:initializers.obj
 0002:00000c48       ___xt_z                    00420c48     MSVCRTD:initializers.obj
 0002:00001278       ??_C@_17CNPHIMPH@?$AA?$CF?$AAl?$AAs?$AA?$AA@ 00421278     MainWnd.obj
 0002:00001288       ??_C@_1NI@PNPFGMMJ@?$AAC?$AA?3?$AA?2?$AAP?$AAr?$AAo?$AAg?$AAr?$AAa?$AAm?$AA?5?$AAF?$AAi?$AAl?$AAe?$AAs?$AA?5?$AA?$CI?$AAx?$AA8?$AA6?$AA?$CJ?$AA?2?$AAM?$AAi?$AAc?$AAr?$AAo?$AAs?$AAo?$AAf?$AAt@ 00421288     MainWnd.obj
 0002:0000138c       ??_C@_1DC@POOIKBAO@?$AAI?$AAT?$AAE?$AAR?$AAA?$AAT?$AAO?$AAR?$AA?5?$AAL?$AAI?$AAS?$AAT?$AA?5?$AAC?$AAO?$AAR?$AAR?$AAU?$AAP?$AAT?$AAE?$AAD?$AA?$CB?$AA?$AA@ 0042138c     MainWnd.obj
 0002:000013c8       ??_C@_1EE@KLDMFDFL@?$AAs?$AAt?$AAd?$AA?3?$AA?3?$AA_?$AAI?$AAt?$AAe?$AAr?$AAa?$AAt?$AAo?$AAr?$AA_?$AAb?$AAa?$AAs?$AAe?$AA1?$AA2?$AA?3?$AA?3?$AA_?$AAO?$AAr?$AAp?$AAh?$AAa?$AAn?$AA_?$AAm@ 004213c8     MainWnd.obj
 0002:0000141c       ??_C@_1DG@PLBPCAEM@?$AA?$CC?$AAI?$AAT?$AAE?$AAR?$AAA?$AAT?$AAO?$AAR?$AA?5?$AAL?$AAI?$AAS?$AAT?$AA?5?$AAC?$AAO?$AAR?$AAR?$AAU?$AAP?$AAT?$AAE?$AAD?$AA?$CB?$AA?$CC?$AA?$AA@ 0042141c     MainWnd.obj
 0002:0000145c       ??_C@_0BE@LMNLACIC@_Ptr_container?5?$CB?$DN?50?$AA@ 0042145c     MainWnd.obj
 0002:00001474       ??_C@_1DG@HGDKEBPG@?$AA?$CC?$AA_?$AAP?$AAt?$AAr?$AA_?$AAc?$AAo?$AAn?$AAt?$AAa?$AAi?$AAn?$AAe?$AAr?$AA?5?$AA?$CB?$AA?$DN?$AA?5?$AA0?$AA?$CC?$AA?5?$AA?$CG?$AA?$CG?$AA?5?$AA0?$AA?$AA@ 00421474     MainWnd.obj
 0002:000014b8       ??_C@_1NI@BOLJGK@?$AAC?$AA?3?$AA?2?$AAP?$AAr?$AAo?$AAg?$AAr?$AAa?$AAm?$AA?5?$AAF?$AAi?$AAl?$AAe?$AAs?$AA?5?$AA?$CI?$AAx?$AA8?$AA6?$AA?$CJ?$AA?2?$AAM?$AAi?$AAc?$AAr?$AAo?$AAs?$AAo?$AAf?$AAt@ 004214b8     MainWnd.obj
 0002:000015bc       ??_C@_1BO@NKFMJPA@?$AAs?$AAt?$AAd?$AA?3?$AA?3?$AA_?$AAA?$AAl?$AAl?$AAo?$AAc?$AAa?$AAt?$AAe?$AA?$AA@ 004215bc     MainWnd.obj
 0002:000015e0       ??_C@_1CG@JNLFBNGN@?$AA?$CC?$AAi?$AAn?$AAv?$AAa?$AAl?$AAi?$AAd?$AA?5?$AAa?$AAr?$AAg?$AAu?$AAm?$AAe?$AAn?$AAt?$AA?$CC?$AA?$AA@ 004215e0     MainWnd.obj
 0002:00001610       ??_C@_09GLJCAGLP@_Ptr?5?$CB?$DN?50?$AA@ 00421610     MainWnd.obj
 0002:0000161c       ??_C@_1CC@GKJLLHIM@?$AA?$CC?$AA_?$AAP?$AAt?$AAr?$AA?5?$AA?$CB?$AA?$DN?$AA?5?$AA0?$AA?$CC?$AA?5?$AA?$CG?$AA?$CG?$AA?5?$AA0?$AA?$AA@ 0042161c     MainWnd.obj
 0002:00001644       ??_C@_1CC@LOFJFFDB@?$AAs?$AAt?$AAd?$AA?3?$AA?3?$AA_?$AAD?$AAe?$AAa?$AAl?$AAl?$AAo?$AAc?$AAa?$AAt?$AAe?$AA?$AA@ 00421644     MainWnd.obj
 0002:00001670       ??_C@_1NE@PPMPCMAE@?$AAC?$AA?3?$AA?2?$AAP?$AAr?$AAo?$AAg?$AAr?$AAa?$AAm?$AA?5?$AAF?$AAi?$AAl?$AAe?$AAs?$AA?5?$AA?$CI?$AAx?$AA8?$AA6?$AA?$CJ?$AA?2?$AAM?$AAi?$AAc?$AAr?$AAo?$AAs?$AAo?$AAf?$AAt@ 00421670     MainWnd.obj
 0002:00001770       ??_C@_1EI@HGIDLLCM@?$AAv?$AAe?$AAc?$AAt?$AAo?$AAr?$AA?5?$AAe?$AAr?$AAa?$AAs?$AAe?$AA?5?$AAi?$AAt?$AAe?$AAr?$AAa?$AAt?$AAo?$AAr?$AA?5?$AAo?$AAu?$AAt?$AAs?$AAi?$AAd?$AAe?$AA?5?$AAr?$AAa@ 00421770     MainWnd.obj
 0002:000017c8       ??_C@_1EM@BEMPOGMM@?$AA?$CC?$AAv?$AAe?$AAc?$AAt?$AAo?$AAr?$AA?5?$AAe?$AAr?$AAa?$AAs?$AAe?$AA?5?$AAi?$AAt?$AAe?$AAr?$AAa?$AAt?$AAo?$AAr?$AA?5?$AAo?$AAu?$AAt?$AAs?$AAi?$AAd?$AAe?$AA?5?$AAr@ 004217c8     MainWnd.obj
 0002:00001828       ??_C@_1EG@FOHJJHAC@?$AAv?$AAe?$AAc?$AAt?$AAo?$AAr?$AA?5?$AAi?$AAt?$AAe?$AAr?$AAa?$AAt?$AAo?$AAr?$AA?5?$AAn?$AAo?$AAt?$AA?5?$AAd?$AAe?$AAr?$AAe?$AAf?$AAe?$AAr?$AAe?$AAn?$AAc?$AAa?$AAb@ 00421828     MainWnd.obj
 0002:00001880       ??_C@_1EK@FMDACDNC@?$AA?$CC?$AAv?$AAe?$AAc?$AAt?$AAo?$AAr?$AA?5?$AAi?$AAt?$AAe?$AAr?$AAa?$AAt?$AAo?$AAr?$AA?5?$AAn?$AAo?$AAt?$AA?5?$AAd?$AAe?$AAr?$AAe?$AAf?$AAe?$AAr?$AAe?$AAn?$AAc?$AAa@ 00421880     MainWnd.obj
 0002:000018d8       ??_C@_0BD@OLBABOEK@vector?$DMT?$DO?5too?5long?$AA@ 004218d8     MainWnd.obj
 0002:000018f0       ??_C@_1DM@HINDPMBP@?$AAv?$AAe?$AAc?$AAt?$AAo?$AAr?$AA?5?$AAi?$AAt?$AAe?$AAr?$AAa?$AAt?$AAo?$AAr?$AAs?$AA?5?$AAi?$AAn?$AAc?$AAo?$AAm?$AAp?$AAa?$AAt?$AAi?$AAb?$AAl?$AAe?$AA?$AA@ 004218f0     MainWnd.obj
 0002:00001938       ??_C@_1EA@DJDGNIII@?$AA?$CC?$AAv?$AAe?$AAc?$AAt?$AAo?$AAr?$AA?5?$AAi?$AAt?$AAe?$AAr?$AAa?$AAt?$AAo?$AAr?$AAs?$AA?5?$AAi?$AAn?$AAc?$AAo?$AAm?$AAp?$AAa?$AAt?$AAi?$AAb?$AAl?$AAe?$AA?$CC?$AA?$AA@ 00421938     MainWnd.obj
 0002:0000198c       ??_SCBrowserTab@@6B@       0042198c     MainWnd.obj
 0002:00001b9c       ??_7IWkeCallback@@6B@      00421b9c     MainWnd.obj
 0002:00001bc4       ?messageMap@CMainWnd@@1UDUI_MSGMAP@DuiLib@@B 00421bc4     MainWnd.obj
 0002:00001bd4       ??_7CMainWnd@@6BCWindowWnd@DuiLib@@@ 00421bd4     MainWnd.obj
 0002:00001c90       ??_7CMainWnd@@6BCNotifyPump@DuiLib@@@ 00421c90     MainWnd.obj
 0002:00001c9c       ??_7CMainWnd@@6BINotifyUI@DuiLib@@@ 00421c9c     MainWnd.obj
 0002:00001ca8       ??_7CMainWnd@@6BIMessageFilterUI@DuiLib@@@ 00421ca8     MainWnd.obj
 0002:00001cb4       ??_7CMainWnd@@6BIDialogBuilderCallback@DuiLib@@@ 00421cb4     MainWnd.obj
 0002:00001cc0       ??_7CMainWnd@@6BIQueryControlText@DuiLib@@@ 00421cc0     MainWnd.obj
 0002:00001ccc       ??_7CMainWnd@@6B@          00421ccc     MainWnd.obj
 0002:00001cf8       ??_C@_1KK@IHFPHBKJ@?$AAs?$AAt?$AAd?$AA?3?$AA?3?$AAv?$AAe?$AAc?$AAt?$AAo?$AAr?$AA?$DM?$AAs?$AAt?$AAr?$AAu?$AAc?$AAt?$AA?5?$AA_?$AAt?$AAa?$AAg?$AAT?$AAa?$AAb?$AAI?$AAn?$AAf?$AAo?$AA?5?$AA?$CK@ 00421cf8     MainWnd.obj
 0002:00001dc8       ??_C@_1OG@MCCFMDDF@?$AAs?$AAt?$AAd?$AA?3?$AA?3?$AA_?$AAV?$AAe?$AAc?$AAt?$AAo?$AAr?$AA_?$AAc?$AAo?$AAn?$AAs?$AAt?$AA_?$AAi?$AAt?$AAe?$AAr?$AAa?$AAt?$AAo?$AAr?$AA?$DM?$AAc?$AAl?$AAa?$AAs@ 00421dc8     MainWnd.obj
 0002:00001ee0       ??_C@_1OA@OHOPLCNA@?$AAs?$AAt?$AAd?$AA?3?$AA?3?$AA_?$AAV?$AAe?$AAc?$AAt?$AAo?$AAr?$AA_?$AAc?$AAo?$AAn?$AAs?$AAt?$AA_?$AAi?$AAt?$AAe?$AAr?$AAa?$AAt?$AAo?$AAr?$AA?$DM?$AAc?$AAl?$AAa?$AAs@ 00421ee0     MainWnd.obj
 0002:00001ff0       ??_C@_1NK@EDCELPHN@?$AAC?$AA?3?$AA?2?$AAP?$AAr?$AAo?$AAg?$AAr?$AAa?$AAm?$AA?5?$AAF?$AAi?$AAl?$AAe?$AAs?$AA?5?$AA?$CI?$AAx?$AA8?$AA6?$AA?$CJ?$AA?2?$AAM?$AAi?$AAc?$AAr?$AAo?$AAs?$AAo?$AAf?$AAt@ 00421ff0     MainWnd.obj
 0002:000020f8       ??_C@_1CO@DGLIKNHI@?$AAi?$AAn?$AAv?$AAa?$AAl?$AAi?$AAd?$AA?5?$AAi?$AAt?$AAe?$AAr?$AAa?$AAt?$AAo?$AAr?$AA?5?$AAr?$AAa?$AAn?$AAg?$AAe?$AA?$AA@ 004220f8     MainWnd.obj
 0002:00002130       ??_C@_1CG@MDICLDJA@?$AAs?$AAt?$AAd?$AA?3?$AA?3?$AA_?$AAD?$AAe?$AAb?$AAu?$AAg?$AA_?$AAr?$AAa?$AAn?$AAg?$AAe?$AA2?$AA?$AA@ 00422130     MainWnd.obj
 0002:00002160       ??_C@_1DC@CHPPODDE@?$AA?$CC?$AAi?$AAn?$AAv?$AAa?$AAl?$AAi?$AAd?$AA?5?$AAi?$AAt?$AAe?$AAr?$AAa?$AAt?$AAo?$AAr?$AA?5?$AAr?$AAa?$AAn?$AAg?$AAe?$AA?$CC?$AA?$AA@ 00422160     MainWnd.obj
 0002:0000226c       ?messageMap@CMsgWnd@@1UDUI_MSGMAP@DuiLib@@B 0042226c     MsgWnd.obj
 0002:0000227c       ??_7CMsgWnd@@6BCWindowWnd@DuiLib@@@ 0042227c     MsgWnd.obj
 0002:00002324       ??_7CMsgWnd@@6BCNotifyPump@DuiLib@@@ 00422324     MsgWnd.obj
 0002:00002330       ??_7CMsgWnd@@6BINotifyUI@DuiLib@@@ 00422330     MsgWnd.obj
 0002:0000233c       ??_7CMsgWnd@@6BIMessageFilterUI@DuiLib@@@ 0042233c     MsgWnd.obj
 0002:00002348       ??_7CMsgWnd@@6BIDialogBuilderCallback@DuiLib@@@ 00422348     MsgWnd.obj
 0002:00002354       ??_7CMsgWnd@@6BIQueryControlText@DuiLib@@@ 00422354     MsgWnd.obj
 0002:00002380       _LIBID_ShockwaveFlashObjects 00422380     StdAfx.obj
 0002:00002394       _IID_IShockwaveFlash       00422394     StdAfx.obj
 0002:000023a8       _IID_IMyCanHandleException 004223a8     StdAfx.obj
 0002:000023bc       _DIID__IShockwaveFlashEvents 004223bc     StdAfx.obj
 0002:000023d0       _CLSID_ShockwaveFlash      004223d0     StdAfx.obj
 0002:000023e4       _IID_IFlashFactory         004223e4     StdAfx.obj
 0002:000023f8       _IID_IMyDispatchEx         004223f8     StdAfx.obj
 0002:0000240c       _IID_IFlashObjectInterface 0042240c     StdAfx.obj
 0002:00002420       _CLSID_FlashObjectInterface 00422420     StdAfx.obj
 0002:00002434       _IID_IFlashObject          00422434     StdAfx.obj
 0002:00002448       _CLSID_FlashObject         00422448     StdAfx.obj
 0002:00002754       ??_7CWkeWebkitUI@@6B@      00422754     WkeWebkit.obj
 0002:00002908       ??_C@_1NC@NHGKFGCM@?$AAC?$AA?3?$AA?2?$AAP?$AAr?$AAo?$AAg?$AAr?$AAa?$AAm?$AA?5?$AAF?$AAi?$AAl?$AAe?$AAs?$AA?5?$AA?$CI?$AAx?$AA8?$AA6?$AA?$CJ?$AA?2?$AAM?$AAi?$AAc?$AAr?$AAo?$AAs?$AAo?$AAf?$AAt@ 00422908     WkeWebkit.obj
 0002:00002a08       ??_C@_1EK@PPDBPCAN@?$AAm?$AAa?$AAp?$AA?1?$AAs?$AAe?$AAt?$AA?5?$AAe?$AAr?$AAa?$AAs?$AAe?$AA?5?$AAi?$AAt?$AAe?$AAr?$AAa?$AAt?$AAo?$AAr?$AA?5?$AAo?$AAu?$AAt?$AAs?$AAi?$AAd?$AAe?$AA?5?$AAr@ 00422a08     WkeWebkit.obj
 0002:00002a60       ??_C@_1BLI@JEDHCJIL@?$AAs?$AAt?$AAd?$AA?3?$AA?3?$AA_?$AAT?$AAr?$AAe?$AAe?$AA?$DM?$AAc?$AAl?$AAa?$AAs?$AAs?$AA?5?$AAs?$AAt?$AAd?$AA?3?$AA?3?$AA_?$AAT?$AAm?$AAa?$AAp?$AA_?$AAt?$AAr?$AAa?$AAi@ 00422a60     WkeWebkit.obj
 0002:00002c70       ??_C@_1EO@CEDAEPC@?$AA?$CC?$AAm?$AAa?$AAp?$AA?1?$AAs?$AAe?$AAt?$AA?5?$AAe?$AAr?$AAa?$AAs?$AAe?$AA?5?$AAi?$AAt?$AAe?$AAr?$AAa?$AAt?$AAo?$AAr?$AA?5?$AAo?$AAu?$AAt?$AAs?$AAi?$AAd?$AAe?$AA?5@ 00422c70     WkeWebkit.obj
 0002:00002cd0       ??_C@_1DO@CFEEPGGJ@?$AAm?$AAa?$AAp?$AA?1?$AAs?$AAe?$AAt?$AA?5?$AAi?$AAt?$AAe?$AAr?$AAa?$AAt?$AAo?$AAr?$AAs?$AA?5?$AAi?$AAn?$AAc?$AAo?$AAm?$AAp?$AAa?$AAt?$AAi?$AAb?$AAl?$AAe?$AA?$AA@ 00422cd0     WkeWebkit.obj
 0002:00002d20       ??_C@_1BEI@GBONLHA@?$AAs?$AAt?$AAd?$AA?3?$AA?3?$AA_?$AAT?$AAr?$AAe?$AAe?$AA_?$AAc?$AAo?$AAn?$AAs?$AAt?$AA_?$AAi?$AAt?$AAe?$AAr?$AAa?$AAt?$AAo?$AAr?$AA?$DM?$AAc?$AAl?$AAa?$AAs?$AAs?$AA?5@ 00422d20     WkeWebkit.obj
 0002:00002eb0       ??_C@_1EC@JLIDLCDH@?$AA?$CC?$AAm?$AAa?$AAp?$AA?1?$AAs?$AAe?$AAt?$AA?5?$AAi?$AAt?$AAe?$AAr?$AAa?$AAt?$AAo?$AAr?$AAs?$AA?5?$AAi?$AAn?$AAc?$AAo?$AAm?$AAp?$AAa?$AAt?$AAi?$AAb?$AAl?$AAe?$AA?$CC@ 00422eb0     WkeWebkit.obj
 0002:00002f00       ??_C@_1EG@EHJFMBHJ@?$AAm?$AAa?$AAp?$AA?1?$AAs?$AAe?$AAt?$AA?5?$AAi?$AAt?$AAe?$AAr?$AAa?$AAt?$AAo?$AAr?$AA?5?$AAn?$AAo?$AAt?$AA?5?$AAi?$AAn?$AAc?$AAr?$AAe?$AAm?$AAe?$AAn?$AAt?$AAa?$AAb@ 00422f00     WkeWebkit.obj
 0002:00002f58       ??_C@_1BEI@KGODDCLF@?$AAs?$AAt?$AAd?$AA?3?$AA?3?$AA_?$AAT?$AAr?$AAe?$AAe?$AA_?$AAc?$AAo?$AAn?$AAs?$AAt?$AA_?$AAi?$AAt?$AAe?$AAr?$AAa?$AAt?$AAo?$AAr?$AA?$DM?$AAc?$AAl?$AAa?$AAs?$AAs?$AA?5@ 00422f58     WkeWebkit.obj
 0002:000030e8       ??_C@_1EK@BCPDGOMC@?$AA?$CC?$AAm?$AAa?$AAp?$AA?1?$AAs?$AAe?$AAt?$AA?5?$AAi?$AAt?$AAe?$AAr?$AAa?$AAt?$AAo?$AAr?$AA?5?$AAn?$AAo?$AAt?$AA?5?$AAi?$AAn?$AAc?$AAr?$AAe?$AAm?$AAe?$AAn?$AAt?$AAa@ 004230e8     WkeWebkit.obj
 0002:00003140       ??_C@_1EI@FHEHNNNM@?$AAm?$AAa?$AAp?$AA?1?$AAs?$AAe?$AAt?$AA?5?$AAi?$AAt?$AAe?$AAr?$AAa?$AAt?$AAo?$AAr?$AA?5?$AAn?$AAo?$AAt?$AA?5?$AAd?$AAe?$AAr?$AAe?$AAf?$AAe?$AAr?$AAe?$AAn?$AAc?$AAa@ 00423140     WkeWebkit.obj
 0002:00003198       ??_C@_1BEG@KOJGDHDF@?$AAs?$AAt?$AAd?$AA?3?$AA?3?$AA_?$AAT?$AAr?$AAe?$AAe?$AA_?$AAc?$AAo?$AAn?$AAs?$AAt?$AA_?$AAi?$AAt?$AAe?$AAr?$AAa?$AAt?$AAo?$AAr?$AA?$DM?$AAc?$AAl?$AAa?$AAs?$AAs?$AA?5@ 00423198     WkeWebkit.obj
 0002:00003320       ??_C@_1EM@KEKCOCNI@?$AA?$CC?$AAm?$AAa?$AAp?$AA?1?$AAs?$AAe?$AAt?$AA?5?$AAi?$AAt?$AAe?$AAr?$AAa?$AAt?$AAo?$AAr?$AA?5?$AAn?$AAo?$AAt?$AA?5?$AAd?$AAe?$AAr?$AAe?$AAf?$AAe?$AAr?$AAe?$AAn?$AAc@ 00423320     WkeWebkit.obj
 0002:0000337c       ??_C@_1CG@LEJCKCBB@?$AAi?$AAn?$AAv?$AAa?$AAl?$AAi?$AAd?$AA?5?$AAc?$AAo?$AAm?$AAp?$AAa?$AAr?$AAa?$AAt?$AAo?$AAr?$AA?$AA@ 0042337c     WkeWebkit.obj
 0002:000033ac       ??_C@_1CI@JONCLBEJ@?$AAs?$AAt?$AAd?$AA?3?$AA?3?$AA_?$AAD?$AAe?$AAb?$AAu?$AAg?$AA_?$AAl?$AAt?$AA_?$AAp?$AAr?$AAe?$AAd?$AA?$AA@ 004233ac     WkeWebkit.obj
 0002:000033dc       ??_C@_1CK@NDNHPKPI@?$AA?$CC?$AAi?$AAn?$AAv?$AAa?$AAl?$AAi?$AAd?$AA?5?$AAc?$AAo?$AAm?$AAp?$AAa?$AAr?$AAa?$AAt?$AAo?$AAr?$AA?$CC?$AA?$AA@ 004233dc     WkeWebkit.obj
 0002:00003410       ??_C@_0BA@JFNIOLAK@string?5too?5long?$AA@ 00423410     WkeWebkit.obj
 0002:00003428       ??_C@_1MO@KLGPEPEL@?$AAC?$AA?3?$AA?2?$AAP?$AAr?$AAo?$AAg?$AAr?$AAa?$AAm?$AA?5?$AAF?$AAi?$AAl?$AAe?$AAs?$AA?5?$AA?$CI?$AAx?$AA8?$AA6?$AA?$CJ?$AA?2?$AAM?$AAi?$AAc?$AAr?$AAo?$AAs?$AAo?$AAf?$AAt@ 00423428     WkeWebkit.obj
 0002:00003520       ??_C@_1EM@MHOKKPFH@?$AAm?$AAa?$AAp?$AA?1?$AAs?$AAe?$AAt?$AA?5?$AAi?$AAn?$AAs?$AAe?$AAr?$AAt?$AA?5?$AAi?$AAt?$AAe?$AAr?$AAa?$AAt?$AAo?$AAr?$AA?5?$AAo?$AAu?$AAt?$AAs?$AAi?$AAd?$AAe?$AA?5@ 00423520     WkeWebkit.obj
 0002:00003580       ??_C@_1BMG@HNNCIAGI@?$AAs?$AAt?$AAd?$AA?3?$AA?3?$AA_?$AAT?$AAr?$AAe?$AAe?$AA?$DM?$AAc?$AAl?$AAa?$AAs?$AAs?$AA?5?$AAs?$AAt?$AAd?$AA?3?$AA?3?$AA_?$AAT?$AAm?$AAa?$AAp?$AA_?$AAt?$AAr?$AAa?$AAi@ 00423580     WkeWebkit.obj
 0002:000037a0       ??_C@_1FA@HNFOKDLB@?$AA?$CC?$AAm?$AAa?$AAp?$AA?1?$AAs?$AAe?$AAt?$AA?5?$AAi?$AAn?$AAs?$AAe?$AAr?$AAt?$AA?5?$AAi?$AAt?$AAe?$AAr?$AAa?$AAt?$AAo?$AAr?$AA?5?$AAo?$AAu?$AAt?$AAs?$AAi?$AAd?$AAe@ 004237a0     WkeWebkit.obj
 0002:00003800       ??_C@_1EG@OKCGOALM@?$AAm?$AAa?$AAp?$AA?1?$AAs?$AAe?$AAt?$AA?5?$AAi?$AAt?$AAe?$AAr?$AAa?$AAt?$AAo?$AAr?$AA?5?$AAn?$AAo?$AAt?$AA?5?$AAd?$AAe?$AAc?$AAr?$AAe?$AAm?$AAe?$AAn?$AAt?$AAa?$AAb@ 00423800     WkeWebkit.obj
 0002:00003858       ??_C@_1BEI@FFNBIOHE@?$AAs?$AAt?$AAd?$AA?3?$AA?3?$AA_?$AAT?$AAr?$AAe?$AAe?$AA_?$AAc?$AAo?$AAn?$AAs?$AAt?$AA_?$AAi?$AAt?$AAe?$AAr?$AAa?$AAt?$AAo?$AAr?$AA?$DM?$AAc?$AAl?$AAa?$AAs?$AAs?$AA?5@ 00423858     WkeWebkit.obj
 0002:000039e8       ??_C@_1EK@OIBHPACE@?$AA?$CC?$AAm?$AAa?$AAp?$AA?1?$AAs?$AAe?$AAt?$AA?5?$AAi?$AAt?$AAe?$AAr?$AAa?$AAt?$AAo?$AAr?$AA?5?$AAn?$AAo?$AAt?$AA?5?$AAd?$AAe?$AAc?$AAr?$AAe?$AAm?$AAe?$AAn?$AAt?$AAa@ 004239e8     WkeWebkit.obj
 0002:00003a40       ??_C@_0BE@JONHPENG@map?1set?$DMT?$DO?5too?5long?$AA@ 00423a40     WkeWebkit.obj
 0002:00003a5c       ??_7type_info@@6B@         00423a5c     MSVCRTD:std_type_info_static.obj
 0002:00003a68       ??_C@_1EC@JIJBPKFM@?$AAa?$AAp?$AAi?$AA?9?$AAm?$AAs?$AA?9?$AAw?$AAi?$AAn?$AA?9?$AAc?$AAo?$AAr?$AAe?$AA?9?$AAs?$AAy?$AAn?$AAc?$AAh?$AA?9?$AAl?$AA1?$AA?9?$AA2?$AA?9?$AA0?$AA?4?$AAd?$AAl?$AAl@ 00423a68     MSVCRTD:thread_safe_statics.obj
 0002:00003ab8       ??_C@_1BK@MGMFAEKH@?$AAk?$AAe?$AAr?$AAn?$AAe?$AAl?$AA3?$AA2?$AA?4?$AAd?$AAl?$AAl?$AA?$AA@ 00423ab8     MSVCRTD:thread_safe_statics.obj
 0002:00003ad8       ??_C@_0BM@HLJJNPAH@InitializeConditionVariable?$AA@ 00423ad8     MSVCRTD:thread_safe_statics.obj
 0002:00003afc       ??_C@_0BJ@JEBJOJFJ@SleepConditionVariableCS?$AA@ 00423afc     MSVCRTD:thread_safe_statics.obj
 0002:00003b1c       ??_C@_0BJ@PGPPEPCC@WakeAllConditionVariable?$AA@ 00423b1c     MSVCRTD:thread_safe_statics.obj
 0002:00003b40       ??_C@_1HK@LKKBAJNK@?$AAf?$AA?3?$AA?2?$AAd?$AAd?$AA?2?$AAv?$AAc?$AAt?$AAo?$AAo?$AAl?$AAs?$AA?2?$AAc?$AAr?$AAt?$AA?2?$AAv?$AAc?$AAs?$AAt?$AAa?$AAr?$AAt?$AAu?$AAp?$AA?2?$AAs?$AAr?$AAc?$AA?2@ 00423b40     MSVCRTD:thread_safe_statics.obj
 0002:00003bd8       ??_7exception@std@@6B@     00423bd8     MSVCRTD:throw_bad_alloc.obj
 0002:00003be4       ??_C@_0BC@EOODALEL@Unknown?5exception?$AA@ 00423be4     MSVCRTD:throw_bad_alloc.obj
 0002:00003c00       ??_7bad_alloc@std@@6B@     00423c00     MSVCRTD:throw_bad_alloc.obj
 0002:00003c0c       ??_C@_0P@GHFPNOJB@bad?5allocation?$AA@ 00423c0c     MSVCRTD:throw_bad_alloc.obj
 0002:00003c24       ??_7bad_array_new_length@std@@6B@ 00423c24     MSVCRTD:throw_bad_alloc.obj
 0002:00003c30       ??_C@_0BF@KINCDENJ@bad?5array?5new?5length?$AA@ 00423c30     MSVCRTD:throw_bad_alloc.obj
 0002:00003d08       ??_C@_0NN@NGPKDKPD@The?5value?5of?5ESP?5was?5not?5properl@ 00423d08     MSVCRTD:_error_.obj
 0002:00003e18       ??_C@_0BBN@GPMLNJCF@A?5cast?5to?5a?5smaller?5data?5type?5ha@ 00423e18     MSVCRTD:_error_.obj
 0002:00003f70       ??_C@_0BN@FFOINMNJ@Stack?5memory?5was?5corrupted?6?$AN?$AA@ 00423f70     MSVCRTD:_error_.obj
 0002:00003f94       ??_C@_0DG@HKJMLLLP@A?5local?5variable?5was?5used?5before@ 00423f94     MSVCRTD:_error_.obj
 0002:00003fd4       ??_C@_0CM@NGINOKPC@Stack?5memory?5around?5_alloca?5was?5@ 00423fd4     MSVCRTD:_error_.obj
 0002:00004008       ??_C@_0BO@GNIAFIKK@Unknown?5Runtime?5Check?5Error?6?$AN?$AA@ 00424008     MSVCRTD:_error_.obj
 0002:00004030       ??_C@_1GM@OLMCBDMB@?$AAR?$AAu?$AAn?$AAt?$AAi?$AAm?$AAe?$AA?5?$AAC?$AAh?$AAe?$AAc?$AAk?$AA?5?$AAE?$AAr?$AAr?$AAo?$AAr?$AA?4?$AA?6?$AA?$AN?$AA?5?$AAU?$AAn?$AAa?$AAb?$AAl?$AAe?$AA?5?$AAt?$AAo@ 00424030     MSVCRTD:_error_.obj
 0002:000040b8       ??_C@_1EA@NFKNIFJP@?$AAR?$AAu?$AAn?$AA?9?$AAT?$AAi?$AAm?$AAe?$AA?5?$AAC?$AAh?$AAe?$AAc?$AAk?$AA?5?$AAF?$AAa?$AAi?$AAl?$AAu?$AAr?$AAe?$AA?5?$AA?$CD?$AA?$CF?$AAd?$AA?5?$AA?9?$AA?5?$AA?$CF?$AAs?$AA?$AA@ 004240b8     MSVCRTD:_error_.obj
 0002:00004104       ??_C@_0BB@PFFGGCJP@Unknown?5Filename?$AA@ 00424104     MSVCRTD:_error_.obj
 0002:00004118       ??_C@_0BE@GNBOBNCK@Unknown?5Module?5Name?$AA@ 00424118     MSVCRTD:_error_.obj
 0002:00004130       ??_C@_0CA@IODNCDPG@Run?9Time?5Check?5Failure?5?$CD?$CFd?5?9?5?$CFs?$AA@ 00424130     MSVCRTD:_error_.obj
 0002:00004158       ??_C@_0CG@IAFNJNEE@Stack?5corrupted?5near?5unknown?5var@ 00424158     MSVCRTD:_error_.obj
 0002:00004188       ??_C@_05MKKEDADM@?$CF?42X?5?$AA@ 00424188     MSVCRTD:_error_.obj
 0002:00004190       ??_C@_0EJ@LJKNEOLN@Stack?5area?5around?5_alloca?5memory@ 00424190     MSVCRTD:_error_.obj
 0002:000041e8       ??_C@_01EEMJAFIK@?6?$AA@   004241e8     MSVCRTD:_error_.obj
 0002:000041ec       ??_C@_02LLMPMKNF@?$DO?5?$AA@ 004241ec     MSVCRTD:_error_.obj
 0002:000041f0       ??_C@_08OMAHNMHJ@?6Data?3?5?$DM?$AA@ 004241f0     MSVCRTD:_error_.obj
 0002:000041fc       ??_C@_0CK@DKGBICFE@?6Allocation?5number?5within?5this?5f@ 004241fc     MSVCRTD:_error_.obj
 0002:00004230       ??_C@_07DFDJCKFN@?6Size?3?5?$AA@ 00424230     MSVCRTD:_error_.obj
 0002:0000423c       ??_C@_0N@MHFFIMFG@?6Address?3?50x?$AA@ 0042423c     MSVCRTD:_error_.obj
 0002:00004250       ??_C@_0EI@CLEPFNGI@Stack?5area?5around?5_alloca?5memory@ 00424250     MSVCRTD:_error_.obj
 0002:000042a8       ??_C@_0BK@ODNDAGKB@?$CFs?$CFs?$CFp?$CFs?$CFzd?$CFs?$CFd?$CFs?$CFs?$CFs?$CFs?$CFs?$AA@ 004242a8     MSVCRTD:_error_.obj
 0002:000042c8       ??_C@_0DE@OHJBPMBP@A?5variable?5is?5being?5used?5without@ 004242c8     MSVCRTD:_error_.obj
 0002:0000432c       ??_C@_0BJ@HEGAHDFO@Stack?5pointer?5corruption?$AA@ 0042432c     MSVCRTD:_userapi_.obj
 0002:0000434c       ??_C@_0CK@FEGOIOPB@Cast?5to?5smaller?5type?5causing?5los@ 0042434c     MSVCRTD:_userapi_.obj
 0002:00004380       ??_C@_0BI@CIGMDCBH@Stack?5memory?5corruption?$AA@ 00424380     MSVCRTD:_userapi_.obj
 0002:0000439c       ??_C@_0CK@CNLNOEPB@Local?5variable?5used?5before?5initi@ 0042439c     MSVCRTD:_userapi_.obj
 0002:000043d0       ??_C@_0BP@OGBCLIBO@Stack?5around?5_alloca?5corrupted?$AA@ 004243d0     MSVCRTD:_userapi_.obj
 0002:00004450       ??_C@_1EI@MLPKHBGE@?$AAa?$AAp?$AAi?$AA?9?$AAm?$AAs?$AA?9?$AAw?$AAi?$AAn?$AA?9?$AAc?$AAo?$AAr?$AAe?$AA?9?$AAr?$AAe?$AAg?$AAi?$AAs?$AAt?$AAr?$AAy?$AA?9?$AAl?$AA1?$AA?9?$AA1?$AA?9?$AA0?$AA?4@ 00424450     MSVCRTD:_pdblkup_.obj
 0002:000044a8       ??_C@_1BK@JHLNAEJL@?$AAa?$AAd?$AAv?$AAa?$AAp?$AAi?$AA3?$AA2?$AA?4?$AAd?$AAl?$AAl?$AA?$AA@ 004244a8     MSVCRTD:_pdblkup_.obj
 0002:000044c8       ??_C@_0O@COHOBMLB@RegOpenKeyExW?$AA@ 004244c8     MSVCRTD:_pdblkup_.obj
 0002:000044d8       ??_C@_0BB@GLNAEDBD@RegQueryValueExW?$AA@ 004244d8     MSVCRTD:_pdblkup_.obj
 0002:000044ec       ??_C@_0M@HLOHPNFA@RegCloseKey?$AA@ 004244ec     MSVCRTD:_pdblkup_.obj
 0002:00004500       ??_C@_1HE@EBEAGLFB@?$AAS?$AAO?$AAF?$AAT?$AAW?$AAA?$AAR?$AAE?$AA?2?$AAW?$AAo?$AAw?$AA6?$AA4?$AA3?$AA2?$AAN?$AAo?$AAd?$AAe?$AA?2?$AAM?$AAi?$AAc?$AAr?$AAo?$AAs?$AAo?$AAf?$AAt?$AA?2?$AAV@ 00424500     MSVCRTD:_pdblkup_.obj
 0002:0000458c       ??_C@_1BG@EABPBLLF@?$AAP?$AAr?$AAo?$AAd?$AAu?$AAc?$AAt?$AAD?$AAi?$AAr?$AA?$AA@ 0042458c     MSVCRTD:_pdblkup_.obj
 0002:000045cc       ??_C@_1BC@JINFINNJ@?$AAM?$AAS?$AAP?$AAD?$AAB?$AA1?$AA4?$AA0?$AA?$AA@ 004245cc     MSVCRTD:_pdblkup_.obj
 0002:000045e4       ??_C@_0BB@KCIACLNC@PDBOpenValidate5?$AA@ 004245e4     MSVCRTD:_pdblkup_.obj
 0002:000045f8       ??_C@_01KDCPPGHE@r?$AA@    004245f8     MSVCRTD:_pdblkup_.obj
 0002:00004638       __load_config_used         00424638     MSVCRTD:loadcfg.obj
 0002:00004870       __tls_used                 00424870     MSVCRTD:tlssup.obj
 0002:0000498c       ??_R3INotifyUI@DuiLib@@8   0042498c     MainWnd.obj
 0002:000049a0       ??_R2INotifyUI@DuiLib@@8   004249a0     MainWnd.obj
 0002:000049a8       ??_R1A@?0A@EA@INotifyUI@DuiLib@@8 004249a8     MainWnd.obj
 0002:000049cc       ??_R3IMessageFilterUI@DuiLib@@8 004249cc     MainWnd.obj
 0002:000049e0       ??_R2IMessageFilterUI@DuiLib@@8 004249e0     MainWnd.obj
 0002:000049e8       ??_R1A@?0A@EA@IMessageFilterUI@DuiLib@@8 004249e8     MainWnd.obj
 0002:00004a0c       ??_R3IDialogBuilderCallback@DuiLib@@8 00424a0c     MainWnd.obj
 0002:00004a20       ??_R2IDialogBuilderCallback@DuiLib@@8 00424a20     MainWnd.obj
 0002:00004a28       ??_R1A@?0A@EA@IDialogBuilderCallback@DuiLib@@8 00424a28     MainWnd.obj
 0002:00004a4c       ??_R4CBrowserTab@@6B@      00424a4c     MainWnd.obj
 0002:00004a64       ??_R3CBrowserTab@@8        00424a64     MainWnd.obj
 0002:00004a78       ??_R2CBrowserTab@@8        00424a78     MainWnd.obj
 0002:00004a94       ??_R1A@?0A@EA@CBrowserTab@@8 00424a94     MainWnd.obj
 0002:00004ab8       ??_R1A@?0A@EA@COptionUI@DuiLib@@8 00424ab8     MainWnd.obj
 0002:00004adc       ??_R3COptionUI@DuiLib@@8   00424adc     MainWnd.obj
 0002:00004af0       ??_R2COptionUI@DuiLib@@8   00424af0     MainWnd.obj
 0002:00004b04       ??_R1A@?0A@EA@CButtonUI@DuiLib@@8 00424b04     MainWnd.obj
 0002:00004b28       ??_R3CButtonUI@DuiLib@@8   00424b28     MainWnd.obj
 0002:00004b3c       ??_R2CButtonUI@DuiLib@@8   00424b3c     MainWnd.obj
 0002:00004b4c       ??_R1A@?0A@EA@CLabelUI@DuiLib@@8 00424b4c     MainWnd.obj
 0002:00004b70       ??_R3CLabelUI@DuiLib@@8    00424b70     MainWnd.obj
 0002:00004b84       ??_R2CLabelUI@DuiLib@@8    00424b84     MainWnd.obj
 0002:00004b90       ??_R1A@?0A@EA@CControlUI@DuiLib@@8 00424b90     MainWnd.obj
 0002:00004bb4       ??_R3CControlUI@DuiLib@@8  00424bb4     MainWnd.obj
 0002:00004bc8       ??_R2CControlUI@DuiLib@@8  00424bc8     MainWnd.obj
 0002:00004bd0       ??_R4IWkeCallback@@6B@     00424bd0     MainWnd.obj
 0002:00004be8       ??_R3IWkeCallback@@8       00424be8     MainWnd.obj
 0002:00004bfc       ??_R2IWkeCallback@@8       00424bfc     MainWnd.obj
 0002:00004c04       ??_R1A@?0A@EA@IWkeCallback@@8 00424c04     MainWnd.obj
 0002:00004c28       ??_R4CMainWnd@@6BCWindowWnd@DuiLib@@@ 00424c28     MainWnd.obj
 0002:00004c40       ??_R3CMainWnd@@8           00424c40     MainWnd.obj
 0002:00004c54       ??_R2CMainWnd@@8           00424c54     MainWnd.obj
 0002:00004c80       ??_R1A@?0A@EA@CMainWnd@@8  00424c80     MainWnd.obj
 0002:00004ca4       ??_R1A@?0A@EA@WindowImplBase@DuiLib@@8 00424ca4     MainWnd.obj
 0002:00004cc8       ??_R3WindowImplBase@DuiLib@@8 00424cc8     MainWnd.obj
 0002:00004cdc       ??_R2WindowImplBase@DuiLib@@8 00424cdc     MainWnd.obj
 0002:00004d00       ??_R1A@?0A@EA@CWindowWnd@DuiLib@@8 00424d00     MainWnd.obj
 0002:00004d24       ??_R3CWindowWnd@DuiLib@@8  00424d24     MainWnd.obj
 0002:00004d38       ??_R2CWindowWnd@DuiLib@@8  00424d38     MainWnd.obj
 0002:00004d40       ??_R1BA@?0A@EA@CNotifyPump@DuiLib@@8 00424d40     MainWnd.obj
 0002:00004d64       ??_R3CNotifyPump@DuiLib@@8 00424d64     MainWnd.obj
 0002:00004d78       ??_R2CNotifyPump@DuiLib@@8 00424d78     MainWnd.obj
 0002:00004d80       ??_R1A@?0A@EA@CNotifyPump@DuiLib@@8 00424d80     MainWnd.obj
 0002:00004da4       ??_R1CA@?0A@EA@INotifyUI@DuiLib@@8 00424da4     MainWnd.obj
 0002:00004dc8       ??_R1CE@?0A@EA@IMessageFilterUI@DuiLib@@8 00424dc8     MainWnd.obj
 0002:00004dec       ??_R1CI@?0A@EA@IDialogBuilderCallback@DuiLib@@8 00424dec     MainWnd.obj
 0002:00004e10       ??_R1CM@?0A@EA@IQueryControlText@DuiLib@@8 00424e10     MainWnd.obj
 0002:00004e34       ??_R3IQueryControlText@DuiLib@@8 00424e34     MainWnd.obj
 0002:00004e48       ??_R2IQueryControlText@DuiLib@@8 00424e48     MainWnd.obj
 0002:00004e50       ??_R1A@?0A@EA@IQueryControlText@DuiLib@@8 00424e50     MainWnd.obj
 0002:00004e74       ??_R1EHM@?0A@EA@IWkeCallback@@8 00424e74     MainWnd.obj
 0002:00004e98       ??_R4CMainWnd@@6BCNotifyPump@DuiLib@@@ 00424e98     MainWnd.obj
 0002:00004eb0       ??_R4CMainWnd@@6BINotifyUI@DuiLib@@@ 00424eb0     MainWnd.obj
 0002:00004ec8       ??_R4CMainWnd@@6BIMessageFilterUI@DuiLib@@@ 00424ec8     MainWnd.obj
 0002:00004ee0       ??_R4CMainWnd@@6BIDialogBuilderCallback@DuiLib@@@ 00424ee0     MainWnd.obj
 0002:00004ef8       ??_R4CMainWnd@@6BIQueryControlText@DuiLib@@@ 00424ef8     MainWnd.obj
 0002:00004f10       ??_R4CMainWnd@@6B@         00424f10     MainWnd.obj
 0002:00004f28       ??_R4CMsgWnd@@6BCWindowWnd@DuiLib@@@ 00424f28     MsgWnd.obj
 0002:00004f40       ??_R3CMsgWnd@@8            00424f40     MsgWnd.obj
 0002:00004f54       ??_R2CMsgWnd@@8            00424f54     MsgWnd.obj
 0002:00004f7c       ??_R1A@?0A@EA@CMsgWnd@@8   00424f7c     MsgWnd.obj
 0002:00004fa0       ??_R4CMsgWnd@@6BCNotifyPump@DuiLib@@@ 00424fa0     MsgWnd.obj
 0002:00004fb8       ??_R4CMsgWnd@@6BINotifyUI@DuiLib@@@ 00424fb8     MsgWnd.obj
 0002:00004fd0       ??_R4CMsgWnd@@6BIMessageFilterUI@DuiLib@@@ 00424fd0     MsgWnd.obj
 0002:00004fe8       ??_R4CMsgWnd@@6BIDialogBuilderCallback@DuiLib@@@ 00424fe8     MsgWnd.obj
 0002:00005000       ??_R4CMsgWnd@@6BIQueryControlText@DuiLib@@@ 00425000     MsgWnd.obj
 0002:00005018       ??_R4CWkeWebkitUI@@6B@     00425018     WkeWebkit.obj
 0002:00005030       ??_R3CWkeWebkitUI@@8       00425030     WkeWebkit.obj
 0002:00005044       ??_R2CWkeWebkitUI@@8       00425044     WkeWebkit.obj
 0002:00005050       ??_R1A@?0A@EA@CWkeWebkitUI@@8 00425050     WkeWebkit.obj
 0002:00005074       ??_R4type_info@@6B@        00425074     MSVCRTD:std_type_info_static.obj
 0002:0000508c       ??_R3type_info@@8          0042508c     MSVCRTD:std_type_info_static.obj
 0002:000050a0       ??_R2type_info@@8          004250a0     MSVCRTD:std_type_info_static.obj
 0002:000050a8       ??_R1A@?0A@EA@type_info@@8 004250a8     MSVCRTD:std_type_info_static.obj
 0002:000050cc       ??_R4exception@std@@6B@    004250cc     MSVCRTD:throw_bad_alloc.obj
 0002:000050e4       ??_R3exception@std@@8      004250e4     MSVCRTD:throw_bad_alloc.obj
 0002:000050f8       ??_R2exception@std@@8      004250f8     MSVCRTD:throw_bad_alloc.obj
 0002:00005100       ??_R1A@?0A@EA@exception@std@@8 00425100     MSVCRTD:throw_bad_alloc.obj
 0002:00005124       ??_R4bad_alloc@std@@6B@    00425124     MSVCRTD:throw_bad_alloc.obj
 0002:0000513c       ??_R3bad_alloc@std@@8      0042513c     MSVCRTD:throw_bad_alloc.obj
 0002:00005150       ??_R2bad_alloc@std@@8      00425150     MSVCRTD:throw_bad_alloc.obj
 0002:0000515c       ??_R1A@?0A@EA@bad_alloc@std@@8 0042515c     MSVCRTD:throw_bad_alloc.obj
 0002:00005180       ??_R4bad_array_new_length@std@@6B@ 00425180     MSVCRTD:throw_bad_alloc.obj
 0002:00005198       ??_R3bad_array_new_length@std@@8 00425198     MSVCRTD:throw_bad_alloc.obj
 0002:000051ac       ??_R2bad_array_new_length@std@@8 004251ac     MSVCRTD:throw_bad_alloc.obj
 0002:000051bc       ??_R1A@?0A@EA@bad_array_new_length@std@@8 004251bc     MSVCRTD:throw_bad_alloc.obj
 0002:00005310       ___safe_se_handler_table   00425310     <linker-defined>
 0002:00005704       ___rtc_iaa                 00425704     MSVCRTD:_initsect_.obj
 0002:00005920       ___rtc_izz                 00425920     MSVCRTD:_initsect_.obj
 0002:00005a24       ___rtc_taa                 00425a24     MSVCRTD:_initsect_.obj
 0002:00005c40       ___rtc_tzz                 00425c40     MSVCRTD:_initsect_.obj
 0002:00006e78       __TI2?AVbad_alloc@std@@    00426e78     MSVCRTD:throw_bad_alloc.obj
 0002:00006e8c       __CTA2?AVbad_alloc@std@@   00426e8c     MSVCRTD:throw_bad_alloc.obj
 0002:00006e9c       __CT??_R0?AVbad_alloc@std@@@8??0bad_alloc@std@@QAE@ABV01@@Z12 00426e9c     MSVCRTD:throw_bad_alloc.obj
 0002:00006ebc       __CT??_R0?AVexception@std@@@8??0exception@std@@QAE@ABV01@@Z12 00426ebc     MSVCRTD:throw_bad_alloc.obj
 0002:00006edc       __TI3?AVbad_array_new_length@std@@ 00426edc     MSVCRTD:throw_bad_alloc.obj
 0002:00006ef0       __CTA3?AVbad_array_new_length@std@@ 00426ef0     MSVCRTD:throw_bad_alloc.obj
 0002:00006f04       __CT??_R0?AVbad_array_new_length@std@@@8??0bad_array_new_length@std@@QAE@ABV01@@Z12 00426f04     MSVCRTD:throw_bad_alloc.obj
 0003:00000000       ___scrt_native_dllmain_reason 00428000     MSVCRTD:utility.obj
 0003:00000004       ___security_cookie         00428004     MSVCRTD:gs_cookie.obj
 0003:00000008       ___security_cookie_complement 00428008     MSVCRTD:gs_cookie.obj
 0003:00000010       __Init_global_epoch        00428010     MSVCRTD:thread_safe_statics.obj
 0003:00000020       ___isa_enabled             00428020     MSVCRTD:_cpu_disp_.obj
 0003:00000024       ?_RTC_ErrorLevels@@3PAHA   00428024     MSVCRTD:_error_.obj
 0003:0000003c       ___scrt_default_matherr    0042803c     MSVCRTD:matherr.obj
 0003:00000040       ___scrt_ucrt_dll_is_in_use 00428040     MSVCRTD:ucrt_stubs.obj
 0003:0000014c       ??_R0?AVINotifyUI@DuiLib@@@8 0042814c     MainWnd.obj
 0003:00000174       ??_R0?AVIMessageFilterUI@DuiLib@@@8 00428174     MainWnd.obj
 0003:000001a4       ??_R0?AVIDialogBuilderCallback@DuiLib@@@8 004281a4     MainWnd.obj
 0003:000001d8       ??_R0?AVCBrowserTab@@@8    004281d8     MainWnd.obj
 0003:000001f8       ??_R0?AVCOptionUI@DuiLib@@@8 004281f8     MainWnd.obj
 0003:00000220       ??_R0?AVCButtonUI@DuiLib@@@8 00428220     MainWnd.obj
 0003:00000248       ??_R0?AVCLabelUI@DuiLib@@@8 00428248     MainWnd.obj
 0003:0000026c       ??_R0?AVCControlUI@DuiLib@@@8 0042826c     MainWnd.obj
 0003:00000294       ??_R0?AVIWkeCallback@@@8   00428294     MainWnd.obj
 0003:000002b4       ??_R0?AVCMainWnd@@@8       004282b4     MainWnd.obj
 0003:000002d0       ??_R0?AVWindowImplBase@DuiLib@@@8 004282d0     MainWnd.obj
 0003:000002fc       ??_R0?AVCWindowWnd@DuiLib@@@8 004282fc     MainWnd.obj
 0003:00000324       ??_R0?AVCNotifyPump@DuiLib@@@8 00428324     MainWnd.obj
 0003:0000034c       ??_R0?AVIQueryControlText@DuiLib@@@8 0042834c     MainWnd.obj
 0003:0000037c       ??_R0?AVCMsgWnd@@@8        0042837c     MsgWnd.obj
 0003:00000398       ??_R0?AVCWkeWebkitUI@@@8   00428398     WkeWebkit.obj
 0003:000003b8       ??_R0?AVtype_info@@@8      004283b8     MSVCRTD:std_type_info_static.obj
 0003:000003d4       ??_R0?AVbad_alloc@std@@@8  004283d4     MSVCRTD:throw_bad_alloc.obj
 0003:000003f8       ??_R0?AVexception@std@@@8  004283f8     MSVCRTD:throw_bad_alloc.obj
 0003:0000041c       ??_R0?AVbad_array_new_length@std@@@8 0042841c     MSVCRTD:throw_bad_alloc.obj
 0003:00000560       ?_messageEntries@CMainWnd@@0QBUDUI_MSGMAP_ENTRY@DuiLib@@B 00428560     MainWnd.obj
 0003:00000d80       ?sHomePage@@3VCDuiString@DuiLib@@A 00428d80     MainWnd.obj
 0003:00000e20       ?_messageEntries@CMsgWnd@@0QBUDUI_MSGMAP_ENTRY@DuiLib@@B 00428e20     MsgWnd.obj
 0003:000010d4       ___@@_PchSym_@00@UdlipUwfroryPfogrnzgvRnzhgviRRRUgvnkUdpvyildhviUwvyftUhgwzucOlyq@4B2008FD98C1DD4 004290d4     StdAfx.obj
 0003:00001118       ?m_mapWke2UI@CWkeWebkitUI@@0V?$map@PAVCWebView@wke@@PAVCWkeWebkitUI@@U?$less@PAVCWebView@wke@@@std@@V?$allocator@U?$pair@QAVCWebView@wke@@PAVCWkeWebkitUI@@@std@@@5@@std@@A 00429118     WkeWebkit.obj
 0003:0000114c       ___scrt_current_native_startup_state 0042914c     MSVCRTD:utility.obj
 0003:00001150       ___scrt_native_startup_lock 00429150     MSVCRTD:utility.obj
 0003:00001190       __tls_index                00429190     MSVCRTD:tlssup.obj
 0003:00001194       ___isa_available           00429194     MSVCRTD:_cpu_disp_.obj
 0003:00001198       ___favor                   00429198     MSVCRTD:_cpu_disp_.obj
 0003:000011a0       ___scrt_debugger_hook_flag 004291a0     MSVCRTD:utility_desktop.obj
 0003:000011a8       ?_OptionsStorage@?1??__local_stdio_printf_options@@9@4_KA 004291a8     MSVCRTD:_error_.obj
 0003:00001580       ?__type_info_root_node@@3U__type_info_node@@A 00429580     MSVCRTD:tncleanup.obj
 0003:00001590       ?_OptionsStorage@?1??__local_stdio_scanf_options@@9@4_KA 00429590     MSVCRTD:default_local_stdio_options.obj
 0003:000015a4       ___dyn_tls_dtor_callback   004295a4     <common>
 0003:000015b0       ___dyn_tls_init_callback   004295b0     <common>
 0004:00000000       __imp_?Release@CResourceManager@DuiLib@@QAEXXZ 0042a000     DuiLib_d:DuiLib_d.dll
 0004:00000004       __imp_?SetText@CControlUI@DuiLib@@UAEXPB_W@Z 0042a004     DuiLib_d:DuiLib_d.dll
 0004:00000008       __imp_?SetManager@CControlUI@DuiLib@@UAEXPAVCPaintManagerUI@2@PAV12@_N@Z 0042a008     DuiLib_d:DuiLib_d.dll
 0004:0000000c       __imp_?SetEnabled@CControlUI@DuiLib@@UAEX_N@Z 0042a00c     DuiLib_d:DuiLib_d.dll
 0004:00000010       __imp_?SetAttribute@CControlUI@DuiLib@@UAEXPB_W0@Z 0042a010     DuiLib_d:DuiLib_d.dll
 0004:00000014       __imp_?PaintText@CControlUI@DuiLib@@UAEXPAUHDC__@@@Z 0042a014     DuiLib_d:DuiLib_d.dll
 0004:00000018       __imp_?PaintStatusImage@CControlUI@DuiLib@@UAEXPAUHDC__@@@Z 0042a018     DuiLib_d:DuiLib_d.dll
 0004:0000001c       __imp_?PaintForeImage@CControlUI@DuiLib@@UAEXPAUHDC__@@@Z 0042a01c     DuiLib_d:DuiLib_d.dll
 0004:00000020       __imp_?PaintBkColor@CControlUI@DuiLib@@UAEXPAUHDC__@@@Z 0042a020     DuiLib_d:DuiLib_d.dll
 0004:00000024       __imp_?GetControlFlags@CControlUI@DuiLib@@UBEIXZ 0042a024     DuiLib_d:DuiLib_d.dll
 0004:00000028       __imp_?EstimateSize@CControlUI@DuiLib@@UAE?AUtagSIZE@@U3@@Z 0042a028     DuiLib_d:DuiLib_d.dll
 0004:0000002c       __imp_?DoPostPaint@CControlUI@DuiLib@@UAEXPAUHDC__@@ABUtagRECT@@@Z 0042a02c     DuiLib_d:DuiLib_d.dll
 0004:00000030       __imp_?Activate@CControlUI@DuiLib@@UAE_NXZ 0042a030     DuiLib_d:DuiLib_d.dll
 0004:00000034       __imp_?DoPaint@CControlUI@DuiLib@@UAEXPAUHDC__@@ABUtagRECT@@@Z 0042a034     DuiLib_d:DuiLib_d.dll
 0004:00000038       __imp_?DoEvent@CControlUI@DuiLib@@UAEXAAUtagTEventUI@2@@Z 0042a038     DuiLib_d:DuiLib_d.dll
 0004:0000003c       __imp_?DoInit@CControlUI@DuiLib@@UAEXXZ 0042a03c     DuiLib_d:DuiLib_d.dll
 0004:00000040       __imp_?Invalidate@CControlUI@DuiLib@@QAEXXZ 0042a040     DuiLib_d:DuiLib_d.dll
 0004:00000044       __imp_?SetTimer@CControlUI@DuiLib@@QAE_NII@Z 0042a044     DuiLib_d:DuiLib_d.dll
 0004:00000048       __imp_?GetInterface@CControlUI@DuiLib@@UAEPAXPB_W@Z 0042a048     DuiLib_d:DuiLib_d.dll
 0004:0000004c       __imp_??1CControlUI@DuiLib@@UAE@XZ 0042a04c     DuiLib_d:DuiLib_d.dll
 0004:00000050       __imp_??0CControlUI@DuiLib@@QAE@XZ 0042a050     DuiLib_d:DuiLib_d.dll
 0004:00000054       __imp_?KillTimer@CPaintManagerUI@DuiLib@@QAE_NPAVCControlUI@2@I@Z 0042a054     DuiLib_d:DuiLib_d.dll
 0004:00000058       __imp_?CenterWindow@CWindowWnd@DuiLib@@QAEXXZ 0042a058     DuiLib_d:DuiLib_d.dll
 0004:0000005c       __imp_?Create@CWindowWnd@DuiLib@@QAEPAUHWND__@@PAU3@PB_WKKHHHHPAUHMENU__@@@Z 0042a05c     DuiLib_d:DuiLib_d.dll
 0004:00000060       __imp_?MessageLoop@CPaintManagerUI@DuiLib@@SAXXZ 0042a060     DuiLib_d:DuiLib_d.dll
 0004:00000064       __imp_?LoadPlugin@CPaintManagerUI@DuiLib@@SA_NPB_W@Z 0042a064     DuiLib_d:DuiLib_d.dll
 0004:00000068       __imp_?GetResourceType@CPaintManagerUI@DuiLib@@SAHXZ 0042a068     DuiLib_d:DuiLib_d.dll
 0004:0000006c       __imp_?SetResourceType@CPaintManagerUI@DuiLib@@SAXH@Z 0042a06c     DuiLib_d:DuiLib_d.dll
 0004:00000070       __imp_?SetResourceZip@CPaintManagerUI@DuiLib@@SAXPB_W_N0@Z 0042a070     DuiLib_d:DuiLib_d.dll
 0004:00000074       __imp_?SetResourceZip@CPaintManagerUI@DuiLib@@SAXPAXIPB_W@Z 0042a074     DuiLib_d:DuiLib_d.dll
 0004:00000078       __imp_?SetResourcePath@CPaintManagerUI@DuiLib@@SAXPB_W@Z 0042a078     DuiLib_d:DuiLib_d.dll
 0004:0000007c       __imp_??0CDuiString@DuiLib@@QAE@XZ 0042a07c     DuiLib_d:DuiLib_d.dll
 0004:00000080       __imp_??0CDuiString@DuiLib@@QAE@PB_WH@Z 0042a080     DuiLib_d:DuiLib_d.dll
 0004:00000084       __imp_??1CDuiString@DuiLib@@QAE@XZ 0042a084     DuiLib_d:DuiLib_d.dll
 0004:00000088       __imp_?IsEmpty@CDuiString@DuiLib@@QBE_NXZ 0042a088     DuiLib_d:DuiLib_d.dll
 0004:0000008c       __imp_?GetData@CDuiString@DuiLib@@QBEPB_WXZ 0042a08c     DuiLib_d:DuiLib_d.dll
 0004:00000090       __imp_??BCDuiString@DuiLib@@QBEPB_WXZ 0042a090     DuiLib_d:DuiLib_d.dll
 0004:00000094       __imp_?CompareNoCase@CDuiString@DuiLib@@QBEHPB_W@Z 0042a094     DuiLib_d:DuiLib_d.dll
 0004:00000098       __imp_?MakeLower@CDuiString@DuiLib@@QAEXXZ 0042a098     DuiLib_d:DuiLib_d.dll
 0004:0000009c       __imp_?Format@CDuiString@DuiLib@@QAAHPB_WZZ 0042a09c     DuiLib_d:DuiLib_d.dll
 0004:000000a0       __imp_?FindControl@CPaintManagerUI@DuiLib@@QBEPAVCControlUI@2@PB_W@Z 0042a0a0     DuiLib_d:DuiLib_d.dll
 0004:000000a4       __imp_??BCWindowWnd@DuiLib@@QBEPAUHWND__@@XZ 0042a0a4     DuiLib_d:DuiLib_d.dll
 0004:000000a8       __imp_?SendMessageW@CWindowWnd@DuiLib@@QAEJIIJ@Z 0042a0a8     DuiLib_d:DuiLib_d.dll
 0004:000000ac       __imp_?HandleMessage@CWindowWnd@DuiLib@@MAEJIIJ@Z 0042a0ac     DuiLib_d:DuiLib_d.dll
 0004:000000b0       __imp_??0WindowImplBase@DuiLib@@QAE@XZ 0042a0b0     DuiLib_d:DuiLib_d.dll
 0004:000000b4       __imp_??1WindowImplBase@DuiLib@@UAE@XZ 0042a0b4     DuiLib_d:DuiLib_d.dll
 0004:000000b8       __imp_?OnFinalMessage@WindowImplBase@DuiLib@@UAEXPAUHWND__@@@Z 0042a0b8     DuiLib_d:DuiLib_d.dll
 0004:000000bc       __imp_?GetCurSel@CTabLayoutUI@DuiLib@@QBEHXZ 0042a0bc     DuiLib_d:DuiLib_d.dll
 0004:000000c0       __imp_?Activate@COptionUI@DuiLib@@UAE_NXZ 0042a0c0     DuiLib_d:DuiLib_d.dll
 0004:000000c4       __imp_?CreateControl@WindowImplBase@DuiLib@@UAEPAVCControlUI@2@PB_W@Z 0042a0c4     DuiLib_d:DuiLib_d.dll
 0004:000000c8       __imp_?EstimateSize@CLabelUI@DuiLib@@UAE?AUtagSIZE@@U3@@Z 0042a0c8     DuiLib_d:DuiLib_d.dll
 0004:000000cc       __imp_?Event@CControlUI@DuiLib@@UAEXAAUtagTEventUI@2@@Z 0042a0cc     DuiLib_d:DuiLib_d.dll
 0004:000000d0       __imp_?FindControl@CControlUI@DuiLib@@UAEPAV12@P6GPAV12@PAV12@PAX@Z1I@Z 0042a0d0     DuiLib_d:DuiLib_d.dll
 0004:000000d4       __imp_?GetAutoCalcWidth@CLabelUI@DuiLib@@UBE_NXZ 0042a0d4     DuiLib_d:DuiLib_d.dll
 0004:000000d8       __imp_?GetClassStyle@WindowImplBase@DuiLib@@UBEIXZ 0042a0d8     DuiLib_d:DuiLib_d.dll
 0004:000000dc       __imp_?GetClientPos@CControlUI@DuiLib@@UBE?AUtagRECT@@XZ 0042a0dc     DuiLib_d:DuiLib_d.dll
 0004:000000e0       __imp_?GetControlFlags@CButtonUI@DuiLib@@UBEIXZ 0042a0e0     DuiLib_d:DuiLib_d.dll
 0004:000000e4       __imp_?GetCursor@CControlUI@DuiLib@@UAEGXZ 0042a0e4     DuiLib_d:DuiLib_d.dll
 0004:000000e8       __imp_?GetDisabledImage@CButtonUI@DuiLib@@UAEPB_WXZ 0042a0e8     DuiLib_d:DuiLib_d.dll
 0004:000000ec       __imp_?GetFixedHeight@CControlUI@DuiLib@@UBEHXZ 0042a0ec     DuiLib_d:DuiLib_d.dll
 0004:000000f0       __imp_?GetFixedWidth@CControlUI@DuiLib@@UBEHXZ 0042a0f0     DuiLib_d:DuiLib_d.dll
 0004:000000f4       __imp_?GetFixedXY@CControlUI@DuiLib@@UBE?AUtagSIZE@@XZ 0042a0f4     DuiLib_d:DuiLib_d.dll
 0004:000000f8       __imp_?GetFloatAlign@CControlUI@DuiLib@@UBEIXZ 0042a0f8     DuiLib_d:DuiLib_d.dll
 0004:000000fc       __imp_?GetFloatPercent@CControlUI@DuiLib@@UBE?AUtagTPercentInfo@2@XZ 0042a0fc     DuiLib_d:DuiLib_d.dll
 0004:00000100       __imp_?GetFocusedImage@CButtonUI@DuiLib@@UAEPB_WXZ 0042a100     DuiLib_d:DuiLib_d.dll
 0004:00000104       __imp_?GetHeight@CControlUI@DuiLib@@UBEHXZ 0042a104     DuiLib_d:DuiLib_d.dll
 0004:00000108       __imp_?GetHotForeImage@CButtonUI@DuiLib@@UAEPB_WXZ 0042a108     DuiLib_d:DuiLib_d.dll
 0004:0000010c       __imp_?GetHotImage@CButtonUI@DuiLib@@UAEPB_WXZ 0042a10c     DuiLib_d:DuiLib_d.dll
 0004:00000110       __imp_?GetManager@CControlUI@DuiLib@@UBEPAVCPaintManagerUI@2@XZ 0042a110     DuiLib_d:DuiLib_d.dll
 0004:00000114       __imp_?GetManagerName@WindowImplBase@DuiLib@@MAEPB_WXZ 0042a114     DuiLib_d:DuiLib_d.dll
 0004:00000118       __imp_?GetMaxHeight@CControlUI@DuiLib@@UBEHXZ 0042a118     DuiLib_d:DuiLib_d.dll
 0004:0000011c       __imp_?GetMaxWidth@CControlUI@DuiLib@@UBEHXZ 0042a11c     DuiLib_d:DuiLib_d.dll
 0004:00000120       __imp_?GetMinHeight@CControlUI@DuiLib@@UBEHXZ 0042a120     DuiLib_d:DuiLib_d.dll
 0004:00000124       __imp_?GetMinWidth@CControlUI@DuiLib@@UBEHXZ 0042a124     DuiLib_d:DuiLib_d.dll
 0004:00000128       __imp_?GetName@CControlUI@DuiLib@@UBE?AVCDuiString@2@XZ 0042a128     DuiLib_d:DuiLib_d.dll
 0004:0000012c       __imp_?GetNormalImage@CButtonUI@DuiLib@@UAEPB_WXZ 0042a12c     DuiLib_d:DuiLib_d.dll
 0004:00000130       __imp_?GetPadding@CControlUI@DuiLib@@UBE?AUtagRECT@@XZ 0042a130     DuiLib_d:DuiLib_d.dll
 0004:00000134       __imp_?GetParent@CControlUI@DuiLib@@UBEPAV12@XZ 0042a134     DuiLib_d:DuiLib_d.dll
 0004:00000138       __imp_?GetPos@CControlUI@DuiLib@@UBEABUtagRECT@@XZ 0042a138     DuiLib_d:DuiLib_d.dll
 0004:0000013c       __imp_?GetPushedImage@CButtonUI@DuiLib@@UAEPB_WXZ 0042a13c     DuiLib_d:DuiLib_d.dll
 0004:00000140       __imp_?GetRelativePos@CControlUI@DuiLib@@UBE?AUtagRECT@@XZ 0042a140     DuiLib_d:DuiLib_d.dll
 0004:00000144       __imp_?GetSelectedStateImage@COptionUI@DuiLib@@UAEPB_WXZ 0042a144     DuiLib_d:DuiLib_d.dll
 0004:00000148       __imp_?GetShortcut@CControlUI@DuiLib@@UBE_WXZ 0042a148     DuiLib_d:DuiLib_d.dll
 0004:0000014c       __imp_?GetSkinType@WindowImplBase@DuiLib@@MAE?AVCDuiString@2@XZ 0042a14c     DuiLib_d:DuiLib_d.dll
 0004:00000150       __imp_?GetStateImage@CButtonUI@DuiLib@@UAEPB_WXZ 0042a150     DuiLib_d:DuiLib_d.dll
 0004:00000154       __imp_?GetStyle@WindowImplBase@DuiLib@@UAEJXZ 0042a154     DuiLib_d:DuiLib_d.dll
 0004:00000158       __imp_?GetSuperClassName@CWindowWnd@DuiLib@@MBEPB_WXZ 0042a158     DuiLib_d:DuiLib_d.dll
 0004:0000015c       __imp_?GetTag@CControlUI@DuiLib@@UBEIXZ 0042a15c     DuiLib_d:DuiLib_d.dll
 0004:00000160       __imp_?GetText@CControlUI@DuiLib@@UBE?AVCDuiString@2@XZ 0042a160     DuiLib_d:DuiLib_d.dll
 0004:00000164       __imp_?GetToolTip@CControlUI@DuiLib@@UBE?AVCDuiString@2@XZ 0042a164     DuiLib_d:DuiLib_d.dll
 0004:00000168       __imp_?GetToolTipWidth@CControlUI@DuiLib@@UAEHXZ 0042a168     DuiLib_d:DuiLib_d.dll
 0004:0000016c       __imp_?GetUserData@CControlUI@DuiLib@@UAEABVCDuiString@2@XZ 0042a16c     DuiLib_d:DuiLib_d.dll
 0004:00000170       __imp_?GetWidth@CControlUI@DuiLib@@UBEHXZ 0042a170     DuiLib_d:DuiLib_d.dll
 0004:00000174       __imp_?GetX@CControlUI@DuiLib@@UBEHXZ 0042a174     DuiLib_d:DuiLib_d.dll
 0004:00000178       __imp_?GetY@CControlUI@DuiLib@@UBEHXZ 0042a178     DuiLib_d:DuiLib_d.dll
 0004:0000017c       __imp_?HandleMessage@WindowImplBase@DuiLib@@UAEJIIJ@Z 0042a17c     DuiLib_d:DuiLib_d.dll
 0004:00000180       __imp_?Init@CControlUI@DuiLib@@UAEXXZ 0042a180     DuiLib_d:DuiLib_d.dll
 0004:00000184       __imp_?InitResource@WindowImplBase@DuiLib@@UAEXXZ 0042a184     DuiLib_d:DuiLib_d.dll
 0004:00000188       __imp_?IsContextMenuUsed@CControlUI@DuiLib@@UBE_NXZ 0042a188     DuiLib_d:DuiLib_d.dll
 0004:0000018c       __imp_?IsDragEnabled@CControlUI@DuiLib@@UBE_NXZ 0042a18c     DuiLib_d:DuiLib_d.dll
 0004:00000190       __imp_?IsDropEnabled@CControlUI@DuiLib@@UBE_NXZ 0042a190     DuiLib_d:DuiLib_d.dll
 0004:00000194       __imp_?IsEnabled@CControlUI@DuiLib@@UBE_NXZ 0042a194     DuiLib_d:DuiLib_d.dll
 0004:00000198       __imp_?IsFloat@CControlUI@DuiLib@@UBE_NXZ 0042a198     DuiLib_d:DuiLib_d.dll
 0004:0000019c       __imp_?IsFocused@CControlUI@DuiLib@@UBE_NXZ 0042a19c     DuiLib_d:DuiLib_d.dll
 0004:000001a0       __imp_?IsKeyboardEnabled@CControlUI@DuiLib@@UBE_NXZ 0042a1a0     DuiLib_d:DuiLib_d.dll
 0004:000001a4       __imp_?IsMouseEnabled@CControlUI@DuiLib@@UBE_NXZ 0042a1a4     DuiLib_d:DuiLib_d.dll
 0004:000001a8       __imp_?IsResourceText@CControlUI@DuiLib@@UBE_NXZ 0042a1a8     DuiLib_d:DuiLib_d.dll
 0004:000001ac       __imp_?IsVisible@CControlUI@DuiLib@@UBE_NXZ 0042a1ac     DuiLib_d:DuiLib_d.dll
 0004:000001b0       __imp_?MessageHandler@WindowImplBase@DuiLib@@UAEJIIJAA_N@Z 0042a1b0     DuiLib_d:DuiLib_d.dll
 0004:000001b4       __imp_?Move@CControlUI@DuiLib@@UAEXUtagSIZE@@_N@Z 0042a1b4     DuiLib_d:DuiLib_d.dll
 0004:000001b8       __imp_?Notify@WindowImplBase@DuiLib@@UAEXAAUtagTNotifyUI@2@@Z 0042a1b8     DuiLib_d:DuiLib_d.dll
 0004:000001bc       __imp_?OnChar@WindowImplBase@DuiLib@@UAEJIIJAAH@Z 0042a1bc     DuiLib_d:DuiLib_d.dll
 0004:000001c0       __imp_?OnClose@WindowImplBase@DuiLib@@UAEJIIJAAH@Z 0042a1c0     DuiLib_d:DuiLib_d.dll
 0004:000001c4       __imp_?OnCreate@WindowImplBase@DuiLib@@UAEJIIJAAH@Z 0042a1c4     DuiLib_d:DuiLib_d.dll
 0004:000001c8       __imp_?OnDestroy@WindowImplBase@DuiLib@@UAEJIIJAAH@Z 0042a1c8     DuiLib_d:DuiLib_d.dll
 0004:000001cc       __imp_?OnGetMinMaxInfo@WindowImplBase@DuiLib@@UAEJIIJAAH@Z 0042a1cc     DuiLib_d:DuiLib_d.dll
 0004:000001d0       __imp_?OnKeyDown@WindowImplBase@DuiLib@@UAEJIIJAAH@Z 0042a1d0     DuiLib_d:DuiLib_d.dll
 0004:000001d4       __imp_?OnKillFocus@WindowImplBase@DuiLib@@UAEJIIJAAH@Z 0042a1d4     DuiLib_d:DuiLib_d.dll
 0004:000001d8       __imp_?OnLButtonDown@WindowImplBase@DuiLib@@UAEJIIJAAH@Z 0042a1d8     DuiLib_d:DuiLib_d.dll
 0004:000001dc       __imp_?OnLButtonUp@WindowImplBase@DuiLib@@UAEJIIJAAH@Z 0042a1dc     DuiLib_d:DuiLib_d.dll
 0004:000001e0       __imp_?OnMouseHover@WindowImplBase@DuiLib@@UAEJIIJAAH@Z 0042a1e0     DuiLib_d:DuiLib_d.dll
 0004:000001e4       __imp_?OnMouseMove@WindowImplBase@DuiLib@@UAEJIIJAAH@Z 0042a1e4     DuiLib_d:DuiLib_d.dll
 0004:000001e8       __imp_?OnMouseWheel@WindowImplBase@DuiLib@@UAEJIIJAAH@Z 0042a1e8     DuiLib_d:DuiLib_d.dll
 0004:000001ec       __imp_?OnNcActivate@WindowImplBase@DuiLib@@UAEJIIJAAH@Z 0042a1ec     DuiLib_d:DuiLib_d.dll
 0004:000001f0       __imp_?OnNcCalcSize@WindowImplBase@DuiLib@@UAEJIIJAAH@Z 0042a1f0     DuiLib_d:DuiLib_d.dll
 0004:000001f4       __imp_?OnNcHitTest@WindowImplBase@DuiLib@@UAEJIIJAAH@Z 0042a1f4     DuiLib_d:DuiLib_d.dll
 0004:000001f8       __imp_?OnNcPaint@WindowImplBase@DuiLib@@UAEJIIJAAH@Z 0042a1f8     DuiLib_d:DuiLib_d.dll
 0004:000001fc       __imp_?OnSetFocus@WindowImplBase@DuiLib@@UAEJIIJAAH@Z 0042a1fc     DuiLib_d:DuiLib_d.dll
 0004:00000200       __imp_?OnSize@WindowImplBase@DuiLib@@UAEJIIJAAH@Z 0042a200     DuiLib_d:DuiLib_d.dll
 0004:00000204       __imp_?PaintBkColor@COptionUI@DuiLib@@UAEXPAUHDC__@@@Z 0042a204     DuiLib_d:DuiLib_d.dll
 0004:00000208       __imp_?PaintBkImage@CControlUI@DuiLib@@UAEXPAUHDC__@@@Z 0042a208     DuiLib_d:DuiLib_d.dll
 0004:0000020c       __imp_?PaintBorder@CControlUI@DuiLib@@UAEXPAUHDC__@@@Z 0042a20c     DuiLib_d:DuiLib_d.dll
 0004:00000210       __imp_?PaintForeColor@CControlUI@DuiLib@@UAEXPAUHDC__@@@Z 0042a210     DuiLib_d:DuiLib_d.dll
 0004:00000214       __imp_?PaintForeImage@COptionUI@DuiLib@@UAEXPAUHDC__@@@Z 0042a214     DuiLib_d:DuiLib_d.dll
 0004:00000218       __imp_?PaintText@COptionUI@DuiLib@@UAEXPAUHDC__@@@Z 0042a218     DuiLib_d:DuiLib_d.dll
 0004:0000021c       __imp_?QueryControlText@WindowImplBase@DuiLib@@UAEPB_WPB_W0@Z 0042a21c     DuiLib_d:DuiLib_d.dll
 0004:00000220       __imp_?ResponseDefaultKeyEvent@WindowImplBase@DuiLib@@MAEJI@Z 0042a220     DuiLib_d:DuiLib_d.dll
 0004:00000224       __imp_?Selected@COptionUI@DuiLib@@UAEX_N@Z 0042a224     DuiLib_d:DuiLib_d.dll
 0004:00000228       __imp_?SetAutoCalcWidth@CLabelUI@DuiLib@@UAEX_N@Z 0042a228     DuiLib_d:DuiLib_d.dll
 0004:0000022c       __imp_?SetContextMenuUsed@CControlUI@DuiLib@@UAEX_N@Z 0042a22c     DuiLib_d:DuiLib_d.dll
 0004:00000230       __imp_?SetCursor@CControlUI@DuiLib@@UAEXG@Z 0042a230     DuiLib_d:DuiLib_d.dll
 0004:00000234       __imp_?SetDisabledImage@CButtonUI@DuiLib@@UAEXPB_W@Z 0042a234     DuiLib_d:DuiLib_d.dll
 0004:00000238       __imp_?SetDragEnable@CControlUI@DuiLib@@UAEX_N@Z 0042a238     DuiLib_d:DuiLib_d.dll
 0004:0000023c       __imp_?SetDropEnable@CControlUI@DuiLib@@UAEX_N@Z 0042a23c     DuiLib_d:DuiLib_d.dll
 0004:00000240       __imp_?SetEnabled@COptionUI@DuiLib@@UAEX_N@Z 0042a240     DuiLib_d:DuiLib_d.dll
 0004:00000244       __imp_?SetFixedHeight@CControlUI@DuiLib@@UAEXH@Z 0042a244     DuiLib_d:DuiLib_d.dll
 0004:00000248       __imp_?SetFixedWidth@CControlUI@DuiLib@@UAEXH@Z 0042a248     DuiLib_d:DuiLib_d.dll
 0004:0000024c       __imp_?SetFixedXY@CControlUI@DuiLib@@UAEXUtagSIZE@@@Z 0042a24c     DuiLib_d:DuiLib_d.dll
 0004:00000250       __imp_?SetFloat@CControlUI@DuiLib@@UAEX_N@Z 0042a250     DuiLib_d:DuiLib_d.dll
 0004:00000254       __imp_?SetFloatAlign@CControlUI@DuiLib@@UAEXI@Z 0042a254     DuiLib_d:DuiLib_d.dll
 0004:00000258       __imp_?SetFloatPercent@CControlUI@DuiLib@@UAEXUtagTPercentInfo@2@@Z 0042a258     DuiLib_d:DuiLib_d.dll
 0004:0000025c       __imp_?SetFocus@CControlUI@DuiLib@@UAEXXZ 0042a25c     DuiLib_d:DuiLib_d.dll
 0004:00000260       __imp_?SetFocusedImage@CButtonUI@DuiLib@@UAEXPB_W@Z 0042a260     DuiLib_d:DuiLib_d.dll
 0004:00000264       __imp_?SetHotForeImage@CButtonUI@DuiLib@@UAEXPB_W@Z 0042a264     DuiLib_d:DuiLib_d.dll
 0004:00000268       __imp_?SetHotImage@CButtonUI@DuiLib@@UAEXPB_W@Z 0042a268     DuiLib_d:DuiLib_d.dll
 0004:0000026c       __imp_?SetInternVisible@CControlUI@DuiLib@@UAEX_N@Z 0042a26c     DuiLib_d:DuiLib_d.dll
 0004:00000270       __imp_?SetKeyboardEnabled@CControlUI@DuiLib@@UAEX_N@Z 0042a270     DuiLib_d:DuiLib_d.dll
 0004:00000274       __imp_?SetManager@COptionUI@DuiLib@@UAEXPAVCPaintManagerUI@2@PAVCControlUI@2@_N@Z 0042a274     DuiLib_d:DuiLib_d.dll
 0004:00000278       __imp_?SetMaxHeight@CControlUI@DuiLib@@UAEXH@Z 0042a278     DuiLib_d:DuiLib_d.dll
 0004:0000027c       __imp_?SetMaxWidth@CControlUI@DuiLib@@UAEXH@Z 0042a27c     DuiLib_d:DuiLib_d.dll
 0004:00000280       __imp_?SetMinHeight@CControlUI@DuiLib@@UAEXH@Z 0042a280     DuiLib_d:DuiLib_d.dll
 0004:00000284       __imp_?SetMinWidth@CControlUI@DuiLib@@UAEXH@Z 0042a284     DuiLib_d:DuiLib_d.dll
 0004:00000288       __imp_?SetMouseEnabled@CControlUI@DuiLib@@UAEX_N@Z 0042a288     DuiLib_d:DuiLib_d.dll
 0004:0000028c       __imp_?SetName@CControlUI@DuiLib@@UAEXPB_W@Z 0042a28c     DuiLib_d:DuiLib_d.dll
 0004:00000290       __imp_?SetNormalImage@CButtonUI@DuiLib@@UAEXPB_W@Z 0042a290     DuiLib_d:DuiLib_d.dll
 0004:00000294       __imp_?SetPadding@CControlUI@DuiLib@@UAEXUtagRECT@@@Z 0042a294     DuiLib_d:DuiLib_d.dll
 0004:00000298       __imp_?SetPos@CControlUI@DuiLib@@UAEXUtagRECT@@_N@Z 0042a298     DuiLib_d:DuiLib_d.dll
 0004:0000029c       __imp_?SetPushedImage@CButtonUI@DuiLib@@UAEXPB_W@Z 0042a29c     DuiLib_d:DuiLib_d.dll
 0004:000002a0       __imp_?SetResourceText@CControlUI@DuiLib@@UAEX_N@Z 0042a2a0     DuiLib_d:DuiLib_d.dll
 0004:000002a4       __imp_?SetSelectedStateImage@COptionUI@DuiLib@@UAEXPB_W@Z 0042a2a4     DuiLib_d:DuiLib_d.dll
 0004:000002a8       __imp_?SetShortcut@CControlUI@DuiLib@@UAEX_W@Z 0042a2a8     DuiLib_d:DuiLib_d.dll
 0004:000002ac       __imp_?SetStateImage@CButtonUI@DuiLib@@UAEXPB_W@Z 0042a2ac     DuiLib_d:DuiLib_d.dll
 0004:000002b0       __imp_?SetTag@CControlUI@DuiLib@@UAEXI@Z 0042a2b0     DuiLib_d:DuiLib_d.dll
 0004:000002b4       __imp_?SetText@CLabelUI@DuiLib@@UAEXPB_W@Z 0042a2b4     DuiLib_d:DuiLib_d.dll
 0004:000002b8       __imp_?SetToolTip@CControlUI@DuiLib@@UAEXPB_W@Z 0042a2b8     DuiLib_d:DuiLib_d.dll
 0004:000002bc       __imp_?SetToolTipWidth@CControlUI@DuiLib@@UAEXH@Z 0042a2bc     DuiLib_d:DuiLib_d.dll
 0004:000002c0       __imp_?SetUserData@CControlUI@DuiLib@@UAEXPB_W@Z 0042a2c0     DuiLib_d:DuiLib_d.dll
 0004:000002c4       __imp_?SetVisible@CControlUI@DuiLib@@UAEX_N@Z 0042a2c4     DuiLib_d:DuiLib_d.dll
 0004:000002c8       __imp_?messageMap@WindowImplBase@DuiLib@@1UDUI_MSGMAP@2@B 0042a2c8     DuiLib_d:DuiLib_d.dll
 0004:000002cc       __imp_?Close@CWindowWnd@DuiLib@@QAEXI@Z 0042a2cc     DuiLib_d:DuiLib_d.dll
 0004:000002d0       __imp_??0STRINGorID@DuiLib@@QAE@PB_W@Z 0042a2d0     DuiLib_d:DuiLib_d.dll
 0004:000002d4       __imp_??YCDuiString@DuiLib@@QAEABV01@PB_W@Z 0042a2d4     DuiLib_d:DuiLib_d.dll
 0004:000002d8       __imp_?GetInstance@CResourceManager@DuiLib@@SAPAV12@XZ 0042a2d8     DuiLib_d:DuiLib_d.dll
 0004:000002dc       __imp_?SetInstance@CPaintManagerUI@DuiLib@@SAXPAUHINSTANCE__@@@Z 0042a2dc     DuiLib_d:DuiLib_d.dll
 0004:000002e0       __imp_?LoadResource@CResourceManager@DuiLib@@QAEHVSTRINGorID@2@PB_W@Z 0042a2e0     DuiLib_d:DuiLib_d.dll
 0004:000002e4       __imp_?GetInstancePath@CPaintManagerUI@DuiLib@@SA?AVCDuiString@2@XZ 0042a2e4     DuiLib_d:DuiLib_d.dll
 0004:000002e8       __imp_?GetResourceDll@CPaintManagerUI@DuiLib@@SAPAUHINSTANCE__@@XZ 0042a2e8     DuiLib_d:DuiLib_d.dll
 0004:000002ec       \177DuiLib_d_NULL_THUNK_DATA 0042a2ec     DuiLib_d:DuiLib_d.dll
 0004:000003ac       __imp__DeleteDC@4          0042a3ac     gdi32:GDI32.dll
 0004:000003b0       __imp__DeleteObject@4      0042a3b0     gdi32:GDI32.dll
 0004:000003b4       __imp__SelectObject@8      0042a3b4     gdi32:GDI32.dll
 0004:000003b8       __imp__CreateDIBSection@24 0042a3b8     gdi32:GDI32.dll
 0004:000003bc       __imp__CreateCompatibleDC@4 0042a3bc     gdi32:GDI32.dll
 0004:000003c0       \177GDI32_NULL_THUNK_DATA  0042a3c0     gdi32:GDI32.dll
 0004:000003f0       __imp__GetCurrentProcessId@0 0042a3f0     kernel32:KERNEL32.dll
 0004:000003f4       __imp__QueryPerformanceCounter@4 0042a3f4     kernel32:KERNEL32.dll
 0004:000003f8       __imp__TerminateProcess@8  0042a3f8     kernel32:KERNEL32.dll
 0004:000003fc       __imp__GetCurrentProcess@0 0042a3fc     kernel32:KERNEL32.dll
 0004:00000400       __imp__RaiseException@16   0042a400     kernel32:KERNEL32.dll
 0004:00000404       __imp__GetSystemTimeAsFileTime@4 0042a404     kernel32:KERNEL32.dll
 0004:00000408       __imp__GetCurrentThreadId@0 0042a408     kernel32:KERNEL32.dll
 0004:0000040c       __imp__InitializeSListHead@4 0042a40c     kernel32:KERNEL32.dll
 0004:00000410       __imp__GetLastError@0      0042a410     kernel32:KERNEL32.dll
 0004:00000414       __imp__HeapAlloc@12        0042a414     kernel32:KERNEL32.dll
 0004:00000418       __imp__HeapFree@12         0042a418     kernel32:KERNEL32.dll
 0004:0000041c       __imp__GetProcessHeap@0    0042a41c     kernel32:KERNEL32.dll
 0004:00000420       __imp__VirtualQuery@12     0042a420     kernel32:KERNEL32.dll
 0004:00000424       __imp__WideCharToMultiByte@32 0042a424     kernel32:KERNEL32.dll
 0004:00000428       __imp__MultiByteToWideChar@24 0042a428     kernel32:KERNEL32.dll
 0004:0000042c       __imp__GetProcAddress@8    0042a42c     kernel32:KERNEL32.dll
 0004:00000430       __imp__GetModuleHandleW@4  0042a430     kernel32:KERNEL32.dll
 0004:00000434       __imp__GetModuleFileNameW@12 0042a434     kernel32:KERNEL32.dll
 0004:00000438       __imp__FindResourceW@12    0042a438     kernel32:KERNEL32.dll
 0004:0000043c       __imp__SizeofResource@8    0042a43c     kernel32:KERNEL32.dll
 0004:00000440       __imp__LockResource@4      0042a440     kernel32:KERNEL32.dll
 0004:00000444       __imp__LoadResource@8      0042a444     kernel32:KERNEL32.dll
 0004:00000448       __imp__FreeResource@4      0042a448     kernel32:KERNEL32.dll
 0004:0000044c       __imp__lstrlenW@4          0042a44c     kernel32:KERNEL32.dll
 0004:00000450       __imp__lstrcpyW@8          0042a450     kernel32:KERNEL32.dll
 0004:00000454       __imp__GetStartupInfoW@4   0042a454     kernel32:KERNEL32.dll
 0004:00000458       __imp__SetUnhandledExceptionFilter@4 0042a458     kernel32:KERNEL32.dll
 0004:0000045c       __imp__UnhandledExceptionFilter@4 0042a45c     kernel32:KERNEL32.dll
 0004:00000460       __imp__IsDebuggerPresent@0 0042a460     kernel32:KERNEL32.dll
 0004:00000464       __imp__IsProcessorFeaturePresent@4 0042a464     kernel32:KERNEL32.dll
 0004:00000468       __imp__CreateEventW@16     0042a468     kernel32:KERNEL32.dll
 0004:0000046c       __imp__WaitForSingleObjectEx@12 0042a46c     kernel32:KERNEL32.dll
 0004:00000470       __imp__ResetEvent@4        0042a470     kernel32:KERNEL32.dll
 0004:00000474       __imp__SetEvent@4          0042a474     kernel32:KERNEL32.dll
 0004:00000478       __imp__DeleteCriticalSection@4 0042a478     kernel32:KERNEL32.dll
 0004:0000047c       __imp__LeaveCriticalSection@4 0042a47c     kernel32:KERNEL32.dll
 0004:00000480       __imp__EnterCriticalSection@4 0042a480     kernel32:KERNEL32.dll
 0004:00000484       __imp__CloseHandle@4       0042a484     kernel32:KERNEL32.dll
 0004:00000488       __imp__FreeLibrary@4       0042a488     kernel32:KERNEL32.dll
 0004:0000048c       \177KERNEL32_NULL_THUNK_DATA 0042a48c     kernel32:KERNEL32.dll
 0004:000004d4       __imp_?_Debug_message@std@@YAXPB_W0I@Z 0042a4d4     msvcprtd:MSVCP140D.dll
 0004:000004d8       __imp_??1_Lockit@std@@QAE@XZ 0042a4d8     msvcprtd:MSVCP140D.dll
 0004:000004dc       __imp_?_Xbad_alloc@std@@YAXXZ 0042a4dc     msvcprtd:MSVCP140D.dll
 0004:000004e0       __imp_??0_Lockit@std@@QAE@H@Z 0042a4e0     msvcprtd:MSVCP140D.dll
 0004:000004e4       __imp_?_Xlength_error@std@@YAXPBD@Z 0042a4e4     msvcprtd:MSVCP140D.dll
 0004:000004e8       \177MSVCP140D_NULL_THUNK_DATA 0042a4e8     msvcprtd:MSVCP140D.dll
 0004:00000518       __imp__ShellExecuteW@24    0042a518     shell32:SHELL32.dll
 0004:0000051c       \177SHELL32_NULL_THUNK_DATA 0042a51c     shell32:SHELL32.dll
 0004:00000548       __imp_?GetInterface@CBrowserTab@@UAEPAXPB_W@Z 0042a548     TroyControls_d:TroyControls_d.dll
 0004:0000054c       __imp_?GetClass@CBrowserTab@@UBEPB_WXZ 0042a54c     TroyControls_d:TroyControls_d.dll
 0004:00000550       __imp_?PaintStatusImage@CBrowserTab@@UAEXPAUHDC__@@@Z 0042a550     TroyControls_d:TroyControls_d.dll
 0004:00000554       __imp_?SetAttribute@CBrowserTab@@UAEXPB_W0@Z 0042a554     TroyControls_d:TroyControls_d.dll
 0004:00000558       __imp_??0CBrowserTab@@QAE@XZ 0042a558     TroyControls_d:TroyControls_d.dll
 0004:0000055c       __imp_??1CBrowserTab@@UAE@XZ 0042a55c     TroyControls_d:TroyControls_d.dll
 0004:00000560       __imp_?SelectTab@CBrowserTabBar@@QAEXH@Z 0042a560     TroyControls_d:TroyControls_d.dll
 0004:00000564       __imp_?CloseTab@CBrowserTabBar@@QAEXPAVCBrowserTab@@H@Z 0042a564     TroyControls_d:TroyControls_d.dll
 0004:00000568       __imp_?DoEvent@CBrowserTab@@UAEXAAUtagTEventUI@DuiLib@@@Z 0042a568     TroyControls_d:TroyControls_d.dll
 0004:0000056c       __imp_?DoInit@CBrowserTab@@UAEXXZ 0042a56c     TroyControls_d:TroyControls_d.dll
 0004:00000570       __imp_?DoPaint@CBrowserTab@@UAEXPAUHDC__@@ABUtagRECT@@@Z 0042a570     TroyControls_d:TroyControls_d.dll
 0004:00000574       __imp_?DoPostPaint@CBrowserTab@@UAEXPAUHDC__@@ABUtagRECT@@@Z 0042a574     TroyControls_d:TroyControls_d.dll
 0004:00000578       \177TroyControls_d_NULL_THUNK_DATA 0042a578     TroyControls_d:TroyControls_d.dll
 0004:000005ac       __imp__PostQuitMessage@4   0042a5ac     user32:USER32.dll
 0004:000005b0       __imp__IsZoomed@4          0042a5b0     user32:USER32.dll
 0004:000005b4       __imp__SetTimer@16         0042a5b4     user32:USER32.dll
 0004:000005b8       __imp__KillTimer@8         0042a5b8     user32:USER32.dll
 0004:000005bc       \177USER32_NULL_THUNK_DATA 0042a5bc     user32:USER32.dll
 0004:000005e8       __imp____vcrt_LoadLibraryExW 0042a5e8     vcruntimed:VCRUNTIME140D.dll
 0004:000005ec       __imp____vcrt_GetModuleHandleW 0042a5ec     vcruntimed:VCRUNTIME140D.dll
 0004:000005f0       __imp____vcrt_GetModuleFileNameW 0042a5f0     vcruntimed:VCRUNTIME140D.dll
 0004:000005f4       __imp____std_type_info_destroy_list 0042a5f4     vcruntimed:VCRUNTIME140D.dll
 0004:000005f8       __imp____std_exception_destroy 0042a5f8     vcruntimed:VCRUNTIME140D.dll
 0004:000005fc       __imp____std_exception_copy 0042a5fc     vcruntimed:VCRUNTIME140D.dll
 0004:00000600       __imp___except_handler4_common 0042a600     vcruntimed:VCRUNTIME140D.dll
 0004:00000604       __imp____vcrt_InitializeCriticalSectionEx 0042a604     vcruntimed:VCRUNTIME140D.dll
 0004:00000608       __imp__wcsstr              0042a608     vcruntimed:VCRUNTIME140D.dll
 0004:0000060c       __imp__memcpy              0042a60c     vcruntimed:VCRUNTIME140D.dll
 0004:00000610       __imp__memset              0042a610     vcruntimed:VCRUNTIME140D.dll
 0004:00000614       __imp____CxxFrameHandler3  0042a614     vcruntimed:VCRUNTIME140D.dll
 0004:00000618       __imp___CxxThrowException@8 0042a618     vcruntimed:VCRUNTIME140D.dll
 0004:0000061c       __imp__memmove             0042a61c     vcruntimed:VCRUNTIME140D.dll
 0004:00000620       \177VCRUNTIME140D_NULL_THUNK_DATA 0042a620     vcruntimed:VCRUNTIME140D.dll
 0004:00000654       __imp__OleInitialize@4     0042a654     ole32:ole32.dll
 0004:00000658       __imp__CoUninitialize@0    0042a658     ole32:ole32.dll
 0004:0000065c       __imp__CoInitialize@4      0042a65c     ole32:ole32.dll
 0004:00000660       __imp__OleUninitialize@0   0042a660     ole32:ole32.dll
 0004:00000664       \177ole32_NULL_THUNK_DATA  0042a664     ole32:ole32.dll
 0004:00000690       __imp____p__commode        0042a690     ucrtd:ucrtbased.dll
 0004:00000694       __imp__strcpy_s            0042a694     ucrtd:ucrtbased.dll
 0004:00000698       __imp__strcat_s            0042a698     ucrtd:ucrtbased.dll
 0004:0000069c       __imp___set_fmode          0042a69c     ucrtd:ucrtbased.dll
 0004:000006a0       __imp___controlfp_s        0042a6a0     ucrtd:ucrtbased.dll
 0004:000006a4       __imp___wmakepath_s        0042a6a4     ucrtd:ucrtbased.dll
 0004:000006a8       __imp___wsplitpath_s       0042a6a8     ucrtd:ucrtbased.dll
 0004:000006ac       __imp__wcscpy_s            0042a6ac     ucrtd:ucrtbased.dll
 0004:000006b0       __imp___exit               0042a6b0     ucrtd:ucrtbased.dll
 0004:000006b4       __imp___c_exit             0042a6b4     ucrtd:ucrtbased.dll
 0004:000006b8       __imp___register_thread_local_exe_atexit_callback 0042a6b8     ucrtd:ucrtbased.dll
 0004:000006bc       __imp____stdio_common_vsprintf_s 0042a6bc     ucrtd:ucrtbased.dll
 0004:000006c0       __imp___configthreadlocale 0042a6c0     ucrtd:ucrtbased.dll
 0004:000006c4       __imp___set_new_mode       0042a6c4     ucrtd:ucrtbased.dll
 0004:000006c8       __imp___initialize_narrow_environment 0042a6c8     ucrtd:ucrtbased.dll
 0004:000006cc       __imp___invalid_parameter  0042a6cc     ucrtd:ucrtbased.dll
 0004:000006d0       __imp___CrtDbgReportW      0042a6d0     ucrtd:ucrtbased.dll
 0004:000006d4       __imp__wcscat              0042a6d4     ucrtd:ucrtbased.dll
 0004:000006d8       __imp__wcscmp              0042a6d8     ucrtd:ucrtbased.dll
 0004:000006dc       __imp__exit                0042a6dc     ucrtd:ucrtbased.dll
 0004:000006e0       __imp__wcslen              0042a6e0     ucrtd:ucrtbased.dll
 0004:000006e4       __imp__wcsncpy             0042a6e4     ucrtd:ucrtbased.dll
 0004:000006e8       __imp__strlen              0042a6e8     ucrtd:ucrtbased.dll
 0004:000006ec       __imp___wsplitpath         0042a6ec     ucrtd:ucrtbased.dll
 0004:000006f0       __imp__terminate           0042a6f0     ucrtd:ucrtbased.dll
 0004:000006f4       __imp___callnewh           0042a6f4     ucrtd:ucrtbased.dll
 0004:000006f8       __imp__malloc              0042a6f8     ucrtd:ucrtbased.dll
 0004:000006fc       __imp___free_dbg           0042a6fc     ucrtd:ucrtbased.dll
 0004:00000700       __imp___seh_filter_dll     0042a700     ucrtd:ucrtbased.dll
 0004:00000704       __imp___configure_narrow_argv 0042a704     ucrtd:ucrtbased.dll
 0004:00000708       __imp__wcscpy              0042a708     ucrtd:ucrtbased.dll
 0004:0000070c       __imp___initialize_onexit_table 0042a70c     ucrtd:ucrtbased.dll
 0004:00000710       __imp___register_onexit_function 0042a710     ucrtd:ucrtbased.dll
 0004:00000714       __imp___execute_onexit_table 0042a714     ucrtd:ucrtbased.dll
 0004:00000718       __imp___crt_atexit         0042a718     ucrtd:ucrtbased.dll
 0004:0000071c       __imp___crt_at_quick_exit  0042a71c     ucrtd:ucrtbased.dll
 0004:00000720       __imp___cexit              0042a720     ucrtd:ucrtbased.dll
 0004:00000724       __imp___CrtDbgReport       0042a724     ucrtd:ucrtbased.dll
 0004:00000728       __imp___seh_filter_exe     0042a728     ucrtd:ucrtbased.dll
 0004:0000072c       __imp___set_app_type       0042a72c     ucrtd:ucrtbased.dll
 0004:00000730       __imp____setusermatherr    0042a730     ucrtd:ucrtbased.dll
 0004:00000734       __imp___get_narrow_winmain_command_line 0042a734     ucrtd:ucrtbased.dll
 0004:00000738       __imp___initterm           0042a738     ucrtd:ucrtbased.dll
 0004:0000073c       __imp___initterm_e         0042a73c     ucrtd:ucrtbased.dll
 0004:00000740       \177ucrtbased_NULL_THUNK_DATA 0042a740     ucrtd:ucrtbased.dll
 0004:0000078c       __imp__wkeGoForward        0042a78c     wke:wke.dll
 0004:00000790       __imp__jsGetWebView        0042a790     wke:wke.dll
 0004:00000794       __imp__jsStringW           0042a794     wke:wke.dll
 0004:00000798       __imp__jsUndefined         0042a798     wke:wke.dll
 0004:0000079c       __imp__jsToTempStringW     0042a79c     wke:wke.dll
 0004:000007a0       __imp__jsIsString          0042a7a0     wke:wke.dll
 0004:000007a4       __imp__jsArg               0042a7a4     wke:wke.dll
 0004:000007a8       __imp__jsArgCount          0042a7a8     wke:wke.dll
 0004:000007ac       __imp__jsBindFunction      0042a7ac     wke:wke.dll
 0004:000007b0       __imp__wkeOnLoadingFinish  0042a7b0     wke:wke.dll
 0004:000007b4       __imp__wkeOnDocumentReady  0042a7b4     wke:wke.dll
 0004:000007b8       __imp__wkeOnCreateView     0042a7b8     wke:wke.dll
 0004:000007bc       __imp__wkeOnNavigation     0042a7bc     wke:wke.dll
 0004:000007c0       __imp__wkeOnURLChanged     0042a7c0     wke:wke.dll
 0004:000007c4       __imp__wkeGoBack           0042a7c4     wke:wke.dll
 0004:000007c8       __imp__wkeCanGoBack        0042a7c8     wke:wke.dll
 0004:000007cc       __imp__wkePaint2           0042a7cc     wke:wke.dll
 0004:000007d0       __imp__wkeResize           0042a7d0     wke:wke.dll
 0004:000007d4       __imp__wkeReload           0042a7d4     wke:wke.dll
 0004:000007d8       __imp__wkeStopLoading      0042a7d8     wke:wke.dll
 0004:000007dc       __imp__wkeLoadW            0042a7dc     wke:wke.dll
 0004:000007e0       __imp__wkeLoadHTMLW        0042a7e0     wke:wke.dll
 0004:000007e4       __imp__wkeSetUserAgent     0042a7e4     wke:wke.dll
 0004:000007e8       __imp__wkeSetTransparent   0042a7e8     wke:wke.dll
 0004:000007ec       __imp__wkeSetName          0042a7ec     wke:wke.dll
 0004:000007f0       __imp__wkeDestroyWebView   0042a7f0     wke:wke.dll
 0004:000007f4       __imp__wkeCreateWebView    0042a7f4     wke:wke.dll
 0004:000007f8       __imp__wkeFinalize         0042a7f8     wke:wke.dll
 0004:000007fc       __imp__wkeOnTitleChanged   0042a7fc     wke:wke.dll
 0004:00000800       __imp__wkeRunJS            0042a800     wke:wke.dll
 0004:00000804       __imp__wkeKillFocus        0042a804     wke:wke.dll
 0004:00000808       __imp__wkeSetFocus         0042a808     wke:wke.dll
 0004:0000080c       __imp__wkeFireKeyPressEvent 0042a80c     wke:wke.dll
 0004:00000810       __imp__wkeInitialize       0042a810     wke:wke.dll
 0004:00000814       __imp__wkeGetStringW       0042a814     wke:wke.dll
 0004:00000818       __imp__wkeFireKeyDownEvent 0042a818     wke:wke.dll
 0004:0000081c       __imp__wkeFireKeyUpEvent   0042a81c     wke:wke.dll
 0004:00000820       __imp__wkeFireMouseWheelEvent 0042a820     wke:wke.dll
 0004:00000824       __imp__wkeFireContextMenuEvent 0042a824     wke:wke.dll
 0004:00000828       __imp__wkeFireMouseEvent   0042a828     wke:wke.dll
 0004:0000082c       __imp__wkeCanGoForward     0042a82c     wke:wke.dll
 0004:00000830       \177wke_NULL_THUNK_DATA    0042a830     wke:wke.dll
 0004:0000087c       __IMPORT_DESCRIPTOR_KERNEL32 0042a87c     kernel32:KERNEL32.dll
 0004:00000890       __IMPORT_DESCRIPTOR_USER32 0042a890     user32:USER32.dll
 0004:000008a4       __IMPORT_DESCRIPTOR_GDI32  0042a8a4     gdi32:GDI32.dll
 0004:000008b8       __IMPORT_DESCRIPTOR_SHELL32 0042a8b8     shell32:SHELL32.dll
 0004:000008cc       __IMPORT_DESCRIPTOR_ole32  0042a8cc     ole32:ole32.dll
 0004:000008e0       __IMPORT_DESCRIPTOR_DuiLib_d 0042a8e0     DuiLib_d:DuiLib_d.dll
 0004:000008f4       __IMPORT_DESCRIPTOR_MSVCP140D 0042a8f4     msvcprtd:MSVCP140D.dll
 0004:00000908       __IMPORT_DESCRIPTOR_TroyControls_d 0042a908     TroyControls_d:TroyControls_d.dll
 0004:0000091c       __IMPORT_DESCRIPTOR_wke    0042a91c     wke:wke.dll
 0004:00000930       __IMPORT_DESCRIPTOR_VCRUNTIME140D 0042a930     vcruntimed:VCRUNTIME140D.dll
 0004:00000944       __IMPORT_DESCRIPTOR_ucrtbased 0042a944     ucrtd:ucrtbased.dll
 0004:00000958       __NULL_IMPORT_DESCRIPTOR   0042a958     kernel32:KERNEL32.dll
 0005:00000000       __tls_start                0042f000     MSVCRTD:tlssup.obj
 0005:00000104       __Init_thread_epoch        0042f104     MSVCRTD:thread_safe_statics.obj
 0005:00000208       __tls_end                  0042f208     MSVCRTD:tlssup.obj
 0006:00000000       ___guard_check_icall_fptr  00430000     MSVCRTD:guard_support.obj
